GAS LISTING /tmp/ccyUJxZn.s 			page 1


   1              		.file	"main.cpp"
   2              		.option pic
   3              		.option norelax
   4              		.text
   5              	.Ltext0:
   6              		.section	.rodata.str1.8,"aMS",@progbits,1
   7              		.align	3
   8              	.LC0:
   9 0000 41414141 		.string	"AAAAAAAAAAAAAAAAAAAAAAAAAAAAAAAAAAA\n"
   9      41414141 
   9      41414141 
   9      41414141 
   9      41414141 
  10              		.text
  11              		.align	2
  12              		.globl	_Z4testPv
  14              	_Z4testPv:
  15              	.LFB16:
  16              		.file 1 "src/main.cpp"
   1:src/main.cpp  **** #include "../lib/console.h"
   2:src/main.cpp  **** #include "../h/MemoryAllocator.hpp"
   3:src/main.cpp  **** #include "../h/print.hpp"
   4:src/main.cpp  **** #include "../h/riscv.hpp"
   5:src/main.cpp  **** #include "../h/syscall_c.hpp"
   6:src/main.cpp  **** #include "../h/workers.hpp"
   7:src/main.cpp  **** 
   8:src/main.cpp  **** void test(void*)
   9:src/main.cpp  **** {
  17              		.loc 1 9 1
  18              		.cfi_startproc
  19 0000 130101FF 		addi	sp,sp,-16
  20              		.cfi_def_cfa_offset 16
  21 0004 23341100 		sd	ra,8(sp)
  22 0008 23308100 		sd	s0,0(sp)
  23              		.cfi_offset 1, -8
  24              		.cfi_offset 8, -16
  25 000c 13040101 		addi	s0,sp,16
  26              		.cfi_def_cfa 8, 0
  10:src/main.cpp  ****     printString("AAAAAAAAAAAAAAAAAAAAAAAAAAAAAAAAAAA\n");
  27              		.loc 1 10 5
  28              		.loc 1 10 16 is_stmt 0
  29 0010 17050000 		lla	a0,.LC0
  29      13050500 
  30 0018 97000000 		call	_Z11printStringPKc@plt
  30      E7800000 
  31              	.LVL0:
  11:src/main.cpp  **** }
  32              		.loc 1 11 1
  33 0020 83308100 		ld	ra,8(sp)
  34              		.cfi_restore 1
  35 0024 03340100 		ld	s0,0(sp)
  36              		.cfi_restore 8
  37              		.cfi_def_cfa 2, 16
  38 0028 13010101 		addi	sp,sp,16
  39              		.cfi_def_cfa_offset 0
  40 002c 67800000 		jr	ra
  41              		.cfi_endproc
GAS LISTING /tmp/ccyUJxZn.s 			page 2


  42              	.LFE16:
  44              		.section	.rodata.str1.8
  45 0025 000000   		.align	3
  46              	.LC1:
  47 0028 0A00     		.string	"\n"
  48              		.text
  49              		.align	2
  50              		.globl	_Z5test2Pv
  52              	_Z5test2Pv:
  53              	.LFB17:
  12:src/main.cpp  **** 
  13:src/main.cpp  **** void test2(void*)
  14:src/main.cpp  **** {
  54              		.loc 1 14 1 is_stmt 1
  55              		.cfi_startproc
  56 0030 130101FE 		addi	sp,sp,-32
  57              		.cfi_def_cfa_offset 32
  58 0034 233C1100 		sd	ra,24(sp)
  59 0038 23388100 		sd	s0,16(sp)
  60 003c 23349100 		sd	s1,8(sp)
  61              		.cfi_offset 1, -8
  62              		.cfi_offset 8, -16
  63              		.cfi_offset 9, -24
  64 0040 13040102 		addi	s0,sp,32
  65              		.cfi_def_cfa 8, 0
  15:src/main.cpp  ****     int i = 0;
  66              		.loc 1 15 5
  67              	.LVL1:
  68              		.loc 1 15 9 is_stmt 0
  69 0044 93040000 		li	s1,0
  70 0048 6F000001 		j	.L6
  71              	.LVL2:
  72              	.L8:
  16:src/main.cpp  ****     while(i < 100)
  17:src/main.cpp  ****     {
  18:src/main.cpp  ****         printInteger(i);
  19:src/main.cpp  ****         printString("\n");
  20:src/main.cpp  ****         if (i % 10 == 0)
  21:src/main.cpp  ****             thread_dispatch();
  73              		.loc 1 21 13 is_stmt 1
  74              		.loc 1 21 28 is_stmt 0
  75 004c 97000000 		call	_Z15thread_dispatchv@plt
  75      E7800000 
  76              	.LVL3:
  77              	.L5:
  22:src/main.cpp  **** 
  23:src/main.cpp  ****         i++;
  78              		.loc 1 23 9 is_stmt 1
  79              		.loc 1 23 10 is_stmt 0
  80 0054 9B841400 		addiw	s1,s1,1
  81              	.LVL4:
  82              	.L6:
  16:src/main.cpp  ****     while(i < 100)
  83              		.loc 1 16 5 is_stmt 1
  16:src/main.cpp  ****     while(i < 100)
  84              		.loc 1 16 13
  85 0058 93073006 		li	a5,99
GAS LISTING /tmp/ccyUJxZn.s 			page 3


  86 005c 63C89702 		bgt	s1,a5,.L3
  18:src/main.cpp  ****         printString("\n");
  87              		.loc 1 18 9
  18:src/main.cpp  ****         printString("\n");
  88              		.loc 1 18 21 is_stmt 0
  89 0060 13850400 		mv	a0,s1
  90 0064 97000000 		call	_Z12printIntegerm@plt
  90      E7800000 
  91              	.LVL5:
  19:src/main.cpp  ****         if (i % 10 == 0)
  92              		.loc 1 19 9 is_stmt 1
  19:src/main.cpp  ****         if (i % 10 == 0)
  93              		.loc 1 19 20 is_stmt 0
  94 006c 17050000 		lla	a0,.LC1
  94      13050500 
  95 0074 97000000 		call	_Z11printStringPKc@plt
  95      E7800000 
  96              	.LVL6:
  20:src/main.cpp  ****             thread_dispatch();
  97              		.loc 1 20 9 is_stmt 1
  20:src/main.cpp  ****             thread_dispatch();
  98              		.loc 1 20 15 is_stmt 0
  99 007c 9307A000 		li	a5,10
 100 0080 BBE7F402 		remw	a5,s1,a5
  20:src/main.cpp  ****             thread_dispatch();
 101              		.loc 1 20 9
 102 0084 E39807FC 		bnez	a5,.L5
 103 0088 6FF05FFC 		j	.L8
 104              	.L3:
  24:src/main.cpp  ****     }
  25:src/main.cpp  **** }
 105              		.loc 1 25 1
 106 008c 83308101 		ld	ra,24(sp)
 107              		.cfi_restore 1
 108 0090 03340101 		ld	s0,16(sp)
 109              		.cfi_restore 8
 110              		.cfi_def_cfa 2, 32
 111 0094 83348100 		ld	s1,8(sp)
 112              		.cfi_restore 9
 113              	.LVL7:
 114 0098 13010102 		addi	sp,sp,32
 115              		.cfi_def_cfa_offset 0
 116 009c 67800000 		jr	ra
 117              		.cfi_endproc
 118              	.LFE17:
 120              		.section	.rodata.str1.8
 121 002a 00000000 		.align	3
 121      0000
 122              	.LC2:
 123 0030 46696E69 		.string	"Finished!\n"
 123      73686564 
 123      210A00
 124              		.text
 125              		.align	2
 126              		.globl	_Z8userMainv
 128              	_Z8userMainv:
 129              	.LFB18:
GAS LISTING /tmp/ccyUJxZn.s 			page 4


  26:src/main.cpp  **** 
  27:src/main.cpp  **** void userMain()
  28:src/main.cpp  **** {
 130              		.loc 1 28 1 is_stmt 1
 131              		.cfi_startproc
 132 00a0 130101FD 		addi	sp,sp,-48
 133              		.cfi_def_cfa_offset 48
 134 00a4 23341102 		sd	ra,40(sp)
 135 00a8 23308102 		sd	s0,32(sp)
 136              		.cfi_offset 1, -8
 137              		.cfi_offset 8, -16
 138 00ac 13040103 		addi	s0,sp,48
 139              		.cfi_def_cfa 8, 0
  29:src/main.cpp  ****     __putc('1');
 140              		.loc 1 29 5
 141              		.loc 1 29 11 is_stmt 0
 142 00b0 13051003 		li	a0,49
 143 00b4 97000000 		call	__putc@plt
 143      E7800000 
 144              	.LVL8:
  30:src/main.cpp  ****     __putc('\n');
 145              		.loc 1 30 5 is_stmt 1
 146              		.loc 1 30 11 is_stmt 0
 147 00bc 1305A000 		li	a0,10
 148 00c0 97000000 		call	__putc@plt
 148      E7800000 
 149              	.LVL9:
  31:src/main.cpp  **** 
  32:src/main.cpp  ****     thread_t handle2 = nullptr;
 150              		.loc 1 32 5 is_stmt 1
 151              		.loc 1 32 14 is_stmt 0
 152 00c8 233404FE 		sd	zero,-24(s0)
  33:src/main.cpp  ****     thread_t handle3 = nullptr;
 153              		.loc 1 33 5 is_stmt 1
 154              		.loc 1 33 14 is_stmt 0
 155 00cc 233004FE 		sd	zero,-32(s0)
  34:src/main.cpp  ****     thread_t handle4 = nullptr;
 156              		.loc 1 34 5 is_stmt 1
 157              		.loc 1 34 14 is_stmt 0
 158 00d0 233C04FC 		sd	zero,-40(s0)
  35:src/main.cpp  ****     thread_t handle5 = nullptr;
 159              		.loc 1 35 5 is_stmt 1
 160              		.loc 1 35 14 is_stmt 0
 161 00d4 233804FC 		sd	zero,-48(s0)
  36:src/main.cpp  **** 
  37:src/main.cpp  ****     // handle2 = (_thread**) mem_alloc(sizeof(_thread*));
  38:src/main.cpp  ****     // handle3 = (_thread**) mem_alloc(sizeof(_thread*));
  39:src/main.cpp  **** 
  40:src/main.cpp  ****     thread_create(&handle2, workerBodyA, nullptr);
 162              		.loc 1 40 5 is_stmt 1
 163              		.loc 1 40 18 is_stmt 0
 164 00d8 13060000 		li	a2,0
 165 00dc 97050000 		la	a1,_Z11workerBodyAPv
 165      83B50500 
 166 00e4 130584FE 		addi	a0,s0,-24
 167 00e8 97000000 		call	_Z13thread_createPP7_threadPFvPvES2_@plt
 167      E7800000 
GAS LISTING /tmp/ccyUJxZn.s 			page 5


 168              	.LVL10:
  41:src/main.cpp  ****     thread_create(&handle3, workerBodyB, nullptr);
 169              		.loc 1 41 5 is_stmt 1
 170              		.loc 1 41 18 is_stmt 0
 171 00f0 13060000 		li	a2,0
 172 00f4 97050000 		la	a1,_Z11workerBodyBPv
 172      83B50500 
 173 00fc 130504FE 		addi	a0,s0,-32
 174 0100 97000000 		call	_Z13thread_createPP7_threadPFvPvES2_@plt
 174      E7800000 
 175              	.LVL11:
  42:src/main.cpp  ****     thread_create(&handle4, workerBodyC, nullptr);
 176              		.loc 1 42 5 is_stmt 1
 177              		.loc 1 42 18 is_stmt 0
 178 0108 13060000 		li	a2,0
 179 010c 97050000 		la	a1,_Z11workerBodyCPv
 179      83B50500 
 180 0114 130584FD 		addi	a0,s0,-40
 181 0118 97000000 		call	_Z13thread_createPP7_threadPFvPvES2_@plt
 181      E7800000 
 182              	.LVL12:
  43:src/main.cpp  ****     thread_create(&handle5, workerBodyD, nullptr);
 183              		.loc 1 43 5 is_stmt 1
 184              		.loc 1 43 18 is_stmt 0
 185 0120 13060000 		li	a2,0
 186 0124 97050000 		la	a1,_Z11workerBodyDPv
 186      83B50500 
 187 012c 130504FD 		addi	a0,s0,-48
 188 0130 97000000 		call	_Z13thread_createPP7_threadPFvPvES2_@plt
 188      E7800000 
 189              	.LVL13:
 190 0138 6F00C000 		j	.L12
 191              	.L10:
  44:src/main.cpp  **** 
  45:src/main.cpp  ****     while(!handle2->finished || !handle3->finished || !handle4->finished || !handle5->finished)
  46:src/main.cpp  ****         thread_dispatch();
 192              		.loc 1 46 9 is_stmt 1
 193              		.loc 1 46 24 is_stmt 0
 194 013c 97000000 		call	_Z15thread_dispatchv@plt
 194      E7800000 
 195              	.LVL14:
 196              	.L12:
  45:src/main.cpp  ****         thread_dispatch();
 197              		.loc 1 45 5 is_stmt 1
  45:src/main.cpp  ****         thread_dispatch();
 198              		.loc 1 45 74
  45:src/main.cpp  ****         thread_dispatch();
 199              		.loc 1 45 21 is_stmt 0
 200 0144 833784FE 		ld	a5,-24(s0)
 201 0148 83C78700 		lbu	a5,8(a5)
  45:src/main.cpp  ****         thread_dispatch();
 202              		.loc 1 45 74
 203 014c E38807FE 		beqz	a5,.L10
  45:src/main.cpp  ****         thread_dispatch();
 204              		.loc 1 45 43 discriminator 1
 205 0150 833704FE 		ld	a5,-32(s0)
 206 0154 83C78700 		lbu	a5,8(a5)
GAS LISTING /tmp/ccyUJxZn.s 			page 6


  45:src/main.cpp  ****         thread_dispatch();
 207              		.loc 1 45 30 discriminator 1
 208 0158 E38207FE 		beqz	a5,.L10
  45:src/main.cpp  ****         thread_dispatch();
 209              		.loc 1 45 65 discriminator 2
 210 015c 833784FD 		ld	a5,-40(s0)
 211 0160 83C78700 		lbu	a5,8(a5)
  45:src/main.cpp  ****         thread_dispatch();
 212              		.loc 1 45 52 discriminator 2
 213 0164 E38C07FC 		beqz	a5,.L10
  45:src/main.cpp  ****         thread_dispatch();
 214              		.loc 1 45 87 discriminator 3
 215 0168 833704FD 		ld	a5,-48(s0)
 216 016c 83C78700 		lbu	a5,8(a5)
  45:src/main.cpp  ****         thread_dispatch();
 217              		.loc 1 45 74 discriminator 3
 218 0170 E38607FC 		beqz	a5,.L10
  47:src/main.cpp  **** 
  48:src/main.cpp  ****     printString("Finished!\n");
 219              		.loc 1 48 5 is_stmt 1
 220              		.loc 1 48 16 is_stmt 0
 221 0174 17050000 		lla	a0,.LC2
 221      13050500 
 222 017c 97000000 		call	_Z11printStringPKc@plt
 222      E7800000 
 223              	.LVL15:
  49:src/main.cpp  **** }
 224              		.loc 1 49 1
 225 0184 83308102 		ld	ra,40(sp)
 226              		.cfi_restore 1
 227 0188 03340102 		ld	s0,32(sp)
 228              		.cfi_restore 8
 229              		.cfi_def_cfa 2, 48
 230 018c 13010103 		addi	sp,sp,48
 231              		.cfi_def_cfa_offset 0
 232 0190 67800000 		jr	ra
 233              		.cfi_endproc
 234              	.LFE18:
 236              		.align	2
 237              		.globl	main
 239              	main:
 240              	.LFB19:
  50:src/main.cpp  **** 
  51:src/main.cpp  **** 
  52:src/main.cpp  **** 
  53:src/main.cpp  **** void main(void*)
  54:src/main.cpp  **** {
 241              		.loc 1 54 1 is_stmt 1
 242              		.cfi_startproc
 243 0194 130101FE 		addi	sp,sp,-32
 244              		.cfi_def_cfa_offset 32
 245 0198 233C1100 		sd	ra,24(sp)
 246 019c 23388100 		sd	s0,16(sp)
 247              		.cfi_offset 1, -8
 248              		.cfi_offset 8, -16
 249 01a0 13040102 		addi	s0,sp,32
 250              		.cfi_def_cfa 8, 0
GAS LISTING /tmp/ccyUJxZn.s 			page 7


  55:src/main.cpp  ****     MemoryAllocator::initialise();
 251              		.loc 1 55 5
 252              		.loc 1 55 32 is_stmt 0
 253 01a4 97000000 		call	_ZN15MemoryAllocator10initialiseEv@plt
 253      E7800000 
 254              	.LVL16:
  56:src/main.cpp  **** 
  57:src/main.cpp  ****     Riscv::w_stvec((uint64) &Riscv::supervisorTrap);
 255              		.loc 1 57 5 is_stmt 1
 256              		.loc 1 57 19 is_stmt 0
 257 01ac 97070000 		la	a5,_ZN5Riscv14supervisorTrapEv
 257      83B70700 
 258              	.LVL17:
 259              	.LBB6:
 260              	.LBB7:
 261              		.file 2 "src/../h/riscv.hpp"
   1:src/../h/riscv.hpp **** 
   2:src/../h/riscv.hpp **** #ifndef OS1_VEZBE07_RISCV_CONTEXT_SWITCH_2_INTERRUPT_RISCV_HPP
   3:src/../h/riscv.hpp **** #define OS1_VEZBE07_RISCV_CONTEXT_SWITCH_2_INTERRUPT_RISCV_HPP
   4:src/../h/riscv.hpp **** 
   5:src/../h/riscv.hpp **** #include "../lib/hw.h"
   6:src/../h/riscv.hpp **** 
   7:src/../h/riscv.hpp **** class Riscv
   8:src/../h/riscv.hpp **** {
   9:src/../h/riscv.hpp **** public:
  10:src/../h/riscv.hpp **** 
  11:src/../h/riscv.hpp ****     // pop sstatus.spp and sstatus.spie bits (has to be a non inline function)
  12:src/../h/riscv.hpp ****     static void popSppSpie();
  13:src/../h/riscv.hpp **** 
  14:src/../h/riscv.hpp ****     // read register scause
  15:src/../h/riscv.hpp ****     static uint64 r_scause();
  16:src/../h/riscv.hpp **** 
  17:src/../h/riscv.hpp ****     // write register scause
  18:src/../h/riscv.hpp ****     static void w_scause(uint64 scause);
  19:src/../h/riscv.hpp **** 
  20:src/../h/riscv.hpp ****     // read register sepc
  21:src/../h/riscv.hpp ****     static uint64 r_sepc();
  22:src/../h/riscv.hpp **** 
  23:src/../h/riscv.hpp ****     // write register sepc
  24:src/../h/riscv.hpp ****     static void w_sepc(uint64 sepc);
  25:src/../h/riscv.hpp **** 
  26:src/../h/riscv.hpp ****     // read register stvec
  27:src/../h/riscv.hpp ****     static uint64 r_stvec();
  28:src/../h/riscv.hpp **** 
  29:src/../h/riscv.hpp ****     // write register stvec
  30:src/../h/riscv.hpp ****     static void w_stvec(uint64 stvec);
  31:src/../h/riscv.hpp **** 
  32:src/../h/riscv.hpp ****     // read register stval
  33:src/../h/riscv.hpp ****     static uint64 r_stval();
  34:src/../h/riscv.hpp **** 
  35:src/../h/riscv.hpp ****     // write register stval
  36:src/../h/riscv.hpp ****     static void w_stval(uint64 stval);
  37:src/../h/riscv.hpp **** 
  38:src/../h/riscv.hpp ****     enum BitMaskSip
  39:src/../h/riscv.hpp ****     {
  40:src/../h/riscv.hpp ****         SIP_SSIP = (1 << 1),
  41:src/../h/riscv.hpp ****         SIP_STIP = (1 << 5),
GAS LISTING /tmp/ccyUJxZn.s 			page 8


  42:src/../h/riscv.hpp ****         SIP_SEIP = (1 << 9),
  43:src/../h/riscv.hpp ****     };
  44:src/../h/riscv.hpp **** 
  45:src/../h/riscv.hpp ****     // mask set register sip
  46:src/../h/riscv.hpp ****     static void ms_sip(uint64 mask);
  47:src/../h/riscv.hpp **** 
  48:src/../h/riscv.hpp ****     // mask clear register sip
  49:src/../h/riscv.hpp ****     static void mc_sip(uint64 mask);
  50:src/../h/riscv.hpp **** 
  51:src/../h/riscv.hpp ****     // read register sip
  52:src/../h/riscv.hpp ****     static uint64 r_sip();
  53:src/../h/riscv.hpp **** 
  54:src/../h/riscv.hpp ****     // write register sip
  55:src/../h/riscv.hpp ****     static void w_sip(uint64 sip);
  56:src/../h/riscv.hpp **** 
  57:src/../h/riscv.hpp ****     enum BitMaskSstatus
  58:src/../h/riscv.hpp ****     {
  59:src/../h/riscv.hpp ****         SSTATUS_SIE = (1 << 1),
  60:src/../h/riscv.hpp ****         SSTATUS_SPIE = (1 << 5),
  61:src/../h/riscv.hpp ****         SSTATUS_SPP = (1 << 8),
  62:src/../h/riscv.hpp ****     };
  63:src/../h/riscv.hpp **** 
  64:src/../h/riscv.hpp ****     // mask set register sstatus
  65:src/../h/riscv.hpp ****     static void ms_sstatus(uint64 mask);
  66:src/../h/riscv.hpp **** 
  67:src/../h/riscv.hpp ****     // mask clear register sstatus
  68:src/../h/riscv.hpp ****     static void mc_sstatus(uint64 mask);
  69:src/../h/riscv.hpp **** 
  70:src/../h/riscv.hpp ****     // read register sstatus
  71:src/../h/riscv.hpp ****     static uint64 r_sstatus();
  72:src/../h/riscv.hpp **** 
  73:src/../h/riscv.hpp ****     // write register sstatus
  74:src/../h/riscv.hpp ****     static void w_sstatus(uint64 sstatus);
  75:src/../h/riscv.hpp **** 
  76:src/../h/riscv.hpp ****     // supervisor trap
  77:src/../h/riscv.hpp ****     static void supervisorTrap();
  78:src/../h/riscv.hpp **** 
  79:src/../h/riscv.hpp **** private:
  80:src/../h/riscv.hpp **** 
  81:src/../h/riscv.hpp ****     // supervisor trap handler
  82:src/../h/riscv.hpp ****     static void handleSupervisorTrap();
  83:src/../h/riscv.hpp **** 
  84:src/../h/riscv.hpp **** };
  85:src/../h/riscv.hpp **** 
  86:src/../h/riscv.hpp **** inline uint64 Riscv::r_scause()
  87:src/../h/riscv.hpp **** {
  88:src/../h/riscv.hpp ****     uint64 volatile scause;
  89:src/../h/riscv.hpp ****     __asm__ volatile ("csrr %[scause], scause" : [scause] "=r"(scause));
  90:src/../h/riscv.hpp ****     return scause;
  91:src/../h/riscv.hpp **** }
  92:src/../h/riscv.hpp **** 
  93:src/../h/riscv.hpp **** inline void Riscv::w_scause(uint64 scause)
  94:src/../h/riscv.hpp **** {
  95:src/../h/riscv.hpp ****     __asm__ volatile ("csrw scause, %[scause]" : : [scause] "r"(scause));
  96:src/../h/riscv.hpp **** }
  97:src/../h/riscv.hpp **** 
  98:src/../h/riscv.hpp **** inline uint64 Riscv::r_sepc()
GAS LISTING /tmp/ccyUJxZn.s 			page 9


  99:src/../h/riscv.hpp **** {
 100:src/../h/riscv.hpp ****     uint64 volatile sepc;
 101:src/../h/riscv.hpp ****     __asm__ volatile ("csrr %[sepc], sepc" : [sepc] "=r"(sepc));
 102:src/../h/riscv.hpp ****     return sepc;
 103:src/../h/riscv.hpp **** }
 104:src/../h/riscv.hpp **** 
 105:src/../h/riscv.hpp **** inline void Riscv::w_sepc(uint64 sepc)
 106:src/../h/riscv.hpp **** {
 107:src/../h/riscv.hpp ****     __asm__ volatile ("csrw sepc, %[sepc]" : : [sepc] "r"(sepc));
 108:src/../h/riscv.hpp **** }
 109:src/../h/riscv.hpp **** 
 110:src/../h/riscv.hpp **** inline uint64 Riscv::r_stvec()
 111:src/../h/riscv.hpp **** {
 112:src/../h/riscv.hpp ****     uint64 volatile stvec;
 113:src/../h/riscv.hpp ****     __asm__ volatile ("csrr %[stvec], stvec" : [stvec] "=r"(stvec));
 114:src/../h/riscv.hpp ****     return stvec;
 115:src/../h/riscv.hpp **** }
 116:src/../h/riscv.hpp **** 
 117:src/../h/riscv.hpp **** inline void Riscv::w_stvec(uint64 stvec)
 118:src/../h/riscv.hpp **** {
 119:src/../h/riscv.hpp ****     __asm__ volatile ("csrw stvec, %[stvec]" : : [stvec] "r"(stvec));
 262              		.loc 2 119 5 is_stmt 1
 263              		.loc 2 119 69 is_stmt 0
 264              	#APP
 265              	# 119 "src/../h/riscv.hpp" 1
 120              	}
 266              		csrw stvec, a5
 267              	# 0 "" 2
 268              	.LVL18:
 269              	#NO_APP
 270              	.LBE7:
 271              	.LBE6:
  58:src/main.cpp  ****     thread_t handle = nullptr;
 272              		.loc 1 58 5 is_stmt 1
 273              		.loc 1 58 14 is_stmt 0
 274 01b8 233404FE 		sd	zero,-24(s0)
  59:src/main.cpp  **** 
  60:src/main.cpp  **** //    size_t blockNum = MemoryAllocator::convert2Blocks(sizeof(_thread**));
  61:src/main.cpp  **** //    handle = (_thread**) MemoryAllocator::mem_alloc(blockNum);
  62:src/main.cpp  **** 
  63:src/main.cpp  ****     thread_create(&handle, nullptr, nullptr);
 275              		.loc 1 63 5 is_stmt 1
 276              		.loc 1 63 18 is_stmt 0
 277 01bc 13060000 		li	a2,0
 278 01c0 93050000 		li	a1,0
 279 01c4 130584FE 		addi	a0,s0,-24
 280 01c8 97000000 		call	_Z13thread_createPP7_threadPFvPvES2_@plt
 280      E7800000 
 281              	.LVL19:
  64:src/main.cpp  **** 
  65:src/main.cpp  **** //    printString("Main Thread handle: ");
  66:src/main.cpp  **** //    printInteger((size_t)*handle);
  67:src/main.cpp  **** //    printString("\n");
  68:src/main.cpp  **** 
  69:src/main.cpp  ****     _thread::running = handle;
 282              		.loc 1 69 5 is_stmt 1
 283              		.loc 1 69 22 is_stmt 0
GAS LISTING /tmp/ccyUJxZn.s 			page 10


 284 01d0 97070000 		la	a5,_ZN7_thread7runningE
 284      83B70700 
 285 01d8 033784FE 		ld	a4,-24(s0)
 286 01dc 23B0E700 		sd	a4,0(a5)
  70:src/main.cpp  **** 
  71:src/main.cpp  **** //    printString("Main Thread return value: ");
  72:src/main.cpp  **** //    printInteger(retVal);
  73:src/main.cpp  **** //    printString("\n");
  74:src/main.cpp  **** 
  75:src/main.cpp  ****     Riscv::ms_sstatus(Riscv::SSTATUS_SIE);
 287              		.loc 1 75 5 is_stmt 1
 288              	.LVL20:
 289              	.LBB8:
 290              	.LBB9:
 121:src/../h/riscv.hpp **** 
 122:src/../h/riscv.hpp **** inline uint64 Riscv::r_stval()
 123:src/../h/riscv.hpp **** {
 124:src/../h/riscv.hpp ****     uint64 volatile stval;
 125:src/../h/riscv.hpp ****     __asm__ volatile ("csrr %[stval], stval" : [stval] "=r"(stval));
 126:src/../h/riscv.hpp ****     return stval;
 127:src/../h/riscv.hpp **** }
 128:src/../h/riscv.hpp **** 
 129:src/../h/riscv.hpp **** inline void Riscv::w_stval(uint64 stval)
 130:src/../h/riscv.hpp **** {
 131:src/../h/riscv.hpp ****     __asm__ volatile ("csrw stval, %[stval]" : : [stval] "r"(stval));
 132:src/../h/riscv.hpp **** }
 133:src/../h/riscv.hpp **** 
 134:src/../h/riscv.hpp **** inline void Riscv::ms_sip(uint64 mask)
 135:src/../h/riscv.hpp **** {
 136:src/../h/riscv.hpp ****     __asm__ volatile ("csrs sip, %[mask]" : : [mask] "r"(mask));
 137:src/../h/riscv.hpp **** }
 138:src/../h/riscv.hpp **** 
 139:src/../h/riscv.hpp **** inline void Riscv::mc_sip(uint64 mask)
 140:src/../h/riscv.hpp **** {
 141:src/../h/riscv.hpp ****     __asm__ volatile ("csrc sip, %[mask]" : : [mask] "r"(mask));
 142:src/../h/riscv.hpp **** }
 143:src/../h/riscv.hpp **** 
 144:src/../h/riscv.hpp **** inline uint64 Riscv::r_sip()
 145:src/../h/riscv.hpp **** {
 146:src/../h/riscv.hpp ****     uint64 volatile sip;
 147:src/../h/riscv.hpp ****     __asm__ volatile ("csrr %[sip], sip" : [sip] "=r"(sip));
 148:src/../h/riscv.hpp ****     return sip;
 149:src/../h/riscv.hpp **** }
 150:src/../h/riscv.hpp **** 
 151:src/../h/riscv.hpp **** inline void Riscv::w_sip(uint64 sip)
 152:src/../h/riscv.hpp **** {
 153:src/../h/riscv.hpp ****     __asm__ volatile ("csrw sip, %[sip]" : : [sip] "r"(sip));
 154:src/../h/riscv.hpp **** }
 155:src/../h/riscv.hpp **** 
 156:src/../h/riscv.hpp **** inline void Riscv::ms_sstatus(uint64 mask)
 157:src/../h/riscv.hpp **** {
 158:src/../h/riscv.hpp ****     __asm__ volatile ("csrs sstatus, %[mask]" : : [mask] "r"(mask));
 291              		.loc 2 158 5
 292              		.loc 2 158 68 is_stmt 0
 293 01e0 93072000 		li	a5,2
 294              	#APP
 295              	# 158 "src/../h/riscv.hpp" 1
GAS LISTING /tmp/ccyUJxZn.s 			page 11


 159              	}
 296              		csrs sstatus, a5
 297              	# 0 "" 2
 298              	.LVL21:
 299              	#NO_APP
 300              	.LBE9:
 301              	.LBE8:
  76:src/main.cpp  **** 
  77:src/main.cpp  ****     userMain();
 302              		.loc 1 77 5 is_stmt 1
 303              		.loc 1 77 13 is_stmt 0
 304 01e8 97000000 		call	_Z8userMainv
 304      E7800000 
 305              	.LVL22:
  78:src/main.cpp  **** 
  79:src/main.cpp  ****     // thread_exit();
  80:src/main.cpp  **** }
 306              		.loc 1 80 1
 307 01f0 83308101 		ld	ra,24(sp)
 308              		.cfi_restore 1
 309 01f4 03340101 		ld	s0,16(sp)
 310              		.cfi_restore 8
 311              		.cfi_def_cfa 2, 32
 312 01f8 13010102 		addi	sp,sp,32
 313              		.cfi_def_cfa_offset 0
 314 01fc 67800000 		jr	ra
 315              		.cfi_endproc
 316              	.LFE19:
 318              	.Letext0:
 319              		.file 3 "src/../h/../lib/hw.h"
 320              		.file 4 "src/../h/MemoryAllocator.hpp"
 321              		.file 5 "src/../h/../h/thread.hpp"
 322              		.file 6 "src/../h/syscall_c.hpp"
 323              		.file 7 "src/../lib/console.h"
 324              		.file 8 "src/../h/print.hpp"
GAS LISTING /tmp/ccyUJxZn.s 			page 12


DEFINED SYMBOLS
                            *ABS*:0000000000000000 main.cpp
     /tmp/ccyUJxZn.s:14     .text:0000000000000000 _Z4testPv
     /tmp/ccyUJxZn.s:18     .text:0000000000000000 .L0 
     /tmp/ccyUJxZn.s:19     .text:0000000000000000 .L0 
     /tmp/ccyUJxZn.s:20     .text:0000000000000004 .L0 
     /tmp/ccyUJxZn.s:23     .text:000000000000000c .L0 
     /tmp/ccyUJxZn.s:24     .text:000000000000000c .L0 
     /tmp/ccyUJxZn.s:26     .text:0000000000000010 .L0 
     /tmp/ccyUJxZn.s:28     .text:0000000000000010 .L0 
     /tmp/ccyUJxZn.s:29     .text:0000000000000010 .L0 
     /tmp/ccyUJxZn.s:33     .text:0000000000000020 .L0 
     /tmp/ccyUJxZn.s:34     .text:0000000000000024 .L0 
     /tmp/ccyUJxZn.s:36     .text:0000000000000028 .L0 
     /tmp/ccyUJxZn.s:37     .text:0000000000000028 .L0 
     /tmp/ccyUJxZn.s:39     .text:000000000000002c .L0 
     /tmp/ccyUJxZn.s:41     .text:0000000000000030 .L0 
     /tmp/ccyUJxZn.s:52     .text:0000000000000030 _Z5test2Pv
     /tmp/ccyUJxZn.s:55     .text:0000000000000030 .L0 
     /tmp/ccyUJxZn.s:56     .text:0000000000000030 .L0 
     /tmp/ccyUJxZn.s:57     .text:0000000000000034 .L0 
     /tmp/ccyUJxZn.s:61     .text:0000000000000040 .L0 
     /tmp/ccyUJxZn.s:62     .text:0000000000000040 .L0 
     /tmp/ccyUJxZn.s:63     .text:0000000000000040 .L0 
     /tmp/ccyUJxZn.s:65     .text:0000000000000044 .L0 
     /tmp/ccyUJxZn.s:68     .text:0000000000000044 .L0 
     /tmp/ccyUJxZn.s:69     .text:0000000000000044 .L0 
     /tmp/ccyUJxZn.s:74     .text:000000000000004c .L0 
     /tmp/ccyUJxZn.s:75     .text:000000000000004c .L0 
     /tmp/ccyUJxZn.s:79     .text:0000000000000054 .L0 
     /tmp/ccyUJxZn.s:80     .text:0000000000000054 .L0 
     /tmp/ccyUJxZn.s:84     .text:0000000000000058 .L0 
     /tmp/ccyUJxZn.s:85     .text:0000000000000058 .L0 
     /tmp/ccyUJxZn.s:88     .text:0000000000000060 .L0 
     /tmp/ccyUJxZn.s:89     .text:0000000000000060 .L0 
     /tmp/ccyUJxZn.s:93     .text:000000000000006c .L0 
     /tmp/ccyUJxZn.s:94     .text:000000000000006c .L0 
     /tmp/ccyUJxZn.s:98     .text:000000000000007c .L0 
     /tmp/ccyUJxZn.s:99     .text:000000000000007c .L0 
     /tmp/ccyUJxZn.s:102    .text:0000000000000084 .L0 
     /tmp/ccyUJxZn.s:106    .text:000000000000008c .L0 
     /tmp/ccyUJxZn.s:107    .text:0000000000000090 .L0 
     /tmp/ccyUJxZn.s:109    .text:0000000000000094 .L0 
     /tmp/ccyUJxZn.s:110    .text:0000000000000094 .L0 
     /tmp/ccyUJxZn.s:112    .text:0000000000000098 .L0 
     /tmp/ccyUJxZn.s:115    .text:000000000000009c .L0 
     /tmp/ccyUJxZn.s:117    .text:00000000000000a0 .L0 
     /tmp/ccyUJxZn.s:128    .text:00000000000000a0 _Z8userMainv
     /tmp/ccyUJxZn.s:131    .text:00000000000000a0 .L0 
     /tmp/ccyUJxZn.s:132    .text:00000000000000a0 .L0 
     /tmp/ccyUJxZn.s:133    .text:00000000000000a4 .L0 
     /tmp/ccyUJxZn.s:136    .text:00000000000000ac .L0 
     /tmp/ccyUJxZn.s:137    .text:00000000000000ac .L0 
     /tmp/ccyUJxZn.s:139    .text:00000000000000b0 .L0 
     /tmp/ccyUJxZn.s:141    .text:00000000000000b0 .L0 
     /tmp/ccyUJxZn.s:142    .text:00000000000000b0 .L0 
     /tmp/ccyUJxZn.s:146    .text:00000000000000bc .L0 
GAS LISTING /tmp/ccyUJxZn.s 			page 13


     /tmp/ccyUJxZn.s:147    .text:00000000000000bc .L0 
     /tmp/ccyUJxZn.s:151    .text:00000000000000c8 .L0 
     /tmp/ccyUJxZn.s:152    .text:00000000000000c8 .L0 
     /tmp/ccyUJxZn.s:154    .text:00000000000000cc .L0 
     /tmp/ccyUJxZn.s:155    .text:00000000000000cc .L0 
     /tmp/ccyUJxZn.s:157    .text:00000000000000d0 .L0 
     /tmp/ccyUJxZn.s:158    .text:00000000000000d0 .L0 
     /tmp/ccyUJxZn.s:160    .text:00000000000000d4 .L0 
     /tmp/ccyUJxZn.s:161    .text:00000000000000d4 .L0 
     /tmp/ccyUJxZn.s:163    .text:00000000000000d8 .L0 
     /tmp/ccyUJxZn.s:164    .text:00000000000000d8 .L0 
     /tmp/ccyUJxZn.s:170    .text:00000000000000f0 .L0 
     /tmp/ccyUJxZn.s:171    .text:00000000000000f0 .L0 
     /tmp/ccyUJxZn.s:177    .text:0000000000000108 .L0 
     /tmp/ccyUJxZn.s:178    .text:0000000000000108 .L0 
     /tmp/ccyUJxZn.s:184    .text:0000000000000120 .L0 
     /tmp/ccyUJxZn.s:185    .text:0000000000000120 .L0 
     /tmp/ccyUJxZn.s:193    .text:000000000000013c .L0 
     /tmp/ccyUJxZn.s:194    .text:000000000000013c .L0 
     /tmp/ccyUJxZn.s:198    .text:0000000000000144 .L0 
     /tmp/ccyUJxZn.s:199    .text:0000000000000144 .L0 
     /tmp/ccyUJxZn.s:200    .text:0000000000000144 .L0 
     /tmp/ccyUJxZn.s:203    .text:000000000000014c .L0 
     /tmp/ccyUJxZn.s:205    .text:0000000000000150 .L0 
     /tmp/ccyUJxZn.s:208    .text:0000000000000158 .L0 
     /tmp/ccyUJxZn.s:210    .text:000000000000015c .L0 
     /tmp/ccyUJxZn.s:213    .text:0000000000000164 .L0 
     /tmp/ccyUJxZn.s:215    .text:0000000000000168 .L0 
     /tmp/ccyUJxZn.s:218    .text:0000000000000170 .L0 
     /tmp/ccyUJxZn.s:220    .text:0000000000000174 .L0 
     /tmp/ccyUJxZn.s:221    .text:0000000000000174 .L0 
     /tmp/ccyUJxZn.s:225    .text:0000000000000184 .L0 
     /tmp/ccyUJxZn.s:226    .text:0000000000000188 .L0 
     /tmp/ccyUJxZn.s:228    .text:000000000000018c .L0 
     /tmp/ccyUJxZn.s:229    .text:000000000000018c .L0 
     /tmp/ccyUJxZn.s:231    .text:0000000000000190 .L0 
     /tmp/ccyUJxZn.s:233    .text:0000000000000194 .L0 
     /tmp/ccyUJxZn.s:239    .text:0000000000000194 main
     /tmp/ccyUJxZn.s:242    .text:0000000000000194 .L0 
     /tmp/ccyUJxZn.s:243    .text:0000000000000194 .L0 
     /tmp/ccyUJxZn.s:244    .text:0000000000000198 .L0 
     /tmp/ccyUJxZn.s:247    .text:00000000000001a0 .L0 
     /tmp/ccyUJxZn.s:248    .text:00000000000001a0 .L0 
     /tmp/ccyUJxZn.s:250    .text:00000000000001a4 .L0 
     /tmp/ccyUJxZn.s:252    .text:00000000000001a4 .L0 
     /tmp/ccyUJxZn.s:253    .text:00000000000001a4 .L0 
     /tmp/ccyUJxZn.s:256    .text:00000000000001ac .L0 
     /tmp/ccyUJxZn.s:257    .text:00000000000001ac .L0 
     /tmp/ccyUJxZn.s:263    .text:00000000000001b4 .L0 
  src/../h/riscv.hpp:119    .text:00000000000001b4 .L0 
     /tmp/ccyUJxZn.s:273    .text:00000000000001b8 .L0 
     /tmp/ccyUJxZn.s:274    .text:00000000000001b8 .L0 
     /tmp/ccyUJxZn.s:276    .text:00000000000001bc .L0 
     /tmp/ccyUJxZn.s:277    .text:00000000000001bc .L0 
     /tmp/ccyUJxZn.s:283    .text:00000000000001d0 .L0 
     /tmp/ccyUJxZn.s:284    .text:00000000000001d0 .L0 
     /tmp/ccyUJxZn.s:291    .text:00000000000001e0 .L0 
GAS LISTING /tmp/ccyUJxZn.s 			page 14


     /tmp/ccyUJxZn.s:292    .text:00000000000001e0 .L0 
     /tmp/ccyUJxZn.s:293    .text:00000000000001e0 .L0 
     /tmp/ccyUJxZn.s:303    .text:00000000000001e8 .L0 
     /tmp/ccyUJxZn.s:304    .text:00000000000001e8 .L0 
     /tmp/ccyUJxZn.s:307    .text:00000000000001f0 .L0 
     /tmp/ccyUJxZn.s:308    .text:00000000000001f4 .L0 
     /tmp/ccyUJxZn.s:310    .text:00000000000001f8 .L0 
     /tmp/ccyUJxZn.s:311    .text:00000000000001f8 .L0 
     /tmp/ccyUJxZn.s:313    .text:00000000000001fc .L0 
     /tmp/ccyUJxZn.s:315    .text:0000000000000200 .L0 
     /tmp/ccyUJxZn.s:325    .text:0000000000000200 .L0 
     /tmp/ccyUJxZn.s:8      .rodata.str1.8:0000000000000000 .LC0
     /tmp/ccyUJxZn.s:29     .text:0000000000000010 .L0 
     /tmp/ccyUJxZn.s:46     .rodata.str1.8:0000000000000028 .LC1
     /tmp/ccyUJxZn.s:94     .text:000000000000006c .L0 
     /tmp/ccyUJxZn.s:165    .text:00000000000000dc .L0 
     /tmp/ccyUJxZn.s:172    .text:00000000000000f4 .L0 
     /tmp/ccyUJxZn.s:179    .text:000000000000010c .L0 
     /tmp/ccyUJxZn.s:186    .text:0000000000000124 .L0 
     /tmp/ccyUJxZn.s:122    .rodata.str1.8:0000000000000030 .LC2
     /tmp/ccyUJxZn.s:221    .text:0000000000000174 .L0 
     /tmp/ccyUJxZn.s:257    .text:00000000000001ac .L0 
     /tmp/ccyUJxZn.s:284    .text:00000000000001d0 .L0 
     /tmp/ccyUJxZn.s:82     .text:0000000000000058 .L6
     /tmp/ccyUJxZn.s:104    .text:000000000000008c .L3
     /tmp/ccyUJxZn.s:77     .text:0000000000000054 .L5
     /tmp/ccyUJxZn.s:72     .text:000000000000004c .L8
     /tmp/ccyUJxZn.s:196    .text:0000000000000144 .L12
     /tmp/ccyUJxZn.s:191    .text:000000000000013c .L10
     /tmp/ccyUJxZn.s:1264   .debug_abbrev:0000000000000000 .Ldebug_abbrev0
     /tmp/ccyUJxZn.s:2158   .debug_str:0000000000000591 .LASF116
     /tmp/ccyUJxZn.s:2072   .debug_str:000000000000032f .LASF117
     /tmp/ccyUJxZn.s:2032   .debug_str:00000000000001e8 .LASF118
     /tmp/ccyUJxZn.s:5      .text:0000000000000000 .Ltext0
     /tmp/ccyUJxZn.s:318    .text:0000000000000200 .Letext0
     /tmp/ccyUJxZn.s:1954   .debug_line:0000000000000000 .Ldebug_line0
     /tmp/ccyUJxZn.s:2096   .debug_str:00000000000003e2 .LASF0
     /tmp/ccyUJxZn.s:2110   .debug_str:0000000000000423 .LASF1
     /tmp/ccyUJxZn.s:2086   .debug_str:000000000000038d .LASF2
     /tmp/ccyUJxZn.s:2058   .debug_str:00000000000002d8 .LASF4
     /tmp/ccyUJxZn.s:2140   .debug_str:000000000000050b .LASF3
     /tmp/ccyUJxZn.s:1982   .debug_str:0000000000000091 .LASF5
     /tmp/ccyUJxZn.s:2114   .debug_str:0000000000000441 .LASF6
     /tmp/ccyUJxZn.s:2094   .debug_str:00000000000003cf .LASF7
     /tmp/ccyUJxZn.s:2170   .debug_str:00000000000006d2 .LASF8
     /tmp/ccyUJxZn.s:2044   .debug_str:000000000000025d .LASF9
     /tmp/ccyUJxZn.s:2122   .debug_str:0000000000000491 .LASF10
     /tmp/ccyUJxZn.s:2160   .debug_str:0000000000000655 .LASF11
     /tmp/ccyUJxZn.s:1986   .debug_str:00000000000000a4 .LASF12
     /tmp/ccyUJxZn.s:1964   .debug_str:0000000000000021 .LASF13
     /tmp/ccyUJxZn.s:1994   .debug_str:00000000000000f5 .LASF14
     /tmp/ccyUJxZn.s:2136   .debug_str:00000000000004dd .LASF15
     /tmp/ccyUJxZn.s:2004   .debug_str:000000000000012a .LASF16
     /tmp/ccyUJxZn.s:2030   .debug_str:00000000000001e0 .LASF20
     /tmp/ccyUJxZn.s:2192   .debug_str:0000000000000777 .LASF17
     /tmp/ccyUJxZn.s:2180   .debug_str:0000000000000728 .LASF18
     /tmp/ccyUJxZn.s:2152   .debug_str:0000000000000573 .LASF19
GAS LISTING /tmp/ccyUJxZn.s 			page 15


     /tmp/ccyUJxZn.s:2084   .debug_str:000000000000037d .LASF32
     /tmp/ccyUJxZn.s:1962   .debug_str:0000000000000018 .LASF21
     /tmp/ccyUJxZn.s:1958   .debug_str:0000000000000009 .LASF22
     /tmp/ccyUJxZn.s:2010   .debug_str:0000000000000163 .LASF23
     /tmp/ccyUJxZn.s:2022   .debug_str:00000000000001b0 .LASF28
     /tmp/ccyUJxZn.s:2118   .debug_str:0000000000000463 .LASF30
     /tmp/ccyUJxZn.s:2112   .debug_str:0000000000000436 .LASF37
     /tmp/ccyUJxZn.s:1990   .debug_str:00000000000000c8 .LASF39
     /tmp/ccyUJxZn.s:2142   .debug_str:000000000000051d .LASF24
     /tmp/ccyUJxZn.s:2148   .debug_str:000000000000054b .LASF26
     /tmp/ccyUJxZn.s:2124   .debug_str:00000000000004a0 .LASF25
     /tmp/ccyUJxZn.s:2042   .debug_str:000000000000023c .LASF27
     /tmp/ccyUJxZn.s:2100   .debug_str:00000000000003f6 .LASF29
     /tmp/ccyUJxZn.s:2092   .debug_str:00000000000003a8 .LASF31
     /tmp/ccyUJxZn.s:2108   .debug_str:000000000000041d .LASF33
     /tmp/ccyUJxZn.s:2008   .debug_str:0000000000000154 .LASF119
     /tmp/ccyUJxZn.s:2002   .debug_str:000000000000011e .LASF34
     /tmp/ccyUJxZn.s:2074   .debug_str:000000000000033c .LASF35
     /tmp/ccyUJxZn.s:1984   .debug_str:0000000000000098 .LASF36
     /tmp/ccyUJxZn.s:2132   .debug_str:00000000000004cb .LASF38
     /tmp/ccyUJxZn.s:2186   .debug_str:0000000000000748 .LASF40
     /tmp/ccyUJxZn.s:1966   .debug_str:0000000000000031 .LASF43
     /tmp/ccyUJxZn.s:2146   .debug_str:0000000000000536 .LASF45
     /tmp/ccyUJxZn.s:2018   .debug_str:000000000000019e .LASF41
     /tmp/ccyUJxZn.s:2016   .debug_str:0000000000000189 .LASF42
     /tmp/ccyUJxZn.s:2088   .debug_str:000000000000039b .LASF44
     /tmp/ccyUJxZn.s:2126   .debug_str:00000000000004a9 .LASF46
     /tmp/ccyUJxZn.s:2156   .debug_str:000000000000058a .LASF47
     /tmp/ccyUJxZn.s:2164   .debug_str:0000000000000676 .LASF48
     /tmp/ccyUJxZn.s:2038   .debug_str:000000000000022e .LASF49
     /tmp/ccyUJxZn.s:2006   .debug_str:0000000000000140 .LASF50
     /tmp/ccyUJxZn.s:1960   .debug_str:0000000000000010 .LASF51
     /tmp/ccyUJxZn.s:2050   .debug_str:000000000000029e .LASF52
     /tmp/ccyUJxZn.s:2024   .debug_str:00000000000001ba .LASF53
     /tmp/ccyUJxZn.s:1988   .debug_str:00000000000000b4 .LASF54
     /tmp/ccyUJxZn.s:2052   .debug_str:00000000000002b2 .LASF55
     /tmp/ccyUJxZn.s:2026   .debug_str:00000000000001c2 .LASF56
     /tmp/ccyUJxZn.s:2098   .debug_str:00000000000003ef .LASF57
     /tmp/ccyUJxZn.s:2184   .debug_str:0000000000000735 .LASF58
     /tmp/ccyUJxZn.s:1978   .debug_str:0000000000000065 .LASF59
     /tmp/ccyUJxZn.s:2036   .debug_str:000000000000021b .LASF60
     /tmp/ccyUJxZn.s:2040   .debug_str:0000000000000236 .LASF61
     /tmp/ccyUJxZn.s:2154   .debug_str:0000000000000578 .LASF62
     /tmp/ccyUJxZn.s:1976   .debug_str:000000000000005f .LASF63
     /tmp/ccyUJxZn.s:2194   .debug_str:000000000000077c .LASF64
     /tmp/ccyUJxZn.s:2190   .debug_str:000000000000076c .LASF65
     /tmp/ccyUJxZn.s:2138   .debug_str:00000000000004f3 .LASF66
     /tmp/ccyUJxZn.s:2064   .debug_str:00000000000002ed .LASF67
     /tmp/ccyUJxZn.s:2078   .debug_str:0000000000000357 .LASF68
     /tmp/ccyUJxZn.s:1992   .debug_str:00000000000000eb .LASF69
     /tmp/ccyUJxZn.s:2054   .debug_str:00000000000002ba .LASF70
     /tmp/ccyUJxZn.s:2028   .debug_str:00000000000001d6 .LASF71
     /tmp/ccyUJxZn.s:2046   .debug_str:000000000000026b .LASF72
     /tmp/ccyUJxZn.s:2144   .debug_str:0000000000000527 .LASF73
     /tmp/ccyUJxZn.s:2176   .debug_str:0000000000000704 .LASF74
     /tmp/ccyUJxZn.s:2172   .debug_str:00000000000006e2 .LASF85
     /tmp/ccyUJxZn.s:2070   .debug_str:000000000000030d .LASF87
GAS LISTING /tmp/ccyUJxZn.s 			page 16


     /tmp/ccyUJxZn.s:2056   .debug_str:00000000000002d0 .LASF75
     /tmp/ccyUJxZn.s:1972   .debug_str:0000000000000052 .LASF76
     /tmp/ccyUJxZn.s:2062   .debug_str:00000000000002e8 .LASF77
     /tmp/ccyUJxZn.s:2060   .debug_str:00000000000002df .LASF78
     /tmp/ccyUJxZn.s:2102   .debug_str:0000000000000405 .LASF79
     /tmp/ccyUJxZn.s:2066   .debug_str:00000000000002f8 .LASF80
     /tmp/ccyUJxZn.s:2104   .debug_str:000000000000040b .LASF81
     /tmp/ccyUJxZn.s:2106   .debug_str:0000000000000415 .LASF82
     /tmp/ccyUJxZn.s:1970   .debug_str:0000000000000045 .LASF83
     /tmp/ccyUJxZn.s:2166   .debug_str:0000000000000689 .LASF84
     /tmp/ccyUJxZn.s:2076   .debug_str:0000000000000349 .LASF86
     /tmp/ccyUJxZn.s:2048   .debug_str:0000000000000281 .LASF88
     /tmp/ccyUJxZn.s:2116   .debug_str:0000000000000454 .LASF89
     /tmp/ccyUJxZn.s:2168   .debug_str:00000000000006b4 .LASF90
     /tmp/ccyUJxZn.s:1974   .debug_str:000000000000005a .LASF91
     /tmp/ccyUJxZn.s:1956   .debug_str:0000000000000000 .LASF92
     /tmp/ccyUJxZn.s:2120   .debug_str:000000000000048c .LASF93
     /tmp/ccyUJxZn.s:240    .text:0000000000000194 .LFB19
     /tmp/ccyUJxZn.s:316    .text:0000000000000200 .LFE19
     /tmp/ccyUJxZn.s:2150   .debug_str:000000000000056c .LASF94
     /tmp/ccyUJxZn.s:259    .text:00000000000001b4 .LBB6
     /tmp/ccyUJxZn.s:271    .text:00000000000001b8 .LBE6
     /tmp/ccyUJxZn.s:289    .text:00000000000001e0 .LBB8
     /tmp/ccyUJxZn.s:301    .text:00000000000001e8 .LBE8
     /tmp/ccyUJxZn.s:1921   .debug_loc:0000000000000000 .LLST1
     /tmp/ccyUJxZn.s:254    .text:00000000000001ac .LVL16
     /tmp/ccyUJxZn.s:281    .text:00000000000001d0 .LVL19
     /tmp/ccyUJxZn.s:305    .text:00000000000001f0 .LVL22
     /tmp/ccyUJxZn.s:2020   .debug_str:00000000000001a7 .LASF99
     /tmp/ccyUJxZn.s:2068   .debug_str:0000000000000300 .LASF101
     /tmp/ccyUJxZn.s:129    .text:00000000000000a0 .LFB18
     /tmp/ccyUJxZn.s:234    .text:0000000000000194 .LFE18
     /tmp/ccyUJxZn.s:2178   .debug_str:0000000000000720 .LASF95
     /tmp/ccyUJxZn.s:2000   .debug_str:0000000000000116 .LASF96
     /tmp/ccyUJxZn.s:2182   .debug_str:000000000000072d .LASF97
     /tmp/ccyUJxZn.s:2082   .debug_str:0000000000000375 .LASF98
     /tmp/ccyUJxZn.s:144    .text:00000000000000bc .LVL8
     /tmp/ccyUJxZn.s:149    .text:00000000000000c8 .LVL9
     /tmp/ccyUJxZn.s:168    .text:00000000000000f0 .LVL10
     /tmp/ccyUJxZn.s:175    .text:0000000000000108 .LVL11
     /tmp/ccyUJxZn.s:182    .text:0000000000000120 .LVL12
     /tmp/ccyUJxZn.s:189    .text:0000000000000138 .LVL13
     /tmp/ccyUJxZn.s:195    .text:0000000000000144 .LVL14
     /tmp/ccyUJxZn.s:223    .text:0000000000000184 .LVL15
     /tmp/ccyUJxZn.s:2080   .debug_str:000000000000036f .LASF100
     /tmp/ccyUJxZn.s:1968   .debug_str:000000000000003a .LASF102
     /tmp/ccyUJxZn.s:53     .text:0000000000000030 .LFB17
     /tmp/ccyUJxZn.s:118    .text:00000000000000a0 .LFE17
     /tmp/ccyUJxZn.s:1929   .debug_loc:0000000000000024 .LLST0
     /tmp/ccyUJxZn.s:76     .text:0000000000000054 .LVL3
     /tmp/ccyUJxZn.s:91     .text:000000000000006c .LVL5
     /tmp/ccyUJxZn.s:96     .text:000000000000007c .LVL6
     /tmp/ccyUJxZn.s:2130   .debug_str:00000000000004c6 .LASF103
     /tmp/ccyUJxZn.s:2128   .debug_str:00000000000004bc .LASF104
     /tmp/ccyUJxZn.s:15     .text:0000000000000000 .LFB16
     /tmp/ccyUJxZn.s:42     .text:0000000000000030 .LFE16
     /tmp/ccyUJxZn.s:31     .text:0000000000000020 .LVL0
GAS LISTING /tmp/ccyUJxZn.s 			page 17


     /tmp/ccyUJxZn.s:1996   .debug_str:0000000000000101 .LASF105
     /tmp/ccyUJxZn.s:2090   .debug_str:00000000000003a2 .LASF106
     /tmp/ccyUJxZn.s:1980   .debug_str:000000000000006c .LASF107
     /tmp/ccyUJxZn.s:2014   .debug_str:000000000000017b .LASF109
     /tmp/ccyUJxZn.s:2134   .debug_str:00000000000004d6 .LASF108
     /tmp/ccyUJxZn.s:2034   .debug_str:0000000000000206 .LASF110
     /tmp/ccyUJxZn.s:1998   .debug_str:0000000000000106 .LASF111
     /tmp/ccyUJxZn.s:2012   .debug_str:0000000000000168 .LASF112
     /tmp/ccyUJxZn.s:2188   .debug_str:0000000000000760 .LASF113
     /tmp/ccyUJxZn.s:2162   .debug_str:0000000000000664 .LASF114
     /tmp/ccyUJxZn.s:2174   .debug_str:00000000000006f7 .LASF115
     /tmp/ccyUJxZn.s:288    .text:00000000000001e0 .LVL20
     /tmp/ccyUJxZn.s:298    .text:00000000000001e8 .LVL21
     /tmp/ccyUJxZn.s:67     .text:0000000000000044 .LVL1
     /tmp/ccyUJxZn.s:71     .text:000000000000004c .LVL2
     /tmp/ccyUJxZn.s:113    .text:0000000000000098 .LVL7
     /tmp/ccyUJxZn.s:326    .debug_info:0000000000000000 .Ldebug_info0

UNDEFINED SYMBOLS
_Z11printStringPKc
_Z15thread_dispatchv
_Z12printIntegerm
__putc
_Z11workerBodyAPv
_Z13thread_createPP7_threadPFvPvES2_
_Z11workerBodyBPv
_Z11workerBodyCPv
_Z11workerBodyDPv
_ZN15MemoryAllocator10initialiseEv
_ZN5Riscv14supervisorTrapEv
_ZN7_thread7runningE
