GAS LISTING /tmp/ccCCjb08.s 			page 1


   1              		.file	"main.cpp"
   2              		.option pic
   3              		.option norelax
   4              		.text
   5              	.Ltext0:
   6              		.section	.rodata.str1.8,"aMS",@progbits,1
   7              		.align	3
   8              	.LC0:
   9 0000 0A746573 		.string	"\ntest - "
   9      74202D20 
   9      00
  10 0009 00000000 		.align	3
  10      000000
  11              	.LC1:
  12 0010 0A00     		.string	"\n"
  13              		.text
  14              		.align	2
  15              		.globl	_Z4testPv
  17              	_Z4testPv:
  18              	.LFB25:
  19              		.file 1 "src/main.cpp"
   1:src/main.cpp  **** #include "../h/MemoryAllocator.hpp"
   2:src/main.cpp  **** #include "../h/riscv.hpp"
   3:src/main.cpp  **** #include "../h/syscall_c.hpp"
   4:src/main.cpp  **** #include "../test/printing.hpp"
   5:src/main.cpp  **** #include "../h/scheduler.hpp"
   6:src/main.cpp  **** #include "../h/syscall_c.hpp"
   7:src/main.cpp  **** 
   8:src/main.cpp  **** #include "../h/resource.hpp"
   9:src/main.cpp  **** 
  10:src/main.cpp  **** void userMain();
  11:src/main.cpp  **** 
  12:src/main.cpp  **** void test(void*)
  13:src/main.cpp  **** {
  20              		.loc 1 13 1
  21              		.cfi_startproc
  22 0000 130101FE 		addi	sp,sp,-32
  23              		.cfi_def_cfa_offset 32
  24 0004 233C1100 		sd	ra,24(sp)
  25 0008 23388100 		sd	s0,16(sp)
  26 000c 23349100 		sd	s1,8(sp)
  27              		.cfi_offset 1, -8
  28              		.cfi_offset 8, -16
  29              		.cfi_offset 9, -24
  30 0010 13040102 		addi	s0,sp,32
  31              		.cfi_def_cfa 8, 0
  14:src/main.cpp  ****     int i = 0;
  32              		.loc 1 14 5
  33              	.LVL0:
  34              		.loc 1 14 9 is_stmt 0
  35 0014 93040000 		li	s1,0
  36 0018 6F000001 		j	.L3
  37              	.LVL1:
  38              	.L5:
  15:src/main.cpp  ****     while(true)
  16:src/main.cpp  ****     {
  17:src/main.cpp  ****         printString("\ntest - ");
GAS LISTING /tmp/ccCCjb08.s 			page 2


  18:src/main.cpp  ****         printInt(i);
  19:src/main.cpp  ****         printString("\n");
  20:src/main.cpp  ****         if (i % 10 == 0)
  21:src/main.cpp  ****             thread_dispatch();
  39              		.loc 1 21 13 is_stmt 1
  40              		.loc 1 21 28 is_stmt 0
  41 001c 97000000 		call	_Z15thread_dispatchv@plt
  41      E7800000 
  42              	.LVL2:
  43              	.L2:
  22:src/main.cpp  ****         i++;
  44              		.loc 1 22 9 is_stmt 1
  45              		.loc 1 22 10 is_stmt 0
  46 0024 9B841400 		addiw	s1,s1,1
  47              	.LVL3:
  15:src/main.cpp  ****     while(true)
  48              		.loc 1 15 5 is_stmt 1
  49              	.L3:
  15:src/main.cpp  ****     while(true)
  50              		.loc 1 15 5
  17:src/main.cpp  ****         printInt(i);
  51              		.loc 1 17 9
  17:src/main.cpp  ****         printInt(i);
  52              		.loc 1 17 20 is_stmt 0
  53 0028 17050000 		lla	a0,.LC0
  53      13050500 
  54 0030 97000000 		call	_Z11printStringPKc@plt
  54      E7800000 
  55              	.LVL4:
  18:src/main.cpp  ****         printString("\n");
  56              		.loc 1 18 9 is_stmt 1
  18:src/main.cpp  ****         printString("\n");
  57              		.loc 1 18 17 is_stmt 0
  58 0038 13060000 		li	a2,0
  59 003c 9305A000 		li	a1,10
  60 0040 13850400 		mv	a0,s1
  61 0044 97000000 		call	_Z8printIntiii@plt
  61      E7800000 
  62              	.LVL5:
  19:src/main.cpp  ****         if (i % 10 == 0)
  63              		.loc 1 19 9 is_stmt 1
  19:src/main.cpp  ****         if (i % 10 == 0)
  64              		.loc 1 19 20 is_stmt 0
  65 004c 17050000 		lla	a0,.LC1
  65      13050500 
  66 0054 97000000 		call	_Z11printStringPKc@plt
  66      E7800000 
  67              	.LVL6:
  20:src/main.cpp  ****             thread_dispatch();
  68              		.loc 1 20 9 is_stmt 1
  20:src/main.cpp  ****             thread_dispatch();
  69              		.loc 1 20 15 is_stmt 0
  70 005c 9307A000 		li	a5,10
  71 0060 BBE7F402 		remw	a5,s1,a5
  20:src/main.cpp  ****             thread_dispatch();
  72              		.loc 1 20 9
  73 0064 E39007FC 		bnez	a5,.L2
GAS LISTING /tmp/ccCCjb08.s 			page 3


  74 0068 6FF05FFB 		j	.L5
  75              		.cfi_endproc
  76              	.LFE25:
  78              		.section	.rodata.str1.8
  79 0012 00000000 		.align	3
  79      0000
  80              	.LC2:
  81 0018 0A746573 		.string	"\ntest2 - "
  81      7432202D 
  81      2000
  82              		.text
  83              		.align	2
  84              		.globl	_Z5test2Pv
  86              	_Z5test2Pv:
  87              	.LFB26:
  23:src/main.cpp  ****     }
  24:src/main.cpp  **** }
  25:src/main.cpp  **** 
  26:src/main.cpp  **** void test2(void*)
  27:src/main.cpp  **** {
  88              		.loc 1 27 1 is_stmt 1
  89              		.cfi_startproc
  90 006c 130101FE 		addi	sp,sp,-32
  91              		.cfi_def_cfa_offset 32
  92 0070 233C1100 		sd	ra,24(sp)
  93 0074 23388100 		sd	s0,16(sp)
  94 0078 23349100 		sd	s1,8(sp)
  95              		.cfi_offset 1, -8
  96              		.cfi_offset 8, -16
  97              		.cfi_offset 9, -24
  98 007c 13040102 		addi	s0,sp,32
  99              		.cfi_def_cfa 8, 0
  28:src/main.cpp  ****     int i = 0;
 100              		.loc 1 28 5
 101              	.LVL7:
 102              		.loc 1 28 9 is_stmt 0
 103 0080 93040000 		li	s1,0
 104 0084 6F000001 		j	.L9
 105              	.LVL8:
 106              	.L11:
  29:src/main.cpp  ****     while(i < 100)
  30:src/main.cpp  ****     {
  31:src/main.cpp  ****         printString("\ntest2 - ");
  32:src/main.cpp  ****         printInt(i);
  33:src/main.cpp  ****         printString("\n");
  34:src/main.cpp  ****         if (i % 10 == 0)
  35:src/main.cpp  ****             thread_dispatch();
 107              		.loc 1 35 13 is_stmt 1
 108              		.loc 1 35 28 is_stmt 0
 109 0088 97000000 		call	_Z15thread_dispatchv@plt
 109      E7800000 
 110              	.LVL9:
 111              	.L8:
  36:src/main.cpp  **** 
  37:src/main.cpp  ****         i++;
 112              		.loc 1 37 9 is_stmt 1
 113              		.loc 1 37 10 is_stmt 0
GAS LISTING /tmp/ccCCjb08.s 			page 4


 114 0090 9B841400 		addiw	s1,s1,1
 115              	.LVL10:
 116              	.L9:
  29:src/main.cpp  ****     while(i < 100)
 117              		.loc 1 29 5 is_stmt 1
  29:src/main.cpp  ****     while(i < 100)
 118              		.loc 1 29 13
 119 0094 93073006 		li	a5,99
 120 0098 63C49704 		bgt	s1,a5,.L6
  31:src/main.cpp  ****         printInt(i);
 121              		.loc 1 31 9
  31:src/main.cpp  ****         printInt(i);
 122              		.loc 1 31 20 is_stmt 0
 123 009c 17050000 		lla	a0,.LC2
 123      13050500 
 124 00a4 97000000 		call	_Z11printStringPKc@plt
 124      E7800000 
 125              	.LVL11:
  32:src/main.cpp  ****         printString("\n");
 126              		.loc 1 32 9 is_stmt 1
  32:src/main.cpp  ****         printString("\n");
 127              		.loc 1 32 17 is_stmt 0
 128 00ac 13060000 		li	a2,0
 129 00b0 9305A000 		li	a1,10
 130 00b4 13850400 		mv	a0,s1
 131 00b8 97000000 		call	_Z8printIntiii@plt
 131      E7800000 
 132              	.LVL12:
  33:src/main.cpp  ****         if (i % 10 == 0)
 133              		.loc 1 33 9 is_stmt 1
  33:src/main.cpp  ****         if (i % 10 == 0)
 134              		.loc 1 33 20 is_stmt 0
 135 00c0 17050000 		lla	a0,.LC1
 135      13050500 
 136 00c8 97000000 		call	_Z11printStringPKc@plt
 136      E7800000 
 137              	.LVL13:
  34:src/main.cpp  ****             thread_dispatch();
 138              		.loc 1 34 9 is_stmt 1
  34:src/main.cpp  ****             thread_dispatch();
 139              		.loc 1 34 15 is_stmt 0
 140 00d0 9307A000 		li	a5,10
 141 00d4 BBE7F402 		remw	a5,s1,a5
  34:src/main.cpp  ****             thread_dispatch();
 142              		.loc 1 34 9
 143 00d8 E39C07FA 		bnez	a5,.L8
 144 00dc 6FF0DFFA 		j	.L11
 145              	.L6:
  38:src/main.cpp  ****     }
  39:src/main.cpp  **** }
 146              		.loc 1 39 1
 147 00e0 83308101 		ld	ra,24(sp)
 148              		.cfi_restore 1
 149 00e4 03340101 		ld	s0,16(sp)
 150              		.cfi_restore 8
 151              		.cfi_def_cfa 2, 32
 152 00e8 83348100 		ld	s1,8(sp)
GAS LISTING /tmp/ccCCjb08.s 			page 5


 153              		.cfi_restore 9
 154              	.LVL14:
 155 00ec 13010102 		addi	sp,sp,32
 156              		.cfi_def_cfa_offset 0
 157 00f0 67800000 		jr	ra
 158              		.cfi_endproc
 159              	.LFE26:
 161              		.section	.rodata.str1.8
 162 0022 00000000 		.align	3
 162      0000
 163              	.LC3:
 164 0028 50696E67 		.string	"Ping: "
 164      3A2000
 165              		.text
 166              		.align	2
 167              		.globl	_Z4pingPv
 169              	_Z4pingPv:
 170              	.LFB27:
  40:src/main.cpp  **** 
  41:src/main.cpp  **** 
  42:src/main.cpp  **** 
  43:src/main.cpp  **** 
  44:src/main.cpp  **** _thread* globalThread1 = nullptr;
  45:src/main.cpp  **** _thread* globalThread2 = nullptr;
  46:src/main.cpp  **** //_thread* globalThread3 = nullptr;
  47:src/main.cpp  **** //_thread* globalThread4 = nullptr;
  48:src/main.cpp  **** //_thread* globalThread5 = nullptr;
  49:src/main.cpp  **** //_thread* globalThread6 = nullptr;
  50:src/main.cpp  **** _sem* empty;
  51:src/main.cpp  **** _sem* full;
  52:src/main.cpp  **** 
  53:src/main.cpp  **** int buffer = 0;
  54:src/main.cpp  **** 
  55:src/main.cpp  **** 
  56:src/main.cpp  **** void pong(void*);
  57:src/main.cpp  **** 
  58:src/main.cpp  **** void ping(void* arg)
  59:src/main.cpp  **** {
 171              		.loc 1 59 1 is_stmt 1
 172              		.cfi_startproc
 173              	.LVL15:
 174 00f4 130101FE 		addi	sp,sp,-32
 175              		.cfi_def_cfa_offset 32
 176 00f8 233C1100 		sd	ra,24(sp)
 177 00fc 23388100 		sd	s0,16(sp)
 178 0100 23349100 		sd	s1,8(sp)
 179              		.cfi_offset 1, -8
 180              		.cfi_offset 8, -16
 181              		.cfi_offset 9, -24
 182 0104 13040102 		addi	s0,sp,32
 183              		.cfi_def_cfa 8, 0
 184 0108 93040500 		mv	s1,a0
  60:src/main.cpp  ****     size_t num = (size_t)arg;
 185              		.loc 1 60 5
 186              	.LVL16:
  61:src/main.cpp  ****     printString("Ping: ");
 187              		.loc 1 61 5
GAS LISTING /tmp/ccCCjb08.s 			page 6


 188              		.loc 1 61 16 is_stmt 0
 189 010c 17050000 		lla	a0,.LC3
 189      13050500 
 190              	.LVL17:
 191 0114 97000000 		call	_Z11printStringPKc@plt
 191      E7800000 
 192              	.LVL18:
  62:src/main.cpp  ****     printInt(num);
 193              		.loc 1 62 5 is_stmt 1
 194              		.loc 1 62 13 is_stmt 0
 195 011c 13060000 		li	a2,0
 196 0120 9305A000 		li	a1,10
 197 0124 1B850400 		sext.w	a0,s1
 198 0128 97000000 		call	_Z8printIntiii@plt
 198      E7800000 
 199              	.LVL19:
  63:src/main.cpp  ****     printString("\n");
 200              		.loc 1 63 5 is_stmt 1
 201              		.loc 1 63 16 is_stmt 0
 202 0130 17050000 		lla	a0,.LC1
 202      13050500 
 203 0138 97000000 		call	_Z11printStringPKc@plt
 203      E7800000 
 204              	.LVL20:
  64:src/main.cpp  ****     if(num > 30)
 205              		.loc 1 64 5 is_stmt 1
 206 0140 9307E001 		li	a5,30
 207 0144 63FC9700 		bleu	s1,a5,.L15
 208              	.L12:
  65:src/main.cpp  ****         return;
  66:src/main.cpp  ****     exec(pong, reinterpret_cast<void *>((size_t) arg + 1));
  67:src/main.cpp  **** }
 209              		.loc 1 67 1 is_stmt 0
 210 0148 83308101 		ld	ra,24(sp)
 211              		.cfi_remember_state
 212              		.cfi_restore 1
 213 014c 03340101 		ld	s0,16(sp)
 214              		.cfi_restore 8
 215              		.cfi_def_cfa 2, 32
 216 0150 83348100 		ld	s1,8(sp)
 217              		.cfi_restore 9
 218              	.LVL21:
 219 0154 13010102 		addi	sp,sp,32
 220              		.cfi_def_cfa_offset 0
 221 0158 67800000 		jr	ra
 222              	.LVL22:
 223              	.L15:
 224              		.cfi_restore_state
  66:src/main.cpp  **** }
 225              		.loc 1 66 5 is_stmt 1
  66:src/main.cpp  **** }
 226              		.loc 1 66 9 is_stmt 0
 227 015c 93851400 		addi	a1,s1,1
 228 0160 17050000 		lla	a0,_Z4pongPv
 228      13050500 
 229 0168 97000000 		call	_Z4execPFvPvES_@plt
 229      E7800000 
GAS LISTING /tmp/ccCCjb08.s 			page 7


 230              	.LVL23:
 231 0170 6FF09FFD 		j	.L12
 232              		.cfi_endproc
 233              	.LFE27:
 235              		.section	.rodata.str1.8
 236 002f 00       		.align	3
 237              	.LC4:
 238 0030 506F6E67 		.string	"Pong: "
 238      3A2000
 239              		.text
 240              		.align	2
 241              		.globl	_Z4pongPv
 243              	_Z4pongPv:
 244              	.LFB28:
  68:src/main.cpp  **** 
  69:src/main.cpp  **** void pong(void* arg)
  70:src/main.cpp  **** {
 245              		.loc 1 70 1 is_stmt 1
 246              		.cfi_startproc
 247              	.LVL24:
 248 0174 130101FE 		addi	sp,sp,-32
 249              		.cfi_def_cfa_offset 32
 250 0178 233C1100 		sd	ra,24(sp)
 251 017c 23388100 		sd	s0,16(sp)
 252 0180 23349100 		sd	s1,8(sp)
 253              		.cfi_offset 1, -8
 254              		.cfi_offset 8, -16
 255              		.cfi_offset 9, -24
 256 0184 13040102 		addi	s0,sp,32
 257              		.cfi_def_cfa 8, 0
 258 0188 93040500 		mv	s1,a0
  71:src/main.cpp  ****     size_t num = (size_t)arg;
 259              		.loc 1 71 5
 260              	.LVL25:
  72:src/main.cpp  ****     printString("Pong: ");
 261              		.loc 1 72 5
 262              		.loc 1 72 16 is_stmt 0
 263 018c 17050000 		lla	a0,.LC4
 263      13050500 
 264              	.LVL26:
 265 0194 97000000 		call	_Z11printStringPKc@plt
 265      E7800000 
 266              	.LVL27:
  73:src/main.cpp  ****     printInt(num);
 267              		.loc 1 73 5 is_stmt 1
 268              		.loc 1 73 13 is_stmt 0
 269 019c 13060000 		li	a2,0
 270 01a0 9305A000 		li	a1,10
 271 01a4 1B850400 		sext.w	a0,s1
 272 01a8 97000000 		call	_Z8printIntiii@plt
 272      E7800000 
 273              	.LVL28:
  74:src/main.cpp  ****     printString("\n");
 274              		.loc 1 74 5 is_stmt 1
 275              		.loc 1 74 16 is_stmt 0
 276 01b0 17050000 		lla	a0,.LC1
 276      13050500 
GAS LISTING /tmp/ccCCjb08.s 			page 8


 277 01b8 97000000 		call	_Z11printStringPKc@plt
 277      E7800000 
 278              	.LVL29:
  75:src/main.cpp  ****     if(num > 30)
 279              		.loc 1 75 5 is_stmt 1
 280 01c0 9307E001 		li	a5,30
 281 01c4 63FC9700 		bleu	s1,a5,.L19
 282              	.L16:
  76:src/main.cpp  ****         return;
  77:src/main.cpp  ****     exec(ping, reinterpret_cast<void *>((size_t) arg + 1));
  78:src/main.cpp  **** }
 283              		.loc 1 78 1 is_stmt 0
 284 01c8 83308101 		ld	ra,24(sp)
 285              		.cfi_remember_state
 286              		.cfi_restore 1
 287 01cc 03340101 		ld	s0,16(sp)
 288              		.cfi_restore 8
 289              		.cfi_def_cfa 2, 32
 290 01d0 83348100 		ld	s1,8(sp)
 291              		.cfi_restore 9
 292              	.LVL30:
 293 01d4 13010102 		addi	sp,sp,32
 294              		.cfi_def_cfa_offset 0
 295 01d8 67800000 		jr	ra
 296              	.LVL31:
 297              	.L19:
 298              		.cfi_restore_state
  77:src/main.cpp  **** }
 299              		.loc 1 77 5 is_stmt 1
  77:src/main.cpp  **** }
 300              		.loc 1 77 9 is_stmt 0
 301 01dc 93851400 		addi	a1,s1,1
 302 01e0 17050000 		lla	a0,_Z4pingPv
 302      13050500 
 303 01e8 97000000 		call	_Z4execPFvPvES_@plt
 303      E7800000 
 304              	.LVL32:
 305 01f0 6FF09FFD 		j	.L16
 306              		.cfi_endproc
 307              	.LFE28:
 309              		.section	.rodata.str1.8
 310 0037 00       		.align	3
 311              	.LC5:
 312 0038 74687265 		.string	"threadKillFunction - Started waiting!\n"
 312      61644B69 
 312      6C6C4675 
 312      6E637469 
 312      6F6E202D 
 313 005f 00       		.align	3
 314              	.LC6:
 315 0060 74687265 		.string	"threadKillFunction - Finished waiting!\n"
 315      61644B69 
 315      6C6C4675 
 315      6E637469 
 315      6F6E202D 
 316              		.text
 317              		.align	2
GAS LISTING /tmp/ccCCjb08.s 			page 9


 318              		.globl	_Z21threadKillSemFunctionPv
 320              	_Z21threadKillSemFunctionPv:
 321              	.LFB34:
  79:src/main.cpp  **** 
  80:src/main.cpp  **** size_t id = 1;
  81:src/main.cpp  **** void consumer(void* n)
  82:src/main.cpp  **** {
  83:src/main.cpp  ****     size_t num = (size_t)n;
  84:src/main.cpp  **** 
  85:src/main.cpp  ****     printString("\n\nPre fork-a\n");
  86:src/main.cpp  ****     int forkRetVal = fork();
  87:src/main.cpp  ****     printString("forkRetVal: ");
  88:src/main.cpp  ****     printInt(forkRetVal);
  89:src/main.cpp  ****     printString("\n");
  90:src/main.cpp  **** 
  91:src/main.cpp  ****     num = id;
  92:src/main.cpp  ****     id++;
  93:src/main.cpp  **** 
  94:src/main.cpp  ****     while(true)
  95:src/main.cpp  ****     {
  96:src/main.cpp  ****         if (sem_wait(full) < 0)
  97:src/main.cpp  ****             return;
  98:src/main.cpp  **** 
  99:src/main.cpp  ****         int val = buffer;
 100:src/main.cpp  ****         printString("Consumer ID: ");
 101:src/main.cpp  ****         printInt(num);
 102:src/main.cpp  ****         printString(" Value: ");
 103:src/main.cpp  ****         printInt(val);
 104:src/main.cpp  ****         printString("\n");
 105:src/main.cpp  ****         sem_signal(empty);
 106:src/main.cpp  ****     }
 107:src/main.cpp  **** }
 108:src/main.cpp  **** 
 109:src/main.cpp  **** 
 110:src/main.cpp  **** void producer(void* n)
 111:src/main.cpp  **** {
 112:src/main.cpp  ****     size_t num = (size_t)n;
 113:src/main.cpp  **** 
 114:src/main.cpp  ****     num = id;
 115:src/main.cpp  ****     id++;
 116:src/main.cpp  **** 
 117:src/main.cpp  ****     int i = 1;
 118:src/main.cpp  ****     while(true)
 119:src/main.cpp  ****     {
 120:src/main.cpp  ****         if (sem_wait(empty) < 0)
 121:src/main.cpp  ****             return;
 122:src/main.cpp  **** 
 123:src/main.cpp  ****         buffer = i;
 124:src/main.cpp  ****         i += 1 * 2 - 1;
 125:src/main.cpp  ****         printString("Producer ID: ");
 126:src/main.cpp  ****         printInt(num);
 127:src/main.cpp  ****         printString(" Value: ");
 128:src/main.cpp  ****         printInt(buffer);
 129:src/main.cpp  ****         printString("\n");
 130:src/main.cpp  **** 
 131:src/main.cpp  ****         if (i > 20)
 132:src/main.cpp  ****         {
GAS LISTING /tmp/ccCCjb08.s 			page 10


 133:src/main.cpp  ****             printString("CLOSING SEMAPHORE FULL!!! ");
 134:src/main.cpp  ****             sem_close(full);
 135:src/main.cpp  ****             break;
 136:src/main.cpp  ****         }
 137:src/main.cpp  **** 
 138:src/main.cpp  ****         sem_signal(full);
 139:src/main.cpp  ****     }
 140:src/main.cpp  **** }
 141:src/main.cpp  **** 
 142:src/main.cpp  **** void prosliMain()
 143:src/main.cpp  **** {
 144:src/main.cpp  ****     // __putc('1');
 145:src/main.cpp  ****     // __putc('\n');
 146:src/main.cpp  **** 
 147:src/main.cpp  **** 
 148:src/main.cpp  ****     sem_open(&empty, 1);
 149:src/main.cpp  ****     sem_open(&full, 0);
 150:src/main.cpp  ****     thread_create(&globalThread1, producer, nullptr);
 151:src/main.cpp  ****     thread_create(&globalThread2, consumer, (void*)1);
 152:src/main.cpp  **** //    thread_create(&globalThread3, consumer, (void*)2);
 153:src/main.cpp  **** //    thread_create(&globalThread3, consumer, (void*)3);
 154:src/main.cpp  **** //    thread_create(&globalThread3, consumer, (void*)4);
 155:src/main.cpp  **** //    thread_create(&globalThread3, producer, (void*)5);
 156:src/main.cpp  **** 
 157:src/main.cpp  ****     thread_join(globalThread1);
 158:src/main.cpp  ****     thread_join(globalThread2);
 159:src/main.cpp  **** 
 160:src/main.cpp  **** //    thread_t handle2 = nullptr;
 161:src/main.cpp  **** //    thread_t handle3 = nullptr;
 162:src/main.cpp  **** //    thread_t handle4 = nullptr;
 163:src/main.cpp  **** //    thread_t handle5 = nullptr;
 164:src/main.cpp  **** //
 165:src/main.cpp  **** //    thread_create(&handle2, workerBodyD, nullptr);
 166:src/main.cpp  **** //    thread_create(&handle3, workerBodyB, nullptr);
 167:src/main.cpp  **** //    thread_create(&handle4, workerBodyA, nullptr);
 168:src/main.cpp  **** //    thread_create(&handle5, workerBodyC, nullptr);
 169:src/main.cpp  **** //
 170:src/main.cpp  **** //    thread_join(handle4);
 171:src/main.cpp  **** //    printString("Prosao 1. join!\n");
 172:src/main.cpp  **** //    thread_join(handle5);
 173:src/main.cpp  **** //    printString("Prosao 2. join!\n");
 174:src/main.cpp  **** //    thread_join(handle2);
 175:src/main.cpp  **** //    printString("Prosao 3. join!\n");
 176:src/main.cpp  **** //    thread_join(handle3);
 177:src/main.cpp  **** //    printString("Prosao 4. join!\n");
 178:src/main.cpp  **** //
 179:src/main.cpp  **** //    printString("Finished!\n");
 180:src/main.cpp  **** }
 181:src/main.cpp  **** 
 182:src/main.cpp  **** 
 183:src/main.cpp  **** struct matStruct{
 184:src/main.cpp  ****     int** mat;
 185:src/main.cpp  ****     int m;
 186:src/main.cpp  ****     int n;
 187:src/main.cpp  ****     int targetN;
 188:src/main.cpp  ****     int* retLocation;
 189:src/main.cpp  **** };
GAS LISTING /tmp/ccCCjb08.s 			page 11


 190:src/main.cpp  **** 
 191:src/main.cpp  **** void collumnSum(void* arg)
 192:src/main.cpp  **** {
 193:src/main.cpp  ****     matStruct* data = (matStruct*)arg;
 194:src/main.cpp  ****     int s = 0;
 195:src/main.cpp  **** 
 196:src/main.cpp  ****     for(int i = 0; i < data->m; i++)
 197:src/main.cpp  ****     {
 198:src/main.cpp  ****         s += data->mat[i][data->targetN];
 199:src/main.cpp  ****     }
 200:src/main.cpp  **** 
 201:src/main.cpp  ****     *data->retLocation = s;
 202:src/main.cpp  ****     delete data;
 203:src/main.cpp  **** }
 204:src/main.cpp  **** 
 205:src/main.cpp  **** 
 206:src/main.cpp  **** void modifMatrica()
 207:src/main.cpp  **** {
 208:src/main.cpp  ****     printString("\nm = ");
 209:src/main.cpp  ****     int m = (int)getc() - 48;
 210:src/main.cpp  ****     printString("\nn = ");
 211:src/main.cpp  ****     int n = (int)getc() - 48;
 212:src/main.cpp  ****     printString("\n");
 213:src/main.cpp  **** 
 214:src/main.cpp  ****     int** mat = (int**)mem_alloc(sizeof(int*) * (m + 1));
 215:src/main.cpp  **** 
 216:src/main.cpp  ****     for(int i = 0; i < m + 1; i++)
 217:src/main.cpp  ****         mat[i] = (int*)mem_alloc(sizeof(int) * (n));
 218:src/main.cpp  **** 
 219:src/main.cpp  ****     for(int i = 0; i < m; i++)
 220:src/main.cpp  ****         for(int j = 0; j < n; j++)
 221:src/main.cpp  ****             mat[i][j] = (int)getc() - 48;
 222:src/main.cpp  **** 
 223:src/main.cpp  ****     printString("\nMatrica: \n");
 224:src/main.cpp  ****     for(int i = 0; i < m; i++)
 225:src/main.cpp  ****     {
 226:src/main.cpp  ****         for (int j = 0; j < n; j++)
 227:src/main.cpp  ****         {
 228:src/main.cpp  ****             printInt(mat[i][j]);
 229:src/main.cpp  ****             printString(" ");
 230:src/main.cpp  ****         }
 231:src/main.cpp  ****         printString("\n");
 232:src/main.cpp  ****     }
 233:src/main.cpp  **** 
 234:src/main.cpp  ****     _thread** handles = (_thread**)mem_alloc(sizeof(_thread*) * n);
 235:src/main.cpp  **** 
 236:src/main.cpp  ****     for (int i = 0; i < n; i++)
 237:src/main.cpp  ****     {
 238:src/main.cpp  ****         matStruct* arg = (matStruct*) mem_alloc(sizeof(matStruct));
 239:src/main.cpp  ****         arg->mat = mat;
 240:src/main.cpp  ****         arg->m = m;
 241:src/main.cpp  ****         arg->n = n;
 242:src/main.cpp  ****         arg->targetN = i;
 243:src/main.cpp  ****         arg->retLocation = &mat[m][i];
 244:src/main.cpp  ****         handles[i] = (_thread*) mem_alloc(sizeof(_thread));
 245:src/main.cpp  ****         thread_create(&handles[i], collumnSum, arg);
 246:src/main.cpp  ****     }
GAS LISTING /tmp/ccCCjb08.s 			page 12


 247:src/main.cpp  **** 
 248:src/main.cpp  ****     int sum = 0;
 249:src/main.cpp  ****     for (int i = 0; i < n; i++)
 250:src/main.cpp  ****     {
 251:src/main.cpp  ****         thread_join(handles[i]);
 252:src/main.cpp  ****         delete handles[i];
 253:src/main.cpp  ****         sum += mat[m][i];
 254:src/main.cpp  ****     }
 255:src/main.cpp  **** 
 256:src/main.cpp  ****     printString("sum = ");
 257:src/main.cpp  ****     printInt(sum);
 258:src/main.cpp  ****     printString("\n");
 259:src/main.cpp  **** }
 260:src/main.cpp  **** 
 261:src/main.cpp  **** 
 262:src/main.cpp  **** 
 263:src/main.cpp  **** _thread* threadKillSem;
 264:src/main.cpp  **** _sem* killSem;
 265:src/main.cpp  **** 
 266:src/main.cpp  **** void threadKillSemFunction(void*)
 267:src/main.cpp  **** {
 322              		.loc 1 267 1 is_stmt 1
 323              		.cfi_startproc
 324 01f4 130101FF 		addi	sp,sp,-16
 325              		.cfi_def_cfa_offset 16
 326 01f8 23341100 		sd	ra,8(sp)
 327 01fc 23308100 		sd	s0,0(sp)
 328              		.cfi_offset 1, -8
 329              		.cfi_offset 8, -16
 330 0200 13040101 		addi	s0,sp,16
 331              		.cfi_def_cfa 8, 0
 268:src/main.cpp  ****     printString("threadKillFunction - Started waiting!\n");
 332              		.loc 1 268 5
 333              		.loc 1 268 16 is_stmt 0
 334 0204 17050000 		lla	a0,.LC5
 334      13050500 
 335 020c 97000000 		call	_Z11printStringPKc@plt
 335      E7800000 
 336              	.LVL33:
 269:src/main.cpp  ****     sem_wait(killSem);
 337              		.loc 1 269 5 is_stmt 1
 338              		.loc 1 269 13 is_stmt 0
 339 0214 17050000 		ld	a0,.LANCHOR0
 339      03350500 
 340 021c 97000000 		call	_Z8sem_waitP4_sem@plt
 340      E7800000 
 341              	.LVL34:
 270:src/main.cpp  ****     printString("threadKillFunction - Finished waiting!\n");
 342              		.loc 1 270 5 is_stmt 1
 343              		.loc 1 270 16 is_stmt 0
 344 0224 17050000 		lla	a0,.LC6
 344      13050500 
 345 022c 97000000 		call	_Z11printStringPKc@plt
 345      E7800000 
 346              	.LVL35:
 271:src/main.cpp  **** }
 347              		.loc 1 271 1
GAS LISTING /tmp/ccCCjb08.s 			page 13


 348 0234 83308100 		ld	ra,8(sp)
 349              		.cfi_restore 1
 350 0238 03340100 		ld	s0,0(sp)
 351              		.cfi_restore 8
 352              		.cfi_def_cfa 2, 16
 353 023c 13010101 		addi	sp,sp,16
 354              		.cfi_def_cfa_offset 0
 355 0240 67800000 		jr	ra
 356              		.cfi_endproc
 357              	.LFE34:
 359              		.section	.rodata.str1.8
 360              		.align	3
 361              	.LC7:
 362 0088 0A0A5072 		.string	"\n\nPre fork-a\n"
 362      6520666F 
 362      726B2D61 
 362      0A00
 363 0096 0000     		.align	3
 364              	.LC8:
 365 0098 666F726B 		.string	"forkRetVal: "
 365      52657456 
 365      616C3A20 
 365      00
 366 00a5 000000   		.align	3
 367              	.LC9:
 368 00a8 436F6E73 		.string	"Consumer ID: "
 368      756D6572 
 368      2049443A 
 368      2000
 369 00b6 0000     		.align	3
 370              	.LC10:
 371 00b8 2056616C 		.string	" Value: "
 371      75653A20 
 371      00
 372              		.text
 373              		.align	2
 374              		.globl	_Z8consumerPv
 376              	_Z8consumerPv:
 377              	.LFB29:
  82:src/main.cpp  ****     size_t num = (size_t)n;
 378              		.loc 1 82 1 is_stmt 1
 379              		.cfi_startproc
 380              	.LVL36:
 381 0244 130101FD 		addi	sp,sp,-48
 382              		.cfi_def_cfa_offset 48
 383 0248 23341102 		sd	ra,40(sp)
 384 024c 23308102 		sd	s0,32(sp)
 385 0250 233C9100 		sd	s1,24(sp)
 386 0254 23382101 		sd	s2,16(sp)
 387 0258 23343101 		sd	s3,8(sp)
 388              		.cfi_offset 1, -8
 389              		.cfi_offset 8, -16
 390              		.cfi_offset 9, -24
 391              		.cfi_offset 18, -32
 392              		.cfi_offset 19, -40
 393 025c 13040103 		addi	s0,sp,48
 394              		.cfi_def_cfa 8, 0
GAS LISTING /tmp/ccCCjb08.s 			page 14


  83:src/main.cpp  **** 
 395              		.loc 1 83 5
 396              	.LVL37:
  85:src/main.cpp  ****     int forkRetVal = fork();
 397              		.loc 1 85 5
  85:src/main.cpp  ****     int forkRetVal = fork();
 398              		.loc 1 85 16 is_stmt 0
 399 0260 17050000 		lla	a0,.LC7
 399      13050500 
 400              	.LVL38:
 401 0268 97000000 		call	_Z11printStringPKc@plt
 401      E7800000 
 402              	.LVL39:
  86:src/main.cpp  ****     printString("forkRetVal: ");
 403              		.loc 1 86 5 is_stmt 1
  86:src/main.cpp  ****     printString("forkRetVal: ");
 404              		.loc 1 86 26 is_stmt 0
 405 0270 97000000 		call	_Z4forkv@plt
 405      E7800000 
 406              	.LVL40:
 407 0278 93040500 		mv	s1,a0
 408              	.LVL41:
  87:src/main.cpp  ****     printInt(forkRetVal);
 409              		.loc 1 87 5 is_stmt 1
  87:src/main.cpp  ****     printInt(forkRetVal);
 410              		.loc 1 87 16 is_stmt 0
 411 027c 17050000 		lla	a0,.LC8
 411      13050500 
 412 0284 97000000 		call	_Z11printStringPKc@plt
 412      E7800000 
 413              	.LVL42:
  88:src/main.cpp  ****     printString("\n");
 414              		.loc 1 88 5 is_stmt 1
  88:src/main.cpp  ****     printString("\n");
 415              		.loc 1 88 13 is_stmt 0
 416 028c 13060000 		li	a2,0
 417 0290 9305A000 		li	a1,10
 418 0294 13850400 		mv	a0,s1
 419 0298 97000000 		call	_Z8printIntiii@plt
 419      E7800000 
 420              	.LVL43:
  89:src/main.cpp  **** 
 421              		.loc 1 89 5 is_stmt 1
  89:src/main.cpp  **** 
 422              		.loc 1 89 16 is_stmt 0
 423 02a0 17050000 		lla	a0,.LC1
 423      13050500 
 424 02a8 97000000 		call	_Z11printStringPKc@plt
 424      E7800000 
 425              	.LVL44:
  91:src/main.cpp  ****     id++;
 426              		.loc 1 91 5 is_stmt 1
  91:src/main.cpp  ****     id++;
 427              		.loc 1 91 9 is_stmt 0
 428 02b0 97070000 		lla	a5,.LANCHOR1
 428      93870700 
 429 02b8 83B90700 		ld	s3,0(a5)
GAS LISTING /tmp/ccCCjb08.s 			page 15


 430              	.LVL45:
  92:src/main.cpp  **** 
 431              		.loc 1 92 5 is_stmt 1
  92:src/main.cpp  **** 
 432              		.loc 1 92 7 is_stmt 0
 433 02bc 13871900 		addi	a4,s3,1
 434 02c0 23B0E700 		sd	a4,0(a5)
 435              	.LVL46:
 436              	.L24:
  94:src/main.cpp  ****     {
 437              		.loc 1 94 5 is_stmt 1
 438              	.LBB8:
  96:src/main.cpp  ****             return;
 439              		.loc 1 96 9
  96:src/main.cpp  ****             return;
 440              		.loc 1 96 21 is_stmt 0
 441 02c4 17050000 		ld	a0,.LANCHOR0+8
 441      03350500 
 442 02cc 97000000 		call	_Z8sem_waitP4_sem@plt
 442      E7800000 
 443              	.LVL47:
  96:src/main.cpp  ****             return;
 444              		.loc 1 96 9
 445 02d4 634C0506 		bltz	a0,.L25
  99:src/main.cpp  ****         printString("Consumer ID: ");
 446              		.loc 1 99 9 is_stmt 1
  99:src/main.cpp  ****         printString("Consumer ID: ");
 447              		.loc 1 99 13 is_stmt 0
 448 02d8 97040000 		lla	s1,.LANCHOR0
 448      93840400 
 449 02e0 03A90401 		lw	s2,16(s1)
 450              	.LVL48:
 100:src/main.cpp  ****         printInt(num);
 451              		.loc 1 100 9 is_stmt 1
 100:src/main.cpp  ****         printInt(num);
 452              		.loc 1 100 20 is_stmt 0
 453 02e4 17050000 		lla	a0,.LC9
 453      13050500 
 454 02ec 97000000 		call	_Z11printStringPKc@plt
 454      E7800000 
 455              	.LVL49:
 101:src/main.cpp  ****         printString(" Value: ");
 456              		.loc 1 101 9 is_stmt 1
 101:src/main.cpp  ****         printString(" Value: ");
 457              		.loc 1 101 17 is_stmt 0
 458 02f4 13060000 		li	a2,0
 459 02f8 9305A000 		li	a1,10
 460 02fc 1B850900 		sext.w	a0,s3
 461 0300 97000000 		call	_Z8printIntiii@plt
 461      E7800000 
 462              	.LVL50:
 102:src/main.cpp  ****         printInt(val);
 463              		.loc 1 102 9 is_stmt 1
 102:src/main.cpp  ****         printInt(val);
 464              		.loc 1 102 20 is_stmt 0
 465 0308 17050000 		lla	a0,.LC10
 465      13050500 
GAS LISTING /tmp/ccCCjb08.s 			page 16


 466 0310 97000000 		call	_Z11printStringPKc@plt
 466      E7800000 
 467              	.LVL51:
 103:src/main.cpp  ****         printString("\n");
 468              		.loc 1 103 9 is_stmt 1
 103:src/main.cpp  ****         printString("\n");
 469              		.loc 1 103 17 is_stmt 0
 470 0318 13060000 		li	a2,0
 471 031c 9305A000 		li	a1,10
 472 0320 13050900 		mv	a0,s2
 473 0324 97000000 		call	_Z8printIntiii@plt
 473      E7800000 
 474              	.LVL52:
 104:src/main.cpp  ****         sem_signal(empty);
 475              		.loc 1 104 9 is_stmt 1
 104:src/main.cpp  ****         sem_signal(empty);
 476              		.loc 1 104 20 is_stmt 0
 477 032c 17050000 		lla	a0,.LC1
 477      13050500 
 478 0334 97000000 		call	_Z11printStringPKc@plt
 478      E7800000 
 479              	.LVL53:
 105:src/main.cpp  ****     }
 480              		.loc 1 105 9 is_stmt 1
 105:src/main.cpp  ****     }
 481              		.loc 1 105 19 is_stmt 0
 482 033c 03B58401 		ld	a0,24(s1)
 483 0340 97000000 		call	_Z10sem_signalP4_sem@plt
 483      E7800000 
 484              	.LVL54:
 485              	.LBE8:
  94:src/main.cpp  ****     {
 486              		.loc 1 94 5 is_stmt 1
 106:src/main.cpp  **** }
 487              		.loc 1 106 5 is_stmt 0
 488 0348 6FF0DFF7 		j	.L24
 489              	.LVL55:
 490              	.L25:
 107:src/main.cpp  **** 
 491              		.loc 1 107 1
 492 034c 83308102 		ld	ra,40(sp)
 493              		.cfi_restore 1
 494 0350 03340102 		ld	s0,32(sp)
 495              		.cfi_restore 8
 496              		.cfi_def_cfa 2, 48
 497 0354 83348101 		ld	s1,24(sp)
 498              		.cfi_restore 9
 499 0358 03390101 		ld	s2,16(sp)
 500              		.cfi_restore 18
 501 035c 83398100 		ld	s3,8(sp)
 502              		.cfi_restore 19
 503              	.LVL56:
 504 0360 13010103 		addi	sp,sp,48
 505              		.cfi_def_cfa_offset 0
 506 0364 67800000 		jr	ra
 507              		.cfi_endproc
 508              	.LFE29:
GAS LISTING /tmp/ccCCjb08.s 			page 17


 510              		.section	.rodata.str1.8
 511 00c1 00000000 		.align	3
 511      000000
 512              	.LC11:
 513 00c8 50726F64 		.string	"Producer ID: "
 513      75636572 
 513      2049443A 
 513      2000
 514 00d6 0000     		.align	3
 515              	.LC12:
 516 00d8 434C4F53 		.string	"CLOSING SEMAPHORE FULL!!! "
 516      494E4720 
 516      53454D41 
 516      50484F52 
 516      45204655 
 517              		.text
 518              		.align	2
 519              		.globl	_Z8producerPv
 521              	_Z8producerPv:
 522              	.LFB30:
 111:src/main.cpp  ****     size_t num = (size_t)n;
 523              		.loc 1 111 1 is_stmt 1
 524              		.cfi_startproc
 525              	.LVL57:
 526 0368 130101FD 		addi	sp,sp,-48
 527              		.cfi_def_cfa_offset 48
 528 036c 23341102 		sd	ra,40(sp)
 529 0370 23308102 		sd	s0,32(sp)
 530 0374 233C9100 		sd	s1,24(sp)
 531 0378 23382101 		sd	s2,16(sp)
 532 037c 23343101 		sd	s3,8(sp)
 533              		.cfi_offset 1, -8
 534              		.cfi_offset 8, -16
 535              		.cfi_offset 9, -24
 536              		.cfi_offset 18, -32
 537              		.cfi_offset 19, -40
 538 0380 13040103 		addi	s0,sp,48
 539              		.cfi_def_cfa 8, 0
 112:src/main.cpp  **** 
 540              		.loc 1 112 5
 541              	.LVL58:
 114:src/main.cpp  ****     id++;
 542              		.loc 1 114 5
 114:src/main.cpp  ****     id++;
 543              		.loc 1 114 9 is_stmt 0
 544 0384 97070000 		lla	a5,.LANCHOR1
 544      93870700 
 545 038c 83B90700 		ld	s3,0(a5)
 546              	.LVL59:
 115:src/main.cpp  **** 
 547              		.loc 1 115 5 is_stmt 1
 115:src/main.cpp  **** 
 548              		.loc 1 115 7 is_stmt 0
 549 0390 13871900 		addi	a4,s3,1
 550 0394 23B0E700 		sd	a4,0(a5)
 117:src/main.cpp  ****     while(true)
 551              		.loc 1 117 5 is_stmt 1
GAS LISTING /tmp/ccCCjb08.s 			page 18


 552              	.LVL60:
 117:src/main.cpp  ****     while(true)
 553              		.loc 1 117 9 is_stmt 0
 554 0398 93041000 		li	s1,1
 555              	.LVL61:
 556              	.L30:
 118:src/main.cpp  ****     {
 557              		.loc 1 118 5 is_stmt 1
 120:src/main.cpp  ****             return;
 558              		.loc 1 120 9
 120:src/main.cpp  ****             return;
 559              		.loc 1 120 21 is_stmt 0
 560 039c 17050000 		ld	a0,.LANCHOR0+24
 560      03350500 
 561 03a4 97000000 		call	_Z8sem_waitP4_sem@plt
 561      E7800000 
 562              	.LVL62:
 120:src/main.cpp  ****             return;
 563              		.loc 1 120 9
 564 03ac 6344050A 		bltz	a0,.L27
 123:src/main.cpp  ****         i += 1 * 2 - 1;
 565              		.loc 1 123 9 is_stmt 1
 123:src/main.cpp  ****         i += 1 * 2 - 1;
 566              		.loc 1 123 16 is_stmt 0
 567 03b0 17090000 		lla	s2,.LANCHOR0
 567      13090900 
 568 03b8 23289900 		sw	s1,16(s2)
 124:src/main.cpp  ****         printString("Producer ID: ");
 569              		.loc 1 124 9 is_stmt 1
 124:src/main.cpp  ****         printString("Producer ID: ");
 570              		.loc 1 124 11 is_stmt 0
 571 03bc 9B841400 		addiw	s1,s1,1
 572              	.LVL63:
 125:src/main.cpp  ****         printInt(num);
 573              		.loc 1 125 9 is_stmt 1
 125:src/main.cpp  ****         printInt(num);
 574              		.loc 1 125 20 is_stmt 0
 575 03c0 17050000 		lla	a0,.LC11
 575      13050500 
 576 03c8 97000000 		call	_Z11printStringPKc@plt
 576      E7800000 
 577              	.LVL64:
 126:src/main.cpp  ****         printString(" Value: ");
 578              		.loc 1 126 9 is_stmt 1
 126:src/main.cpp  ****         printString(" Value: ");
 579              		.loc 1 126 17 is_stmt 0
 580 03d0 13060000 		li	a2,0
 581 03d4 9305A000 		li	a1,10
 582 03d8 1B850900 		sext.w	a0,s3
 583 03dc 97000000 		call	_Z8printIntiii@plt
 583      E7800000 
 584              	.LVL65:
 127:src/main.cpp  ****         printInt(buffer);
 585              		.loc 1 127 9 is_stmt 1
 127:src/main.cpp  ****         printInt(buffer);
 586              		.loc 1 127 20 is_stmt 0
 587 03e4 17050000 		lla	a0,.LC10
GAS LISTING /tmp/ccCCjb08.s 			page 19


 587      13050500 
 588 03ec 97000000 		call	_Z11printStringPKc@plt
 588      E7800000 
 589              	.LVL66:
 128:src/main.cpp  ****         printString("\n");
 590              		.loc 1 128 9 is_stmt 1
 128:src/main.cpp  ****         printString("\n");
 591              		.loc 1 128 17 is_stmt 0
 592 03f4 13060000 		li	a2,0
 593 03f8 9305A000 		li	a1,10
 594 03fc 03250901 		lw	a0,16(s2)
 595 0400 97000000 		call	_Z8printIntiii@plt
 595      E7800000 
 596              	.LVL67:
 129:src/main.cpp  **** 
 597              		.loc 1 129 9 is_stmt 1
 129:src/main.cpp  **** 
 598              		.loc 1 129 20 is_stmt 0
 599 0408 17050000 		lla	a0,.LC1
 599      13050500 
 600 0410 97000000 		call	_Z11printStringPKc@plt
 600      E7800000 
 601              	.LVL68:
 131:src/main.cpp  ****         {
 602              		.loc 1 131 9 is_stmt 1
 603 0418 93074001 		li	a5,20
 604 041c 63CC9700 		bgt	s1,a5,.L32
 138:src/main.cpp  ****     }
 605              		.loc 1 138 9
 138:src/main.cpp  ****     }
 606              		.loc 1 138 19 is_stmt 0
 607 0420 17050000 		ld	a0,.LANCHOR0+8
 607      03350500 
 608 0428 97000000 		call	_Z10sem_signalP4_sem@plt
 608      E7800000 
 609              	.LVL69:
 118:src/main.cpp  ****     {
 610              		.loc 1 118 5 is_stmt 1
 120:src/main.cpp  ****             return;
 611              		.loc 1 120 9 is_stmt 0
 612 0430 6FF0DFF6 		j	.L30
 613              	.L32:
 133:src/main.cpp  ****             sem_close(full);
 614              		.loc 1 133 13 is_stmt 1
 133:src/main.cpp  ****             sem_close(full);
 615              		.loc 1 133 24 is_stmt 0
 616 0434 17050000 		lla	a0,.LC12
 616      13050500 
 617 043c 97000000 		call	_Z11printStringPKc@plt
 617      E7800000 
 618              	.LVL70:
 134:src/main.cpp  ****             break;
 619              		.loc 1 134 13 is_stmt 1
 134:src/main.cpp  ****             break;
 620              		.loc 1 134 22 is_stmt 0
 621 0444 17050000 		ld	a0,.LANCHOR0+8
 621      03350500 
GAS LISTING /tmp/ccCCjb08.s 			page 20


 622 044c 97000000 		call	_Z9sem_closeP4_sem@plt
 622      E7800000 
 623              	.LVL71:
 135:src/main.cpp  ****         }
 624              		.loc 1 135 13 is_stmt 1
 625              	.L27:
 140:src/main.cpp  **** 
 626              		.loc 1 140 1 is_stmt 0
 627 0454 83308102 		ld	ra,40(sp)
 628              		.cfi_restore 1
 629 0458 03340102 		ld	s0,32(sp)
 630              		.cfi_restore 8
 631              		.cfi_def_cfa 2, 48
 632 045c 83348101 		ld	s1,24(sp)
 633              		.cfi_restore 9
 634 0460 03390101 		ld	s2,16(sp)
 635              		.cfi_restore 18
 636 0464 83398100 		ld	s3,8(sp)
 637              		.cfi_restore 19
 638              	.LVL72:
 639 0468 13010103 		addi	sp,sp,48
 640              		.cfi_def_cfa_offset 0
 641 046c 67800000 		jr	ra
 642              		.cfi_endproc
 643              	.LFE30:
 645              		.align	2
 646              		.globl	_Z10collumnSumPv
 648              	_Z10collumnSumPv:
 649              	.LFB32:
 192:src/main.cpp  ****     matStruct* data = (matStruct*)arg;
 650              		.loc 1 192 1 is_stmt 1
 651              		.cfi_startproc
 652              	.LVL73:
 193:src/main.cpp  ****     int s = 0;
 653              		.loc 1 193 5
 194:src/main.cpp  **** 
 654              		.loc 1 194 5
 196:src/main.cpp  ****     {
 655              		.loc 1 196 5
 656              	.LBB9:
 196:src/main.cpp  ****     {
 657              		.loc 1 196 13 is_stmt 0
 658 0470 93070000 		li	a5,0
 659              	.LBE9:
 194:src/main.cpp  **** 
 660              		.loc 1 194 9
 661 0474 13060000 		li	a2,0
 662              	.LVL74:
 663              	.L35:
 664              	.LBB10:
 196:src/main.cpp  ****     {
 665              		.loc 1 196 22 is_stmt 1 discriminator 3
 196:src/main.cpp  ****     {
 666              		.loc 1 196 30 is_stmt 0 discriminator 3
 667 0478 03278500 		lw	a4,8(a0)
 196:src/main.cpp  ****     {
 668              		.loc 1 196 22 discriminator 3
GAS LISTING /tmp/ccCCjb08.s 			page 21


 669 047c 63D8E702 		ble	a4,a5,.L34
 198:src/main.cpp  ****     }
 670              		.loc 1 198 9 is_stmt 1 discriminator 2
 198:src/main.cpp  ****     }
 671              		.loc 1 198 20 is_stmt 0 discriminator 2
 672 0480 03370500 		ld	a4,0(a0)
 198:src/main.cpp  ****     }
 673              		.loc 1 198 25 discriminator 2
 674 0484 93963700 		slli	a3,a5,3
 675 0488 3307D700 		add	a4,a4,a3
 676 048c 03370700 		ld	a4,0(a4)
 198:src/main.cpp  ****     }
 677              		.loc 1 198 33 discriminator 2
 678 0490 83260501 		lw	a3,16(a0)
 198:src/main.cpp  ****     }
 679              		.loc 1 198 40 discriminator 2
 680 0494 93962600 		slli	a3,a3,2
 681 0498 3307D700 		add	a4,a4,a3
 682 049c 03270700 		lw	a4,0(a4)
 198:src/main.cpp  ****     }
 683              		.loc 1 198 11 discriminator 2
 684 04a0 3B06C700 		addw	a2,a4,a2
 685              	.LVL75:
 196:src/main.cpp  ****     {
 686              		.loc 1 196 5 is_stmt 1 discriminator 2
 687 04a4 9B871700 		addiw	a5,a5,1
 688              	.LVL76:
 689 04a8 6FF01FFD 		j	.L35
 690              	.LVL77:
 691              	.L34:
 692              	.LBE10:
 201:src/main.cpp  ****     delete data;
 693              		.loc 1 201 5
 201:src/main.cpp  ****     delete data;
 694              		.loc 1 201 12 is_stmt 0
 695 04ac 83378501 		ld	a5,24(a0)
 696              	.LVL78:
 201:src/main.cpp  ****     delete data;
 697              		.loc 1 201 24
 698 04b0 23A0C700 		sw	a2,0(a5)
 202:src/main.cpp  **** }
 699              		.loc 1 202 5 is_stmt 1
 202:src/main.cpp  **** }
 700              		.loc 1 202 16 is_stmt 0
 701 04b4 63060502 		beqz	a0,.L38
 192:src/main.cpp  ****     matStruct* data = (matStruct*)arg;
 702              		.loc 1 192 1 discriminator 1
 703 04b8 130101FF 		addi	sp,sp,-16
 704              		.cfi_def_cfa_offset 16
 705 04bc 23341100 		sd	ra,8(sp)
 706 04c0 23308100 		sd	s0,0(sp)
 707              		.cfi_offset 1, -8
 708              		.cfi_offset 8, -16
 709 04c4 13040101 		addi	s0,sp,16
 710              		.cfi_def_cfa 8, 0
 202:src/main.cpp  **** }
 711              		.loc 1 202 12 discriminator 1
GAS LISTING /tmp/ccCCjb08.s 			page 22


 712 04c8 97000000 		call	_ZdlPv@plt
 712      E7800000 
 713              	.LVL79:
 203:src/main.cpp  **** 
 714              		.loc 1 203 1 discriminator 1
 715 04d0 83308100 		ld	ra,8(sp)
 716              		.cfi_restore 1
 717 04d4 03340100 		ld	s0,0(sp)
 718              		.cfi_restore 8
 719              		.cfi_def_cfa 2, 16
 720 04d8 13010101 		addi	sp,sp,16
 721              		.cfi_def_cfa_offset 0
 722 04dc 67800000 		jr	ra
 723              	.LVL80:
 724              	.L38:
 725 04e0 67800000 		ret
 726              		.cfi_endproc
 727              	.LFE32:
 729              		.section	.rodata.str1.8
 730 00f3 00000000 		.align	3
 730      00
 731              	.LC13:
 732 00f8 52656C65 		.string	"Released 3 resource! Current balance = "
 732      61736564 
 732      20332072 
 732      65736F75 
 732      72636521 
 733              		.text
 734              		.align	2
 735              		.globl	_Z13resourceGiverPv
 737              	_Z13resourceGiverPv:
 738              	.LFB36:
 272:src/main.cpp  **** 
 273:src/main.cpp  **** 
 274:src/main.cpp  **** 
 275:src/main.cpp  **** void modifKill()
 276:src/main.cpp  **** {
 277:src/main.cpp  ****     _thread* a1;
 278:src/main.cpp  ****     _thread* a2;
 279:src/main.cpp  **** 
 280:src/main.cpp  ****     thread_create(&a1, test, nullptr);
 281:src/main.cpp  ****     thread_create(&a2, test2, nullptr);
 282:src/main.cpp  **** 
 283:src/main.cpp  ****     int i = 0;
 284:src/main.cpp  ****     while (i < 3)
 285:src/main.cpp  ****     {
 286:src/main.cpp  ****         thread_dispatch();
 287:src/main.cpp  ****         i++;
 288:src/main.cpp  ****     }
 289:src/main.cpp  ****     int killRet;
 290:src/main.cpp  ****     killRet = thread_kill(a1->myId);
 291:src/main.cpp  **** 
 292:src/main.cpp  ****     printString("\na1 killRet = ");
 293:src/main.cpp  ****     printInt(killRet);
 294:src/main.cpp  **** 
 295:src/main.cpp  ****     killRet = thread_kill(a2->myId);
 296:src/main.cpp  ****     printString("\na2 killRet = ");
GAS LISTING /tmp/ccCCjb08.s 			page 23


 297:src/main.cpp  ****     printInt(killRet);
 298:src/main.cpp  **** 
 299:src/main.cpp  ****     printString("\nKilled a1 and a2!\n");
 300:src/main.cpp  **** 
 301:src/main.cpp  ****     killRet = thread_kill(7);
 302:src/main.cpp  ****     printString("\nthread not found killRet = ");
 303:src/main.cpp  ****     printInt(killRet);
 304:src/main.cpp  ****     printString("\n");
 305:src/main.cpp  **** 
 306:src/main.cpp  **** 
 307:src/main.cpp  ****     sem_open(&killSem, 0);
 308:src/main.cpp  ****     thread_create(&threadKillSem, threadKillSemFunction, nullptr);
 309:src/main.cpp  ****     thread_dispatch();
 310:src/main.cpp  ****     killRet = thread_kill(threadKillSem->myId);
 311:src/main.cpp  **** 
 312:src/main.cpp  ****     printString("\nthread on semaphore killRet = ");
 313:src/main.cpp  ****     printInt(killRet);
 314:src/main.cpp  ****     printString("\n");
 315:src/main.cpp  **** 
 316:src/main.cpp  ****     thread_kill(_thread::running->myId);
 317:src/main.cpp  **** 
 318:src/main.cpp  ****     printString("Error: Killed self!\n");
 319:src/main.cpp  **** }
 320:src/main.cpp  **** 
 321:src/main.cpp  **** resource* myResource;
 322:src/main.cpp  **** void resourceGiver(void*)
 323:src/main.cpp  **** {
 739              		.loc 1 323 1 is_stmt 1
 740              		.cfi_startproc
 741 04e4 130101FE 		addi	sp,sp,-32
 742              		.cfi_def_cfa_offset 32
 743 04e8 233C1100 		sd	ra,24(sp)
 744 04ec 23388100 		sd	s0,16(sp)
 745 04f0 23349100 		sd	s1,8(sp)
 746              		.cfi_offset 1, -8
 747              		.cfi_offset 8, -16
 748              		.cfi_offset 9, -24
 749 04f4 13040102 		addi	s0,sp,32
 750              		.cfi_def_cfa 8, 0
 751              	.L42:
 324:src/main.cpp  ****     while (true)
 752              		.loc 1 324 5 discriminator 1
 325:src/main.cpp  ****     {
 326:src/main.cpp  ****         myResource->releaseResource(3);
 753              		.loc 1 326 9 discriminator 1
 754              		.loc 1 326 36 is_stmt 0 discriminator 1
 755 04f8 97040000 		lla	s1,.LANCHOR0
 755      93840400 
 756 0500 93053000 		li	a1,3
 757 0504 03B50402 		ld	a0,32(s1)
 758 0508 97000000 		call	_ZN8resource15releaseResourceEj@plt
 758      E7800000 
 759              	.LVL81:
 327:src/main.cpp  ****         printString("Released 3 resource! Current balance = ");
 760              		.loc 1 327 9 is_stmt 1 discriminator 1
 761              		.loc 1 327 20 is_stmt 0 discriminator 1
 762 0510 17050000 		lla	a0,.LC13
GAS LISTING /tmp/ccCCjb08.s 			page 24


 762      13050500 
 763 0518 97000000 		call	_Z11printStringPKc@plt
 763      E7800000 
 764              	.LVL82:
 328:src/main.cpp  ****         printInt(myResource->val);
 765              		.loc 1 328 9 is_stmt 1 discriminator 1
 766              		.loc 1 328 30 is_stmt 0 discriminator 1
 767 0520 83B70402 		ld	a5,32(s1)
 768              		.loc 1 328 17 discriminator 1
 769 0524 13060000 		li	a2,0
 770 0528 9305A000 		li	a1,10
 771 052c 03A50700 		lw	a0,0(a5)
 772 0530 97000000 		call	_Z8printIntiii@plt
 772      E7800000 
 773              	.LVL83:
 329:src/main.cpp  ****         printString("\n");
 774              		.loc 1 329 9 is_stmt 1 discriminator 1
 775              		.loc 1 329 20 is_stmt 0 discriminator 1
 776 0538 17050000 		lla	a0,.LC1
 776      13050500 
 777 0540 97000000 		call	_Z11printStringPKc@plt
 777      E7800000 
 778              	.LVL84:
 330:src/main.cpp  ****         thread_dispatch();
 779              		.loc 1 330 9 is_stmt 1 discriminator 1
 780              		.loc 1 330 24 is_stmt 0 discriminator 1
 781 0548 97000000 		call	_Z15thread_dispatchv@plt
 781      E7800000 
 782              	.LVL85:
 324:src/main.cpp  ****     {
 783              		.loc 1 324 5 is_stmt 1 discriminator 1
 784 0550 6FF09FFA 		j	.L42
 785              		.cfi_endproc
 786              	.LFE36:
 788              		.section	.rodata.str1.8
 789              		.align	3
 790              	.LC14:
 791 0120 41717569 		.string	"Aquired 5 resource! Current balance = "
 791      72656420 
 791      35207265 
 791      736F7572 
 791      63652120 
 792              		.text
 793              		.align	2
 794              		.globl	_Z13resourceTakerPv
 796              	_Z13resourceTakerPv:
 797              	.LFB37:
 331:src/main.cpp  ****     }
 332:src/main.cpp  **** }
 333:src/main.cpp  **** 
 334:src/main.cpp  **** void resourceTaker(void*)
 335:src/main.cpp  **** {
 798              		.loc 1 335 1
 799              		.cfi_startproc
 800 0554 130101FE 		addi	sp,sp,-32
 801              		.cfi_def_cfa_offset 32
 802 0558 233C1100 		sd	ra,24(sp)
GAS LISTING /tmp/ccCCjb08.s 			page 25


 803 055c 23388100 		sd	s0,16(sp)
 804 0560 23349100 		sd	s1,8(sp)
 805              		.cfi_offset 1, -8
 806              		.cfi_offset 8, -16
 807              		.cfi_offset 9, -24
 808 0564 13040102 		addi	s0,sp,32
 809              		.cfi_def_cfa 8, 0
 810              	.L45:
 336:src/main.cpp  ****     while (true)
 811              		.loc 1 336 5 discriminator 1
 337:src/main.cpp  ****     {
 338:src/main.cpp  ****         myResource->aquireResource(5);
 812              		.loc 1 338 9 discriminator 1
 813              		.loc 1 338 35 is_stmt 0 discriminator 1
 814 0568 97040000 		lla	s1,.LANCHOR0
 814      93840400 
 815 0570 93055000 		li	a1,5
 816 0574 03B50402 		ld	a0,32(s1)
 817 0578 97000000 		call	_ZN8resource14aquireResourceEj@plt
 817      E7800000 
 818              	.LVL86:
 339:src/main.cpp  ****         printString("Aquired 5 resource! Current balance = ");
 819              		.loc 1 339 9 is_stmt 1 discriminator 1
 820              		.loc 1 339 20 is_stmt 0 discriminator 1
 821 0580 17050000 		lla	a0,.LC14
 821      13050500 
 822 0588 97000000 		call	_Z11printStringPKc@plt
 822      E7800000 
 823              	.LVL87:
 340:src/main.cpp  ****         printInt(myResource->val);
 824              		.loc 1 340 9 is_stmt 1 discriminator 1
 825              		.loc 1 340 30 is_stmt 0 discriminator 1
 826 0590 83B70402 		ld	a5,32(s1)
 827              		.loc 1 340 17 discriminator 1
 828 0594 13060000 		li	a2,0
 829 0598 9305A000 		li	a1,10
 830 059c 03A50700 		lw	a0,0(a5)
 831 05a0 97000000 		call	_Z8printIntiii@plt
 831      E7800000 
 832              	.LVL88:
 341:src/main.cpp  ****         printString("\n");
 833              		.loc 1 341 9 is_stmt 1 discriminator 1
 834              		.loc 1 341 20 is_stmt 0 discriminator 1
 835 05a8 17050000 		lla	a0,.LC1
 835      13050500 
 836 05b0 97000000 		call	_Z11printStringPKc@plt
 836      E7800000 
 837              	.LVL89:
 342:src/main.cpp  ****         thread_dispatch();
 838              		.loc 1 342 9 is_stmt 1 discriminator 1
 839              		.loc 1 342 24 is_stmt 0 discriminator 1
 840 05b8 97000000 		call	_Z15thread_dispatchv@plt
 840      E7800000 
 841              	.LVL90:
 336:src/main.cpp  ****     {
 842              		.loc 1 336 5 is_stmt 1 discriminator 1
 843 05c0 6FF09FFA 		j	.L45
GAS LISTING /tmp/ccCCjb08.s 			page 26


 844              		.cfi_endproc
 845              	.LFE37:
 847              		.align	2
 848              		.globl	_Z10prosliMainv
 850              	_Z10prosliMainv:
 851              	.LFB31:
 143:src/main.cpp  ****     // __putc('1');
 852              		.loc 1 143 1
 853              		.cfi_startproc
 854 05c4 130101FE 		addi	sp,sp,-32
 855              		.cfi_def_cfa_offset 32
 856 05c8 233C1100 		sd	ra,24(sp)
 857 05cc 23388100 		sd	s0,16(sp)
 858 05d0 23349100 		sd	s1,8(sp)
 859              		.cfi_offset 1, -8
 860              		.cfi_offset 8, -16
 861              		.cfi_offset 9, -24
 862 05d4 13040102 		addi	s0,sp,32
 863              		.cfi_def_cfa 8, 0
 148:src/main.cpp  ****     sem_open(&full, 0);
 864              		.loc 1 148 5
 148:src/main.cpp  ****     sem_open(&full, 0);
 865              		.loc 1 148 13 is_stmt 0
 866 05d8 97040000 		lla	s1,.LANCHOR0
 866      93840400 
 867 05e0 93051000 		li	a1,1
 868 05e4 17050000 		lla	a0,.LANCHOR0+24
 868      13050500 
 869 05ec 97000000 		call	_Z8sem_openPP4_semj@plt
 869      E7800000 
 870              	.LVL91:
 149:src/main.cpp  ****     thread_create(&globalThread1, producer, nullptr);
 871              		.loc 1 149 5 is_stmt 1
 149:src/main.cpp  ****     thread_create(&globalThread1, producer, nullptr);
 872              		.loc 1 149 13 is_stmt 0
 873 05f4 93050000 		li	a1,0
 874 05f8 17050000 		lla	a0,.LANCHOR0+8
 874      13050500 
 875 0600 97000000 		call	_Z8sem_openPP4_semj@plt
 875      E7800000 
 876              	.LVL92:
 150:src/main.cpp  ****     thread_create(&globalThread2, consumer, (void*)1);
 877              		.loc 1 150 5 is_stmt 1
 150:src/main.cpp  ****     thread_create(&globalThread2, consumer, (void*)1);
 878              		.loc 1 150 18 is_stmt 0
 879 0608 13060000 		li	a2,0
 880 060c 97050000 		lla	a1,_Z8producerPv
 880      93850500 
 881 0614 17050000 		lla	a0,.LANCHOR0+40
 881      13050500 
 882 061c 97000000 		call	_Z13thread_createPP7_threadPFvPvES2_@plt
 882      E7800000 
 883              	.LVL93:
 151:src/main.cpp  **** //    thread_create(&globalThread3, consumer, (void*)2);
 884              		.loc 1 151 5 is_stmt 1
 151:src/main.cpp  **** //    thread_create(&globalThread3, consumer, (void*)2);
 885              		.loc 1 151 18 is_stmt 0
GAS LISTING /tmp/ccCCjb08.s 			page 27


 886 0624 13061000 		li	a2,1
 887 0628 97050000 		lla	a1,_Z8consumerPv
 887      93850500 
 888 0630 17050000 		lla	a0,.LANCHOR0+48
 888      13050500 
 889 0638 97000000 		call	_Z13thread_createPP7_threadPFvPvES2_@plt
 889      E7800000 
 890              	.LVL94:
 157:src/main.cpp  ****     thread_join(globalThread2);
 891              		.loc 1 157 5 is_stmt 1
 157:src/main.cpp  ****     thread_join(globalThread2);
 892              		.loc 1 157 16 is_stmt 0
 893 0640 03B58402 		ld	a0,40(s1)
 894 0644 97000000 		call	_Z11thread_joinP7_thread@plt
 894      E7800000 
 895              	.LVL95:
 158:src/main.cpp  **** 
 896              		.loc 1 158 5 is_stmt 1
 158:src/main.cpp  **** 
 897              		.loc 1 158 16 is_stmt 0
 898 064c 03B50403 		ld	a0,48(s1)
 899 0650 97000000 		call	_Z11thread_joinP7_thread@plt
 899      E7800000 
 900              	.LVL96:
 180:src/main.cpp  **** 
 901              		.loc 1 180 1
 902 0658 83308101 		ld	ra,24(sp)
 903              		.cfi_restore 1
 904 065c 03340101 		ld	s0,16(sp)
 905              		.cfi_restore 8
 906              		.cfi_def_cfa 2, 32
 907 0660 83348100 		ld	s1,8(sp)
 908              		.cfi_restore 9
 909 0664 13010102 		addi	sp,sp,32
 910              		.cfi_def_cfa_offset 0
 911 0668 67800000 		jr	ra
 912              		.cfi_endproc
 913              	.LFE31:
 915              		.section	.rodata.str1.8
 916 0147 00       		.align	3
 917              	.LC15:
 918 0148 0A6D203D 		.string	"\nm = "
 918      2000
 919 014e 0000     		.align	3
 920              	.LC16:
 921 0150 0A6E203D 		.string	"\nn = "
 921      2000
 922 0156 0000     		.align	3
 923              	.LC17:
 924 0158 0A4D6174 		.string	"\nMatrica: \n"
 924      72696361 
 924      3A200A00 
 925 0164 00000000 		.align	3
 926              	.LC18:
 927 0168 2000     		.string	" "
 928 016a 00000000 		.align	3
 928      0000
GAS LISTING /tmp/ccCCjb08.s 			page 28


 929              	.LC19:
 930 0170 73756D20 		.string	"sum = "
 930      3D2000
 931              		.text
 932              		.align	2
 933              		.globl	_Z12modifMatricav
 935              	_Z12modifMatricav:
 936              	.LFB33:
 207:src/main.cpp  ****     printString("\nm = ");
 937              		.loc 1 207 1 is_stmt 1
 938              		.cfi_startproc
 939 066c 130101FB 		addi	sp,sp,-80
 940              		.cfi_def_cfa_offset 80
 941 0670 23341104 		sd	ra,72(sp)
 942 0674 23308104 		sd	s0,64(sp)
 943 0678 233C9102 		sd	s1,56(sp)
 944 067c 23382103 		sd	s2,48(sp)
 945 0680 23343103 		sd	s3,40(sp)
 946 0684 23304103 		sd	s4,32(sp)
 947 0688 233C5101 		sd	s5,24(sp)
 948 068c 23386101 		sd	s6,16(sp)
 949 0690 23347101 		sd	s7,8(sp)
 950 0694 23308101 		sd	s8,0(sp)
 951              		.cfi_offset 1, -8
 952              		.cfi_offset 8, -16
 953              		.cfi_offset 9, -24
 954              		.cfi_offset 18, -32
 955              		.cfi_offset 19, -40
 956              		.cfi_offset 20, -48
 957              		.cfi_offset 21, -56
 958              		.cfi_offset 22, -64
 959              		.cfi_offset 23, -72
 960              		.cfi_offset 24, -80
 961 0698 13040105 		addi	s0,sp,80
 962              		.cfi_def_cfa 8, 0
 208:src/main.cpp  ****     int m = (int)getc() - 48;
 963              		.loc 1 208 5
 208:src/main.cpp  ****     int m = (int)getc() - 48;
 964              		.loc 1 208 16 is_stmt 0
 965 069c 17050000 		lla	a0,.LC15
 965      13050500 
 966 06a4 97000000 		call	_Z11printStringPKc@plt
 966      E7800000 
 967              	.LVL97:
 209:src/main.cpp  ****     printString("\nn = ");
 968              		.loc 1 209 5 is_stmt 1
 209:src/main.cpp  ****     printString("\nn = ");
 969              		.loc 1 209 22 is_stmt 0
 970 06ac 97000000 		call	_Z4getcv@plt
 970      E7800000 
 971              	.LVL98:
 209:src/main.cpp  ****     printString("\nn = ");
 972              		.loc 1 209 13
 973 06b4 9B040500 		sext.w	s1,a0
 209:src/main.cpp  ****     printString("\nn = ");
 974              		.loc 1 209 27
 975 06b8 1B0A05FD 		addiw	s4,a0,-48
GAS LISTING /tmp/ccCCjb08.s 			page 29


 976              	.LVL99:
 210:src/main.cpp  ****     int n = (int)getc() - 48;
 977              		.loc 1 210 5 is_stmt 1
 210:src/main.cpp  ****     int n = (int)getc() - 48;
 978              		.loc 1 210 16 is_stmt 0
 979 06bc 17050000 		lla	a0,.LC16
 979      13050500 
 980              	.LVL100:
 981 06c4 97000000 		call	_Z11printStringPKc@plt
 981      E7800000 
 982              	.LVL101:
 211:src/main.cpp  ****     printString("\n");
 983              		.loc 1 211 5 is_stmt 1
 211:src/main.cpp  ****     printString("\n");
 984              		.loc 1 211 22 is_stmt 0
 985 06cc 97000000 		call	_Z4getcv@plt
 985      E7800000 
 986              	.LVL102:
 211:src/main.cpp  ****     printString("\n");
 987              		.loc 1 211 27
 988 06d4 1B0905FD 		addiw	s2,a0,-48
 989              	.LVL103:
 212:src/main.cpp  **** 
 990              		.loc 1 212 5 is_stmt 1
 212:src/main.cpp  **** 
 991              		.loc 1 212 16 is_stmt 0
 992 06d8 17050000 		lla	a0,.LC1
 992      13050500 
 993              	.LVL104:
 994 06e0 97000000 		call	_Z11printStringPKc@plt
 994      E7800000 
 995              	.LVL105:
 214:src/main.cpp  **** 
 996              		.loc 1 214 5 is_stmt 1
 214:src/main.cpp  **** 
 997              		.loc 1 214 52 is_stmt 0
 998 06e8 1B8514FD 		addiw	a0,s1,-47
 214:src/main.cpp  **** 
 999              		.loc 1 214 33
 1000 06ec 13153500 		slli	a0,a0,3
 1001 06f0 97000000 		call	_Z9mem_allocm@plt
 1001      E7800000 
 1002              	.LVL106:
 1003 06f8 93090500 		mv	s3,a0
 1004              	.LVL107:
 216:src/main.cpp  ****         mat[i] = (int*)mem_alloc(sizeof(int) * (n));
 1005              		.loc 1 216 5 is_stmt 1
 1006              	.LBB11:
 216:src/main.cpp  ****         mat[i] = (int*)mem_alloc(sizeof(int) * (n));
 1007              		.loc 1 216 13 is_stmt 0
 1008 06fc 93040000 		li	s1,0
 1009              	.LVL108:
 1010              	.L51:
 216:src/main.cpp  ****         mat[i] = (int*)mem_alloc(sizeof(int) * (n));
 1011              		.loc 1 216 22 is_stmt 1 discriminator 3
 1012 0700 63429A02 		bgt	s1,s4,.L63
 217:src/main.cpp  **** 
GAS LISTING /tmp/ccCCjb08.s 			page 30


 1013              		.loc 1 217 9 discriminator 2
 217:src/main.cpp  **** 
 1014              		.loc 1 217 14 is_stmt 0 discriminator 2
 1015 0704 939A3400 		slli	s5,s1,3
 1016 0708 B38A5901 		add	s5,s3,s5
 217:src/main.cpp  **** 
 1017              		.loc 1 217 33 discriminator 2
 1018 070c 13152900 		slli	a0,s2,2
 1019 0710 97000000 		call	_Z9mem_allocm@plt
 1019      E7800000 
 1020              	.LVL109:
 217:src/main.cpp  **** 
 1021              		.loc 1 217 16 discriminator 2
 1022 0718 23B0AA00 		sd	a0,0(s5)
 216:src/main.cpp  ****         mat[i] = (int*)mem_alloc(sizeof(int) * (n));
 1023              		.loc 1 216 5 is_stmt 1 discriminator 2
 1024 071c 9B841400 		addiw	s1,s1,1
 1025              	.LVL110:
 1026 0720 6FF01FFE 		j	.L51
 1027              	.LVL111:
 1028              	.L63:
 1029              	.LBE11:
 1030              	.LBB12:
 219:src/main.cpp  ****         for(int j = 0; j < n; j++)
 1031              		.loc 1 219 13 is_stmt 0
 1032 0724 930A0000 		li	s5,0
 1033 0728 6F008000 		j	.L50
 1034              	.LVL112:
 1035              	.L53:
 219:src/main.cpp  ****         for(int j = 0; j < n; j++)
 1036              		.loc 1 219 5 is_stmt 1 discriminator 2
 1037 072c 9B8A1A00 		addiw	s5,s5,1
 1038              	.LVL113:
 1039              	.L50:
 219:src/main.cpp  ****         for(int j = 0; j < n; j++)
 1040              		.loc 1 219 22 discriminator 1
 1041 0730 63DC4A03 		bge	s5,s4,.L52
 1042              	.LBB13:
 220:src/main.cpp  ****             mat[i][j] = (int)getc() - 48;
 1043              		.loc 1 220 17 is_stmt 0
 1044 0734 93040000 		li	s1,0
 1045              	.L54:
 1046              	.LVL114:
 220:src/main.cpp  ****             mat[i][j] = (int)getc() - 48;
 1047              		.loc 1 220 26 is_stmt 1 discriminator 3
 1048 0738 E3DA24FF 		bge	s1,s2,.L53
 221:src/main.cpp  **** 
 1049              		.loc 1 221 13 discriminator 2
 221:src/main.cpp  **** 
 1050              		.loc 1 221 34 is_stmt 0 discriminator 2
 1051 073c 97000000 		call	_Z4getcv@plt
 1051      E7800000 
 1052              	.LVL115:
 221:src/main.cpp  **** 
 1053              		.loc 1 221 18 discriminator 2
 1054 0744 93973A00 		slli	a5,s5,3
 1055 0748 B387F900 		add	a5,s3,a5
GAS LISTING /tmp/ccCCjb08.s 			page 31


 1056 074c 83B70700 		ld	a5,0(a5)
 221:src/main.cpp  **** 
 1057              		.loc 1 221 21 discriminator 2
 1058 0750 13972400 		slli	a4,s1,2
 1059 0754 B387E700 		add	a5,a5,a4
 221:src/main.cpp  **** 
 1060              		.loc 1 221 37 discriminator 2
 1061 0758 1B0505FD 		addiw	a0,a0,-48
 221:src/main.cpp  **** 
 1062              		.loc 1 221 23 discriminator 2
 1063 075c 23A0A700 		sw	a0,0(a5)
 220:src/main.cpp  ****             mat[i][j] = (int)getc() - 48;
 1064              		.loc 1 220 9 is_stmt 1 discriminator 2
 1065 0760 9B841400 		addiw	s1,s1,1
 1066              	.LVL116:
 1067 0764 6FF05FFD 		j	.L54
 1068              	.L52:
 1069              	.LBE13:
 1070              	.LBE12:
 223:src/main.cpp  ****     for(int i = 0; i < m; i++)
 1071              		.loc 1 223 5
 223:src/main.cpp  ****     for(int i = 0; i < m; i++)
 1072              		.loc 1 223 16 is_stmt 0
 1073 0768 17050000 		lla	a0,.LC17
 1073      13050500 
 1074 0770 97000000 		call	_Z11printStringPKc@plt
 1074      E7800000 
 1075              	.LVL117:
 224:src/main.cpp  ****     {
 1076              		.loc 1 224 5 is_stmt 1
 1077              	.LBB14:
 224:src/main.cpp  ****     {
 1078              		.loc 1 224 13 is_stmt 0
 1079 0778 930A0000 		li	s5,0
 1080              	.LVL118:
 1081 077c 6F008001 		j	.L58
 1082              	.LVL119:
 1083              	.L56:
 1084              	.LBB15:
 231:src/main.cpp  ****     }
 1085              		.loc 1 231 9 is_stmt 1 discriminator 2
 231:src/main.cpp  ****     }
 1086              		.loc 1 231 20 is_stmt 0 discriminator 2
 1087 0780 17050000 		lla	a0,.LC1
 1087      13050500 
 1088 0788 97000000 		call	_Z11printStringPKc@plt
 1088      E7800000 
 1089              	.LVL120:
 1090              	.LBE15:
 224:src/main.cpp  ****     {
 1091              		.loc 1 224 5 is_stmt 1 discriminator 2
 1092 0790 9B8A1A00 		addiw	s5,s5,1
 1093              	.LVL121:
 1094              	.L58:
 224:src/main.cpp  ****     {
 1095              		.loc 1 224 22 discriminator 1
 1096 0794 63D64A05 		bge	s5,s4,.L55
GAS LISTING /tmp/ccCCjb08.s 			page 32


 1097              	.LBB17:
 1098              	.LBB16:
 226:src/main.cpp  ****         {
 1099              		.loc 1 226 18 is_stmt 0
 1100 0798 93040000 		li	s1,0
 1101              	.L57:
 1102              	.LVL122:
 226:src/main.cpp  ****         {
 1103              		.loc 1 226 27 is_stmt 1 discriminator 3
 1104 079c E3D224FF 		bge	s1,s2,.L56
 228:src/main.cpp  ****             printString(" ");
 1105              		.loc 1 228 13 discriminator 2
 228:src/main.cpp  ****             printString(" ");
 1106              		.loc 1 228 27 is_stmt 0 discriminator 2
 1107 07a0 93973A00 		slli	a5,s5,3
 1108 07a4 B387F900 		add	a5,s3,a5
 1109 07a8 83B70700 		ld	a5,0(a5)
 228:src/main.cpp  ****             printString(" ");
 1110              		.loc 1 228 30 discriminator 2
 1111 07ac 13972400 		slli	a4,s1,2
 1112 07b0 B387E700 		add	a5,a5,a4
 228:src/main.cpp  ****             printString(" ");
 1113              		.loc 1 228 21 discriminator 2
 1114 07b4 13060000 		li	a2,0
 1115 07b8 9305A000 		li	a1,10
 1116 07bc 03A50700 		lw	a0,0(a5)
 1117 07c0 97000000 		call	_Z8printIntiii@plt
 1117      E7800000 
 1118              	.LVL123:
 229:src/main.cpp  ****         }
 1119              		.loc 1 229 13 is_stmt 1 discriminator 2
 229:src/main.cpp  ****         }
 1120              		.loc 1 229 24 is_stmt 0 discriminator 2
 1121 07c8 17050000 		lla	a0,.LC18
 1121      13050500 
 1122 07d0 97000000 		call	_Z11printStringPKc@plt
 1122      E7800000 
 1123              	.LVL124:
 226:src/main.cpp  ****         {
 1124              		.loc 1 226 9 is_stmt 1 discriminator 2
 1125 07d8 9B841400 		addiw	s1,s1,1
 1126              	.LVL125:
 1127 07dc 6FF01FFC 		j	.L57
 1128              	.L55:
 1129              	.LBE16:
 1130              	.LBE17:
 1131              	.LBE14:
 234:src/main.cpp  **** 
 1132              		.loc 1 234 5
 234:src/main.cpp  **** 
 1133              		.loc 1 234 45 is_stmt 0
 1134 07e0 13153900 		slli	a0,s2,3
 1135 07e4 97000000 		call	_Z9mem_allocm@plt
 1135      E7800000 
 1136              	.LVL126:
 1137 07ec 930B0500 		mv	s7,a0
 1138              	.LVL127:
GAS LISTING /tmp/ccCCjb08.s 			page 33


 236:src/main.cpp  ****     {
 1139              		.loc 1 236 5 is_stmt 1
 1140              	.LBB18:
 236:src/main.cpp  ****     {
 1141              		.loc 1 236 14 is_stmt 0
 1142 07f0 930A0000 		li	s5,0
 1143              	.LVL128:
 1144              	.L60:
 236:src/main.cpp  ****     {
 1145              		.loc 1 236 23 is_stmt 1 discriminator 3
 1146 07f4 63DA2A07 		bge	s5,s2,.L64
 1147              	.LBB19:
 238:src/main.cpp  ****         arg->mat = mat;
 1148              		.loc 1 238 9 discriminator 2
 238:src/main.cpp  ****         arg->mat = mat;
 1149              		.loc 1 238 48 is_stmt 0 discriminator 2
 1150 07f8 13050002 		li	a0,32
 1151 07fc 97000000 		call	_Z9mem_allocm@plt
 1151      E7800000 
 1152              	.LVL129:
 1153 0804 93040500 		mv	s1,a0
 1154              	.LVL130:
 239:src/main.cpp  ****         arg->m = m;
 1155              		.loc 1 239 9 is_stmt 1 discriminator 2
 239:src/main.cpp  ****         arg->m = m;
 1156              		.loc 1 239 18 is_stmt 0 discriminator 2
 1157 0808 23303501 		sd	s3,0(a0)
 240:src/main.cpp  ****         arg->n = n;
 1158              		.loc 1 240 9 is_stmt 1 discriminator 2
 240:src/main.cpp  ****         arg->n = n;
 1159              		.loc 1 240 16 is_stmt 0 discriminator 2
 1160 080c 23244501 		sw	s4,8(a0)
 241:src/main.cpp  ****         arg->targetN = i;
 1161              		.loc 1 241 9 is_stmt 1 discriminator 2
 241:src/main.cpp  ****         arg->targetN = i;
 1162              		.loc 1 241 16 is_stmt 0 discriminator 2
 1163 0810 23262501 		sw	s2,12(a0)
 242:src/main.cpp  ****         arg->retLocation = &mat[m][i];
 1164              		.loc 1 242 9 is_stmt 1 discriminator 2
 242:src/main.cpp  ****         arg->retLocation = &mat[m][i];
 1165              		.loc 1 242 22 is_stmt 0 discriminator 2
 1166 0814 23285501 		sw	s5,16(a0)
 243:src/main.cpp  ****         handles[i] = (_thread*) mem_alloc(sizeof(_thread));
 1167              		.loc 1 243 9 is_stmt 1 discriminator 2
 243:src/main.cpp  ****         handles[i] = (_thread*) mem_alloc(sizeof(_thread));
 1168              		.loc 1 243 34 is_stmt 0 discriminator 2
 1169 0818 93173A00 		slli	a5,s4,3
 1170 081c B387F900 		add	a5,s3,a5
 1171 0820 83B70700 		ld	a5,0(a5)
 243:src/main.cpp  ****         handles[i] = (_thread*) mem_alloc(sizeof(_thread));
 1172              		.loc 1 243 37 discriminator 2
 1173 0824 13972A00 		slli	a4,s5,2
 243:src/main.cpp  ****         handles[i] = (_thread*) mem_alloc(sizeof(_thread));
 1174              		.loc 1 243 28 discriminator 2
 1175 0828 B387E700 		add	a5,a5,a4
 243:src/main.cpp  ****         handles[i] = (_thread*) mem_alloc(sizeof(_thread));
 1176              		.loc 1 243 26 discriminator 2
GAS LISTING /tmp/ccCCjb08.s 			page 34


 1177 082c 233CF500 		sd	a5,24(a0)
 244:src/main.cpp  ****         thread_create(&handles[i], collumnSum, arg);
 1178              		.loc 1 244 9 is_stmt 1 discriminator 2
 244:src/main.cpp  ****         thread_create(&handles[i], collumnSum, arg);
 1179              		.loc 1 244 18 is_stmt 0 discriminator 2
 1180 0830 139B3A00 		slli	s6,s5,3
 1181 0834 338B6B01 		add	s6,s7,s6
 244:src/main.cpp  ****         thread_create(&handles[i], collumnSum, arg);
 1182              		.loc 1 244 42 discriminator 2
 1183 0838 13050006 		li	a0,96
 1184 083c 97000000 		call	_Z9mem_allocm@plt
 1184      E7800000 
 1185              	.LVL131:
 244:src/main.cpp  ****         thread_create(&handles[i], collumnSum, arg);
 1186              		.loc 1 244 20 discriminator 2
 1187 0844 2330AB00 		sd	a0,0(s6)
 245:src/main.cpp  ****     }
 1188              		.loc 1 245 9 is_stmt 1 discriminator 2
 245:src/main.cpp  ****     }
 1189              		.loc 1 245 22 is_stmt 0 discriminator 2
 1190 0848 13860400 		mv	a2,s1
 1191 084c 97050000 		lla	a1,_Z10collumnSumPv
 1191      93850500 
 1192 0854 13050B00 		mv	a0,s6
 1193 0858 97000000 		call	_Z13thread_createPP7_threadPFvPvES2_@plt
 1193      E7800000 
 1194              	.LVL132:
 1195              	.LBE19:
 236:src/main.cpp  ****     {
 1196              		.loc 1 236 5 is_stmt 1 discriminator 2
 1197 0860 9B8A1A00 		addiw	s5,s5,1
 1198              	.LVL133:
 1199 0864 6FF01FF9 		j	.L60
 1200              	.LVL134:
 1201              	.L64:
 1202              	.LBE18:
 1203              	.LBB20:
 249:src/main.cpp  ****     {
 1204              		.loc 1 249 14 is_stmt 0
 1205 0868 93040000 		li	s1,0
 1206              	.LBE20:
 248:src/main.cpp  ****     for (int i = 0; i < n; i++)
 1207              		.loc 1 248 9
 1208 086c 130C0000 		li	s8,0
 1209 0870 6F004002 		j	.L59
 1210              	.LVL135:
 1211              	.L62:
 1212              	.LBB21:
 253:src/main.cpp  ****     }
 1213              		.loc 1 253 9 is_stmt 1 discriminator 2
 253:src/main.cpp  ****     }
 1214              		.loc 1 253 21 is_stmt 0 discriminator 2
 1215 0874 93173A00 		slli	a5,s4,3
 1216 0878 B387F900 		add	a5,s3,a5
 1217 087c 83B70700 		ld	a5,0(a5)
 253:src/main.cpp  ****     }
 1218              		.loc 1 253 24 discriminator 2
GAS LISTING /tmp/ccCCjb08.s 			page 35


 1219 0880 131B2B00 		slli	s6,s6,2
 1220 0884 B3876701 		add	a5,a5,s6
 1221 0888 83A70700 		lw	a5,0(a5)
 253:src/main.cpp  ****     }
 1222              		.loc 1 253 13 discriminator 2
 1223 088c 3B8C8701 		addw	s8,a5,s8
 1224              	.LVL136:
 249:src/main.cpp  ****     {
 1225              		.loc 1 249 5 is_stmt 1 discriminator 2
 1226 0890 9B841400 		addiw	s1,s1,1
 1227              	.LVL137:
 1228              	.L59:
 249:src/main.cpp  ****     {
 1229              		.loc 1 249 23 discriminator 1
 1230 0894 63D82403 		bge	s1,s2,.L61
 251:src/main.cpp  ****         delete handles[i];
 1231              		.loc 1 251 9
 251:src/main.cpp  ****         delete handles[i];
 1232              		.loc 1 251 29 is_stmt 0
 1233 0898 138B0400 		mv	s6,s1
 251:src/main.cpp  ****         delete handles[i];
 1234              		.loc 1 251 30
 1235 089c 939A3400 		slli	s5,s1,3
 1236 08a0 B38A5B01 		add	s5,s7,s5
 251:src/main.cpp  ****         delete handles[i];
 1237              		.loc 1 251 20
 1238 08a4 03B50A00 		ld	a0,0(s5)
 1239 08a8 97000000 		call	_Z11thread_joinP7_thread@plt
 1239      E7800000 
 1240              	.LVL138:
 252:src/main.cpp  ****         sum += mat[m][i];
 1241              		.loc 1 252 9 is_stmt 1
 252:src/main.cpp  ****         sum += mat[m][i];
 1242              		.loc 1 252 25 is_stmt 0
 1243 08b0 03B50A00 		ld	a0,0(s5)
 252:src/main.cpp  ****         sum += mat[m][i];
 1244              		.loc 1 252 26
 1245 08b4 E30005FC 		beqz	a0,.L62
 252:src/main.cpp  ****         sum += mat[m][i];
 1246              		.loc 1 252 25 discriminator 1
 1247 08b8 97000000 		call	_ZdlPv@plt
 1247      E7800000 
 1248              	.LVL139:
 1249 08c0 6FF05FFB 		j	.L62
 1250              	.L61:
 1251              	.LBE21:
 256:src/main.cpp  ****     printInt(sum);
 1252              		.loc 1 256 5 is_stmt 1
 256:src/main.cpp  ****     printInt(sum);
 1253              		.loc 1 256 16 is_stmt 0
 1254 08c4 17050000 		lla	a0,.LC19
 1254      13050500 
 1255 08cc 97000000 		call	_Z11printStringPKc@plt
 1255      E7800000 
 1256              	.LVL140:
 257:src/main.cpp  ****     printString("\n");
 1257              		.loc 1 257 5 is_stmt 1
GAS LISTING /tmp/ccCCjb08.s 			page 36


 257:src/main.cpp  ****     printString("\n");
 1258              		.loc 1 257 13 is_stmt 0
 1259 08d4 13060000 		li	a2,0
 1260 08d8 9305A000 		li	a1,10
 1261 08dc 13050C00 		mv	a0,s8
 1262 08e0 97000000 		call	_Z8printIntiii@plt
 1262      E7800000 
 1263              	.LVL141:
 258:src/main.cpp  **** }
 1264              		.loc 1 258 5 is_stmt 1
 258:src/main.cpp  **** }
 1265              		.loc 1 258 16 is_stmt 0
 1266 08e8 17050000 		lla	a0,.LC1
 1266      13050500 
 1267 08f0 97000000 		call	_Z11printStringPKc@plt
 1267      E7800000 
 1268              	.LVL142:
 259:src/main.cpp  **** 
 1269              		.loc 1 259 1
 1270 08f8 83308104 		ld	ra,72(sp)
 1271              		.cfi_restore 1
 1272 08fc 03340104 		ld	s0,64(sp)
 1273              		.cfi_restore 8
 1274              		.cfi_def_cfa 2, 80
 1275 0900 83348103 		ld	s1,56(sp)
 1276              		.cfi_restore 9
 1277              	.LVL143:
 1278 0904 03390103 		ld	s2,48(sp)
 1279              		.cfi_restore 18
 1280 0908 83398102 		ld	s3,40(sp)
 1281              		.cfi_restore 19
 1282              	.LVL144:
 1283 090c 033A0102 		ld	s4,32(sp)
 1284              		.cfi_restore 20
 1285 0910 833A8101 		ld	s5,24(sp)
 1286              		.cfi_restore 21
 1287 0914 033B0101 		ld	s6,16(sp)
 1288              		.cfi_restore 22
 1289 0918 833B8100 		ld	s7,8(sp)
 1290              		.cfi_restore 23
 1291              	.LVL145:
 1292 091c 033C0100 		ld	s8,0(sp)
 1293              		.cfi_restore 24
 1294              	.LVL146:
 1295 0920 13010105 		addi	sp,sp,80
 1296              		.cfi_def_cfa_offset 0
 1297 0924 67800000 		jr	ra
 1298              		.cfi_endproc
 1299              	.LFE33:
 1301              		.section	.rodata.str1.8
 1302 0177 00       		.align	3
 1303              	.LC20:
 1304 0178 0A613120 		.string	"\na1 killRet = "
 1304      6B696C6C 
 1304      52657420 
 1304      3D2000
 1305 0187 00       		.align	3
GAS LISTING /tmp/ccCCjb08.s 			page 37


 1306              	.LC21:
 1307 0188 0A613220 		.string	"\na2 killRet = "
 1307      6B696C6C 
 1307      52657420 
 1307      3D2000
 1308 0197 00       		.align	3
 1309              	.LC22:
 1310 0198 0A4B696C 		.string	"\nKilled a1 and a2!\n"
 1310      6C656420 
 1310      61312061 
 1310      6E642061 
 1310      32210A00 
 1311 01ac 00000000 		.align	3
 1312              	.LC23:
 1313 01b0 0A746872 		.string	"\nthread not found killRet = "
 1313      65616420 
 1313      6E6F7420 
 1313      666F756E 
 1313      64206B69 
 1314 01cd 000000   		.align	3
 1315              	.LC24:
 1316 01d0 0A746872 		.string	"\nthread on semaphore killRet = "
 1316      65616420 
 1316      6F6E2073 
 1316      656D6170 
 1316      686F7265 
 1317              		.align	3
 1318              	.LC25:
 1319 01f0 4572726F 		.string	"Error: Killed self!\n"
 1319      723A204B 
 1319      696C6C65 
 1319      64207365 
 1319      6C66210A 
 1320              		.text
 1321              		.align	2
 1322              		.globl	_Z9modifKillv
 1324              	_Z9modifKillv:
 1325              	.LFB35:
 276:src/main.cpp  ****     _thread* a1;
 1326              		.loc 1 276 1 is_stmt 1
 1327              		.cfi_startproc
 1328 0928 130101FD 		addi	sp,sp,-48
 1329              		.cfi_def_cfa_offset 48
 1330 092c 23341102 		sd	ra,40(sp)
 1331 0930 23308102 		sd	s0,32(sp)
 1332 0934 233C9100 		sd	s1,24(sp)
 1333              		.cfi_offset 1, -8
 1334              		.cfi_offset 8, -16
 1335              		.cfi_offset 9, -24
 1336 0938 13040103 		addi	s0,sp,48
 1337              		.cfi_def_cfa 8, 0
 277:src/main.cpp  ****     _thread* a2;
 1338              		.loc 1 277 5
 278:src/main.cpp  **** 
 1339              		.loc 1 278 5
 280:src/main.cpp  ****     thread_create(&a2, test2, nullptr);
 1340              		.loc 1 280 5
GAS LISTING /tmp/ccCCjb08.s 			page 38


 280:src/main.cpp  ****     thread_create(&a2, test2, nullptr);
 1341              		.loc 1 280 18 is_stmt 0
 1342 093c 13060000 		li	a2,0
 1343 0940 97050000 		lla	a1,_Z4testPv
 1343      93850500 
 1344 0948 130584FD 		addi	a0,s0,-40
 1345 094c 97000000 		call	_Z13thread_createPP7_threadPFvPvES2_@plt
 1345      E7800000 
 1346              	.LVL147:
 281:src/main.cpp  **** 
 1347              		.loc 1 281 5 is_stmt 1
 281:src/main.cpp  **** 
 1348              		.loc 1 281 18 is_stmt 0
 1349 0954 13060000 		li	a2,0
 1350 0958 97050000 		lla	a1,_Z5test2Pv
 1350      93850500 
 1351 0960 130504FD 		addi	a0,s0,-48
 1352 0964 97000000 		call	_Z13thread_createPP7_threadPFvPvES2_@plt
 1352      E7800000 
 1353              	.LVL148:
 283:src/main.cpp  ****     while (i < 3)
 1354              		.loc 1 283 9
 1355 096c 93040000 		li	s1,0
 1356 0970 6F000001 		j	.L68
 1357              	.LVL149:
 1358              	.L70:
 286:src/main.cpp  ****         i++;
 1359              		.loc 1 286 9 is_stmt 1
 286:src/main.cpp  ****         i++;
 1360              		.loc 1 286 24 is_stmt 0
 1361 0974 97000000 		call	_Z15thread_dispatchv@plt
 1361      E7800000 
 1362              	.LVL150:
 287:src/main.cpp  ****     }
 1363              		.loc 1 287 9 is_stmt 1
 287:src/main.cpp  ****     }
 1364              		.loc 1 287 10 is_stmt 0
 1365 097c 9B841400 		addiw	s1,s1,1
 1366              	.LVL151:
 1367              	.L68:
 284:src/main.cpp  ****     {
 1368              		.loc 1 284 5 is_stmt 1
 284:src/main.cpp  ****     {
 1369              		.loc 1 284 14
 1370 0980 93072000 		li	a5,2
 1371 0984 E3D897FE 		ble	s1,a5,.L70
 289:src/main.cpp  ****     killRet = thread_kill(a1->myId);
 1372              		.loc 1 289 5
 290:src/main.cpp  **** 
 1373              		.loc 1 290 5
 290:src/main.cpp  **** 
 1374              		.loc 1 290 26 is_stmt 0
 1375 0988 833784FD 		ld	a5,-40(s0)
 1376 098c 03A5C704 		lw	a0,76(a5)
 1377 0990 97000000 		call	_Z11thread_killi@plt
 1377      E7800000 
 1378              	.LVL152:
GAS LISTING /tmp/ccCCjb08.s 			page 39


 1379 0998 93040500 		mv	s1,a0
 1380              	.LVL153:
 292:src/main.cpp  ****     printInt(killRet);
 1381              		.loc 1 292 5 is_stmt 1
 292:src/main.cpp  ****     printInt(killRet);
 1382              		.loc 1 292 16 is_stmt 0
 1383 099c 17050000 		lla	a0,.LC20
 1383      13050500 
 1384 09a4 97000000 		call	_Z11printStringPKc@plt
 1384      E7800000 
 1385              	.LVL154:
 293:src/main.cpp  **** 
 1386              		.loc 1 293 5 is_stmt 1
 293:src/main.cpp  **** 
 1387              		.loc 1 293 13 is_stmt 0
 1388 09ac 13060000 		li	a2,0
 1389 09b0 9305A000 		li	a1,10
 1390 09b4 13850400 		mv	a0,s1
 1391 09b8 97000000 		call	_Z8printIntiii@plt
 1391      E7800000 
 1392              	.LVL155:
 295:src/main.cpp  ****     printString("\na2 killRet = ");
 1393              		.loc 1 295 5 is_stmt 1
 295:src/main.cpp  ****     printString("\na2 killRet = ");
 1394              		.loc 1 295 26 is_stmt 0
 1395 09c0 833704FD 		ld	a5,-48(s0)
 1396 09c4 03A5C704 		lw	a0,76(a5)
 1397 09c8 97000000 		call	_Z11thread_killi@plt
 1397      E7800000 
 1398              	.LVL156:
 1399 09d0 93040500 		mv	s1,a0
 1400              	.LVL157:
 296:src/main.cpp  ****     printInt(killRet);
 1401              		.loc 1 296 5 is_stmt 1
 296:src/main.cpp  ****     printInt(killRet);
 1402              		.loc 1 296 16 is_stmt 0
 1403 09d4 17050000 		lla	a0,.LC21
 1403      13050500 
 1404 09dc 97000000 		call	_Z11printStringPKc@plt
 1404      E7800000 
 1405              	.LVL158:
 297:src/main.cpp  **** 
 1406              		.loc 1 297 5 is_stmt 1
 297:src/main.cpp  **** 
 1407              		.loc 1 297 13 is_stmt 0
 1408 09e4 13060000 		li	a2,0
 1409 09e8 9305A000 		li	a1,10
 1410 09ec 13850400 		mv	a0,s1
 1411 09f0 97000000 		call	_Z8printIntiii@plt
 1411      E7800000 
 1412              	.LVL159:
 299:src/main.cpp  **** 
 1413              		.loc 1 299 5 is_stmt 1
 299:src/main.cpp  **** 
 1414              		.loc 1 299 16 is_stmt 0
 1415 09f8 17050000 		lla	a0,.LC22
 1415      13050500 
GAS LISTING /tmp/ccCCjb08.s 			page 40


 1416 0a00 97000000 		call	_Z11printStringPKc@plt
 1416      E7800000 
 1417              	.LVL160:
 301:src/main.cpp  ****     printString("\nthread not found killRet = ");
 1418              		.loc 1 301 5 is_stmt 1
 301:src/main.cpp  ****     printString("\nthread not found killRet = ");
 1419              		.loc 1 301 26 is_stmt 0
 1420 0a08 13057000 		li	a0,7
 1421 0a0c 97000000 		call	_Z11thread_killi@plt
 1421      E7800000 
 1422              	.LVL161:
 1423 0a14 93040500 		mv	s1,a0
 1424              	.LVL162:
 302:src/main.cpp  ****     printInt(killRet);
 1425              		.loc 1 302 5 is_stmt 1
 302:src/main.cpp  ****     printInt(killRet);
 1426              		.loc 1 302 16 is_stmt 0
 1427 0a18 17050000 		lla	a0,.LC23
 1427      13050500 
 1428 0a20 97000000 		call	_Z11printStringPKc@plt
 1428      E7800000 
 1429              	.LVL163:
 303:src/main.cpp  ****     printString("\n");
 1430              		.loc 1 303 5 is_stmt 1
 303:src/main.cpp  ****     printString("\n");
 1431              		.loc 1 303 13 is_stmt 0
 1432 0a28 13060000 		li	a2,0
 1433 0a2c 9305A000 		li	a1,10
 1434 0a30 13850400 		mv	a0,s1
 1435 0a34 97000000 		call	_Z8printIntiii@plt
 1435      E7800000 
 1436              	.LVL164:
 304:src/main.cpp  **** 
 1437              		.loc 1 304 5 is_stmt 1
 304:src/main.cpp  **** 
 1438              		.loc 1 304 16 is_stmt 0
 1439 0a3c 17050000 		lla	a0,.LC1
 1439      13050500 
 1440 0a44 97000000 		call	_Z11printStringPKc@plt
 1440      E7800000 
 1441              	.LVL165:
 307:src/main.cpp  ****     thread_create(&threadKillSem, threadKillSemFunction, nullptr);
 1442              		.loc 1 307 5 is_stmt 1
 307:src/main.cpp  ****     thread_create(&threadKillSem, threadKillSemFunction, nullptr);
 1443              		.loc 1 307 13 is_stmt 0
 1444 0a4c 97040000 		lla	s1,.LANCHOR0
 1444      93840400 
 1445              	.LVL166:
 1446 0a54 93050000 		li	a1,0
 1447 0a58 13850400 		mv	a0,s1
 1448 0a5c 97000000 		call	_Z8sem_openPP4_semj@plt
 1448      E7800000 
 1449              	.LVL167:
 308:src/main.cpp  ****     thread_dispatch();
 1450              		.loc 1 308 5 is_stmt 1
 308:src/main.cpp  ****     thread_dispatch();
 1451              		.loc 1 308 18 is_stmt 0
GAS LISTING /tmp/ccCCjb08.s 			page 41


 1452 0a64 13060000 		li	a2,0
 1453 0a68 97050000 		lla	a1,_Z21threadKillSemFunctionPv
 1453      93850500 
 1454 0a70 17050000 		lla	a0,.LANCHOR0+56
 1454      13050500 
 1455 0a78 97000000 		call	_Z13thread_createPP7_threadPFvPvES2_@plt
 1455      E7800000 
 1456              	.LVL168:
 309:src/main.cpp  ****     killRet = thread_kill(threadKillSem->myId);
 1457              		.loc 1 309 5 is_stmt 1
 309:src/main.cpp  ****     killRet = thread_kill(threadKillSem->myId);
 1458              		.loc 1 309 20 is_stmt 0
 1459 0a80 97000000 		call	_Z15thread_dispatchv@plt
 1459      E7800000 
 1460              	.LVL169:
 310:src/main.cpp  **** 
 1461              		.loc 1 310 5 is_stmt 1
 310:src/main.cpp  **** 
 1462              		.loc 1 310 26 is_stmt 0
 1463 0a88 83B78403 		ld	a5,56(s1)
 1464 0a8c 03A5C704 		lw	a0,76(a5)
 1465 0a90 97000000 		call	_Z11thread_killi@plt
 1465      E7800000 
 1466              	.LVL170:
 1467 0a98 93040500 		mv	s1,a0
 1468              	.LVL171:
 312:src/main.cpp  ****     printInt(killRet);
 1469              		.loc 1 312 5 is_stmt 1
 312:src/main.cpp  ****     printInt(killRet);
 1470              		.loc 1 312 16 is_stmt 0
 1471 0a9c 17050000 		lla	a0,.LC24
 1471      13050500 
 1472 0aa4 97000000 		call	_Z11printStringPKc@plt
 1472      E7800000 
 1473              	.LVL172:
 313:src/main.cpp  ****     printString("\n");
 1474              		.loc 1 313 5 is_stmt 1
 313:src/main.cpp  ****     printString("\n");
 1475              		.loc 1 313 13 is_stmt 0
 1476 0aac 13060000 		li	a2,0
 1477 0ab0 9305A000 		li	a1,10
 1478 0ab4 13850400 		mv	a0,s1
 1479 0ab8 97000000 		call	_Z8printIntiii@plt
 1479      E7800000 
 1480              	.LVL173:
 314:src/main.cpp  **** 
 1481              		.loc 1 314 5 is_stmt 1
 314:src/main.cpp  **** 
 1482              		.loc 1 314 16 is_stmt 0
 1483 0ac0 17050000 		lla	a0,.LC1
 1483      13050500 
 1484 0ac8 97000000 		call	_Z11printStringPKc@plt
 1484      E7800000 
 1485              	.LVL174:
 316:src/main.cpp  **** 
 1486              		.loc 1 316 5 is_stmt 1
 316:src/main.cpp  **** 
GAS LISTING /tmp/ccCCjb08.s 			page 42


 1487              		.loc 1 316 16 is_stmt 0
 1488 0ad0 97070000 		la	a5,_ZN7_thread7runningE
 1488      83B70700 
 1489 0ad8 83B70700 		ld	a5,0(a5)
 1490 0adc 03A5C704 		lw	a0,76(a5)
 1491 0ae0 97000000 		call	_Z11thread_killi@plt
 1491      E7800000 
 1492              	.LVL175:
 318:src/main.cpp  **** }
 1493              		.loc 1 318 5 is_stmt 1
 318:src/main.cpp  **** }
 1494              		.loc 1 318 16 is_stmt 0
 1495 0ae8 17050000 		lla	a0,.LC25
 1495      13050500 
 1496 0af0 97000000 		call	_Z11printStringPKc@plt
 1496      E7800000 
 1497              	.LVL176:
 319:src/main.cpp  **** 
 1498              		.loc 1 319 1
 1499 0af8 83308102 		ld	ra,40(sp)
 1500              		.cfi_restore 1
 1501 0afc 03340102 		ld	s0,32(sp)
 1502              		.cfi_restore 8
 1503              		.cfi_def_cfa 2, 48
 1504 0b00 83348101 		ld	s1,24(sp)
 1505              		.cfi_restore 9
 1506              	.LVL177:
 1507 0b04 13010103 		addi	sp,sp,48
 1508              		.cfi_def_cfa_offset 0
 1509 0b08 67800000 		jr	ra
 1510              		.cfi_endproc
 1511              	.LFE35:
 1513              		.section	.rodata.str1.8
 1514 0205 000000   		.align	3
 1515              	.LC26:
 1516 0208 5265736F 		.string	"Resource test started!\n"
 1516      75726365 
 1516      20746573 
 1516      74207374 
 1516      61727465 
 1517              		.text
 1518              		.align	2
 1519              		.globl	_Z13modifResourcev
 1521              	_Z13modifResourcev:
 1522              	.LFB38:
 343:src/main.cpp  ****     }
 344:src/main.cpp  **** }
 345:src/main.cpp  **** 
 346:src/main.cpp  **** void modifResource()
 347:src/main.cpp  **** {
 1523              		.loc 1 347 1 is_stmt 1
 1524              		.cfi_startproc
 1525 0b0c 130101FD 		addi	sp,sp,-48
 1526              		.cfi_def_cfa_offset 48
 1527 0b10 23341102 		sd	ra,40(sp)
 1528 0b14 23308102 		sd	s0,32(sp)
 1529 0b18 233C9100 		sd	s1,24(sp)
GAS LISTING /tmp/ccCCjb08.s 			page 43


 1530              		.cfi_offset 1, -8
 1531              		.cfi_offset 8, -16
 1532              		.cfi_offset 9, -24
 1533 0b1c 13040103 		addi	s0,sp,48
 1534              		.cfi_def_cfa 8, 0
 348:src/main.cpp  ****     _thread* giver;
 1535              		.loc 1 348 5
 349:src/main.cpp  ****     _thread* taker;
 1536              		.loc 1 349 5
 350:src/main.cpp  **** 
 351:src/main.cpp  ****     myResource = resource::createResource(10);
 1537              		.loc 1 351 5
 1538              		.loc 1 351 42 is_stmt 0
 1539 0b20 1305A000 		li	a0,10
 1540 0b24 97000000 		call	_ZN8resource14createResourceEj@plt
 1540      E7800000 
 1541              	.LVL178:
 1542              		.loc 1 351 16
 1543 0b2c 97070000 		sd	a0,.LANCHOR0+32,a5
 1543      23B0A700 
 352:src/main.cpp  **** 
 353:src/main.cpp  ****     thread_create(&giver, resourceGiver, nullptr);
 1544              		.loc 1 353 5 is_stmt 1
 1545              		.loc 1 353 18 is_stmt 0
 1546 0b34 13060000 		li	a2,0
 1547 0b38 97050000 		lla	a1,_Z13resourceGiverPv
 1547      93850500 
 1548 0b40 130584FD 		addi	a0,s0,-40
 1549 0b44 97000000 		call	_Z13thread_createPP7_threadPFvPvES2_@plt
 1549      E7800000 
 1550              	.LVL179:
 354:src/main.cpp  ****     thread_create(&taker, resourceTaker, nullptr);
 1551              		.loc 1 354 5 is_stmt 1
 1552              		.loc 1 354 18 is_stmt 0
 1553 0b4c 13060000 		li	a2,0
 1554 0b50 97050000 		lla	a1,_Z13resourceTakerPv
 1554      93850500 
 1555 0b58 130504FD 		addi	a0,s0,-48
 1556 0b5c 97000000 		call	_Z13thread_createPP7_threadPFvPvES2_@plt
 1556      E7800000 
 1557              	.LVL180:
 355:src/main.cpp  **** 
 356:src/main.cpp  ****     printString("Resource test started!\n");
 1558              		.loc 1 356 5 is_stmt 1
 1559              		.loc 1 356 16 is_stmt 0
 1560 0b64 17050000 		lla	a0,.LC26
 1560      13050500 
 1561 0b6c 97000000 		call	_Z11printStringPKc@plt
 1561      E7800000 
 1562              	.LVL181:
 357:src/main.cpp  ****     thread_dispatch();
 1563              		.loc 1 357 5 is_stmt 1
 1564              		.loc 1 357 20 is_stmt 0
 1565 0b74 97000000 		call	_Z15thread_dispatchv@plt
 1565      E7800000 
 1566              	.LVL182:
 358:src/main.cpp  **** 
GAS LISTING /tmp/ccCCjb08.s 			page 44


 359:src/main.cpp  ****     int i = 0;
 1567              		.loc 1 359 9
 1568 0b7c 93040000 		li	s1,0
 1569              	.L73:
 1570              	.LVL183:
 360:src/main.cpp  ****     while(i < 10)
 1571              		.loc 1 360 5 is_stmt 1
 1572              		.loc 1 360 13
 1573 0b80 93079000 		li	a5,9
 1574 0b84 63CA9700 		bgt	s1,a5,.L72
 361:src/main.cpp  ****     {
 362:src/main.cpp  ****         thread_dispatch();
 1575              		.loc 1 362 9
 1576              		.loc 1 362 24 is_stmt 0
 1577 0b88 97000000 		call	_Z15thread_dispatchv@plt
 1577      E7800000 
 1578              	.LVL184:
 363:src/main.cpp  ****         i++;
 1579              		.loc 1 363 9 is_stmt 1
 1580              		.loc 1 363 10 is_stmt 0
 1581 0b90 9B841400 		addiw	s1,s1,1
 1582              	.LVL185:
 360:src/main.cpp  ****     while(i < 10)
 1583              		.loc 1 360 5
 1584 0b94 6FF0DFFE 		j	.L73
 1585              	.LVL186:
 1586              	.L72:
 364:src/main.cpp  ****     }
 365:src/main.cpp  **** 
 366:src/main.cpp  ****     thread_kill(giver->myId);
 1587              		.loc 1 366 5 is_stmt 1
 1588              		.loc 1 366 16 is_stmt 0
 1589 0b98 833784FD 		ld	a5,-40(s0)
 1590 0b9c 03A5C704 		lw	a0,76(a5)
 1591 0ba0 97000000 		call	_Z11thread_killi@plt
 1591      E7800000 
 1592              	.LVL187:
 367:src/main.cpp  ****     thread_kill(taker->myId);
 1593              		.loc 1 367 5 is_stmt 1
 1594              		.loc 1 367 16 is_stmt 0
 1595 0ba8 833704FD 		ld	a5,-48(s0)
 1596 0bac 03A5C704 		lw	a0,76(a5)
 1597 0bb0 97000000 		call	_Z11thread_killi@plt
 1597      E7800000 
 1598              	.LVL188:
 368:src/main.cpp  **** }
 1599              		.loc 1 368 1
 1600 0bb8 83308102 		ld	ra,40(sp)
 1601              		.cfi_restore 1
 1602 0bbc 03340102 		ld	s0,32(sp)
 1603              		.cfi_restore 8
 1604              		.cfi_def_cfa 2, 48
 1605 0bc0 83348101 		ld	s1,24(sp)
 1606              		.cfi_restore 9
 1607              	.LVL189:
 1608 0bc4 13010103 		addi	sp,sp,48
 1609              		.cfi_def_cfa_offset 0
GAS LISTING /tmp/ccCCjb08.s 			page 45


 1610 0bc8 67800000 		jr	ra
 1611              		.cfi_endproc
 1612              	.LFE38:
 1614              		.align	2
 1615              		.globl	_Z11mainWrapperPv
 1617              	_Z11mainWrapperPv:
 1618              	.LFB39:
 369:src/main.cpp  **** 
 370:src/main.cpp  **** 
 371:src/main.cpp  **** void mainWrapper(void*)
 372:src/main.cpp  **** {
 1619              		.loc 1 372 1 is_stmt 1
 1620              		.cfi_startproc
 1621 0bcc 130101FF 		addi	sp,sp,-16
 1622              		.cfi_def_cfa_offset 16
 1623 0bd0 23341100 		sd	ra,8(sp)
 1624 0bd4 23308100 		sd	s0,0(sp)
 1625              		.cfi_offset 1, -8
 1626              		.cfi_offset 8, -16
 1627 0bd8 13040101 		addi	s0,sp,16
 1628              		.cfi_def_cfa 8, 0
 373:src/main.cpp  ****     //exec(ping, reinterpret_cast<void *>(1));
 374:src/main.cpp  ****     // prosliMain();
 375:src/main.cpp  ****     // userMain();
 376:src/main.cpp  ****     // modifMatrica();
 377:src/main.cpp  ****     // modifKill();
 378:src/main.cpp  ****     modifResource();
 1629              		.loc 1 378 5
 1630              		.loc 1 378 18 is_stmt 0
 1631 0bdc 97000000 		call	_Z13modifResourcev
 1631      E7800000 
 1632              	.LVL190:
 379:src/main.cpp  **** }
 1633              		.loc 1 379 1
 1634 0be4 83308100 		ld	ra,8(sp)
 1635              		.cfi_restore 1
 1636 0be8 03340100 		ld	s0,0(sp)
 1637              		.cfi_restore 8
 1638              		.cfi_def_cfa 2, 16
 1639 0bec 13010101 		addi	sp,sp,16
 1640              		.cfi_def_cfa_offset 0
 1641 0bf0 67800000 		jr	ra
 1642              		.cfi_endproc
 1643              	.LFE39:
 1645              		.align	2
 1646              		.globl	main
 1648              	main:
 1649              	.LFB40:
 380:src/main.cpp  **** 
 381:src/main.cpp  **** 
 382:src/main.cpp  **** void main()
 383:src/main.cpp  **** {
 1650              		.loc 1 383 1 is_stmt 1
 1651              		.cfi_startproc
 1652 0bf4 130101FD 		addi	sp,sp,-48
 1653              		.cfi_def_cfa_offset 48
 1654 0bf8 23341102 		sd	ra,40(sp)
GAS LISTING /tmp/ccCCjb08.s 			page 46


 1655 0bfc 23308102 		sd	s0,32(sp)
 1656              		.cfi_offset 1, -8
 1657              		.cfi_offset 8, -16
 1658 0c00 13040103 		addi	s0,sp,48
 1659              		.cfi_def_cfa 8, 0
 384:src/main.cpp  ****     MemoryAllocator::initialise();
 1660              		.loc 1 384 5
 1661              		.loc 1 384 32 is_stmt 0
 1662 0c04 97000000 		call	_ZN15MemoryAllocator10initialiseEv@plt
 1662      E7800000 
 1663              	.LVL191:
 385:src/main.cpp  **** 
 386:src/main.cpp  ****     Riscv::w_stvec((uint64) &Riscv::supervisorTrap);
 1664              		.loc 1 386 5 is_stmt 1
 1665              		.loc 1 386 19 is_stmt 0
 1666 0c0c 97070000 		la	a5,_ZN5Riscv14supervisorTrapEv
 1666      83B70700 
 1667              	.LVL192:
 1668              	.LBB22:
 1669              	.LBB23:
 1670              		.file 2 "src/../h/../test/../h/../h/riscv.hpp"
   1:src/../h/../test/../h/../h/riscv.hpp **** 
   2:src/../h/../test/../h/../h/riscv.hpp **** #ifndef OS1_VEZBE07_RISCV_CONTEXT_SWITCH_2_INTERRUPT_RISCV_HPP
   3:src/../h/../test/../h/../h/riscv.hpp **** #define OS1_VEZBE07_RISCV_CONTEXT_SWITCH_2_INTERRUPT_RISCV_HPP
   4:src/../h/../test/../h/../h/riscv.hpp **** 
   5:src/../h/../test/../h/../h/riscv.hpp **** #include "../lib/hw.h"
   6:src/../h/../test/../h/../h/riscv.hpp **** 
   7:src/../h/../test/../h/../h/riscv.hpp **** class Riscv
   8:src/../h/../test/../h/../h/riscv.hpp **** {
   9:src/../h/../test/../h/../h/riscv.hpp **** public:
  10:src/../h/../test/../h/../h/riscv.hpp **** 
  11:src/../h/../test/../h/../h/riscv.hpp ****     // pop sstatus.spp and sstatus.spie bits (has to be a non inline function)
  12:src/../h/../test/../h/../h/riscv.hpp ****     static void popSppSpie();
  13:src/../h/../test/../h/../h/riscv.hpp **** 
  14:src/../h/../test/../h/../h/riscv.hpp ****     // read register scause
  15:src/../h/../test/../h/../h/riscv.hpp ****     static uint64 r_scause();
  16:src/../h/../test/../h/../h/riscv.hpp **** 
  17:src/../h/../test/../h/../h/riscv.hpp ****     // write register scause
  18:src/../h/../test/../h/../h/riscv.hpp ****     static void w_scause(uint64 scause);
  19:src/../h/../test/../h/../h/riscv.hpp **** 
  20:src/../h/../test/../h/../h/riscv.hpp ****     // read register sepc
  21:src/../h/../test/../h/../h/riscv.hpp ****     static uint64 r_sepc();
  22:src/../h/../test/../h/../h/riscv.hpp **** 
  23:src/../h/../test/../h/../h/riscv.hpp ****     // write register sepc
  24:src/../h/../test/../h/../h/riscv.hpp ****     static void w_sepc(uint64 sepc);
  25:src/../h/../test/../h/../h/riscv.hpp **** 
  26:src/../h/../test/../h/../h/riscv.hpp ****     // read register stvec
  27:src/../h/../test/../h/../h/riscv.hpp ****     static uint64 r_stvec();
  28:src/../h/../test/../h/../h/riscv.hpp **** 
  29:src/../h/../test/../h/../h/riscv.hpp ****     // write register stvec
  30:src/../h/../test/../h/../h/riscv.hpp ****     static void w_stvec(uint64 stvec);
  31:src/../h/../test/../h/../h/riscv.hpp **** 
  32:src/../h/../test/../h/../h/riscv.hpp ****     // read register stval
  33:src/../h/../test/../h/../h/riscv.hpp ****     static uint64 r_stval();
  34:src/../h/../test/../h/../h/riscv.hpp **** 
  35:src/../h/../test/../h/../h/riscv.hpp ****     // write register stval
  36:src/../h/../test/../h/../h/riscv.hpp ****     static void w_stval(uint64 stval);
GAS LISTING /tmp/ccCCjb08.s 			page 47


  37:src/../h/../test/../h/../h/riscv.hpp **** 
  38:src/../h/../test/../h/../h/riscv.hpp ****     enum BitMaskSip
  39:src/../h/../test/../h/../h/riscv.hpp ****     {
  40:src/../h/../test/../h/../h/riscv.hpp ****         SIP_SSIP = (1 << 1),
  41:src/../h/../test/../h/../h/riscv.hpp ****         SIP_STIP = (1 << 5),
  42:src/../h/../test/../h/../h/riscv.hpp ****         SIP_SEIP = (1 << 9),
  43:src/../h/../test/../h/../h/riscv.hpp ****     };
  44:src/../h/../test/../h/../h/riscv.hpp **** 
  45:src/../h/../test/../h/../h/riscv.hpp ****     // mask set register sip
  46:src/../h/../test/../h/../h/riscv.hpp ****     static void ms_sip(uint64 mask);
  47:src/../h/../test/../h/../h/riscv.hpp **** 
  48:src/../h/../test/../h/../h/riscv.hpp ****     // mask clear register sip
  49:src/../h/../test/../h/../h/riscv.hpp ****     static void mc_sip(uint64 mask);
  50:src/../h/../test/../h/../h/riscv.hpp **** 
  51:src/../h/../test/../h/../h/riscv.hpp ****     // read register sip
  52:src/../h/../test/../h/../h/riscv.hpp ****     static uint64 r_sip();
  53:src/../h/../test/../h/../h/riscv.hpp **** 
  54:src/../h/../test/../h/../h/riscv.hpp ****     // write register sip
  55:src/../h/../test/../h/../h/riscv.hpp ****     static void w_sip(uint64 sip);
  56:src/../h/../test/../h/../h/riscv.hpp **** 
  57:src/../h/../test/../h/../h/riscv.hpp ****     enum BitMaskSstatus
  58:src/../h/../test/../h/../h/riscv.hpp ****     {
  59:src/../h/../test/../h/../h/riscv.hpp ****         SSTATUS_SIE = (1 << 1),
  60:src/../h/../test/../h/../h/riscv.hpp ****         SSTATUS_SPIE = (1 << 5),
  61:src/../h/../test/../h/../h/riscv.hpp ****         SSTATUS_SPP = (1 << 8),
  62:src/../h/../test/../h/../h/riscv.hpp ****     };
  63:src/../h/../test/../h/../h/riscv.hpp **** 
  64:src/../h/../test/../h/../h/riscv.hpp ****     // mask set register sstatus
  65:src/../h/../test/../h/../h/riscv.hpp ****     static void ms_sstatus(uint64 mask);
  66:src/../h/../test/../h/../h/riscv.hpp **** 
  67:src/../h/../test/../h/../h/riscv.hpp ****     // mask clear register sstatus
  68:src/../h/../test/../h/../h/riscv.hpp ****     static void mc_sstatus(uint64 mask);
  69:src/../h/../test/../h/../h/riscv.hpp **** 
  70:src/../h/../test/../h/../h/riscv.hpp ****     // read register sstatus
  71:src/../h/../test/../h/../h/riscv.hpp ****     static uint64 r_sstatus();
  72:src/../h/../test/../h/../h/riscv.hpp **** 
  73:src/../h/../test/../h/../h/riscv.hpp ****     // write register sstatus
  74:src/../h/../test/../h/../h/riscv.hpp ****     static void w_sstatus(uint64 sstatus);
  75:src/../h/../test/../h/../h/riscv.hpp **** 
  76:src/../h/../test/../h/../h/riscv.hpp ****     // supervisor trap
  77:src/../h/../test/../h/../h/riscv.hpp ****     static void supervisorTrap();
  78:src/../h/../test/../h/../h/riscv.hpp **** 
  79:src/../h/../test/../h/../h/riscv.hpp **** private:
  80:src/../h/../test/../h/../h/riscv.hpp **** 
  81:src/../h/../test/../h/../h/riscv.hpp ****     // supervisor trap handler
  82:src/../h/../test/../h/../h/riscv.hpp ****     static void handleSupervisorTrap();
  83:src/../h/../test/../h/../h/riscv.hpp **** 
  84:src/../h/../test/../h/../h/riscv.hpp **** };
  85:src/../h/../test/../h/../h/riscv.hpp **** 
  86:src/../h/../test/../h/../h/riscv.hpp **** inline uint64 Riscv::r_scause()
  87:src/../h/../test/../h/../h/riscv.hpp **** {
  88:src/../h/../test/../h/../h/riscv.hpp ****     uint64 volatile scause;
  89:src/../h/../test/../h/../h/riscv.hpp ****     __asm__ volatile ("csrr %[scause], scause" : [scause] "=r"(scause));
  90:src/../h/../test/../h/../h/riscv.hpp ****     return scause;
  91:src/../h/../test/../h/../h/riscv.hpp **** }
  92:src/../h/../test/../h/../h/riscv.hpp **** 
  93:src/../h/../test/../h/../h/riscv.hpp **** inline void Riscv::w_scause(uint64 scause)
GAS LISTING /tmp/ccCCjb08.s 			page 48


  94:src/../h/../test/../h/../h/riscv.hpp **** {
  95:src/../h/../test/../h/../h/riscv.hpp ****     __asm__ volatile ("csrw scause, %[scause]" : : [scause] "r"(scause));
  96:src/../h/../test/../h/../h/riscv.hpp **** }
  97:src/../h/../test/../h/../h/riscv.hpp **** 
  98:src/../h/../test/../h/../h/riscv.hpp **** inline uint64 Riscv::r_sepc()
  99:src/../h/../test/../h/../h/riscv.hpp **** {
 100:src/../h/../test/../h/../h/riscv.hpp ****     uint64 volatile sepc;
 101:src/../h/../test/../h/../h/riscv.hpp ****     __asm__ volatile ("csrr %[sepc], sepc" : [sepc] "=r"(sepc));
 102:src/../h/../test/../h/../h/riscv.hpp ****     return sepc;
 103:src/../h/../test/../h/../h/riscv.hpp **** }
 104:src/../h/../test/../h/../h/riscv.hpp **** 
 105:src/../h/../test/../h/../h/riscv.hpp **** inline void Riscv::w_sepc(uint64 sepc)
 106:src/../h/../test/../h/../h/riscv.hpp **** {
 107:src/../h/../test/../h/../h/riscv.hpp ****     __asm__ volatile ("csrw sepc, %[sepc]" : : [sepc] "r"(sepc));
 108:src/../h/../test/../h/../h/riscv.hpp **** }
 109:src/../h/../test/../h/../h/riscv.hpp **** 
 110:src/../h/../test/../h/../h/riscv.hpp **** inline uint64 Riscv::r_stvec()
 111:src/../h/../test/../h/../h/riscv.hpp **** {
 112:src/../h/../test/../h/../h/riscv.hpp ****     uint64 volatile stvec;
 113:src/../h/../test/../h/../h/riscv.hpp ****     __asm__ volatile ("csrr %[stvec], stvec" : [stvec] "=r"(stvec));
 114:src/../h/../test/../h/../h/riscv.hpp ****     return stvec;
 115:src/../h/../test/../h/../h/riscv.hpp **** }
 116:src/../h/../test/../h/../h/riscv.hpp **** 
 117:src/../h/../test/../h/../h/riscv.hpp **** inline void Riscv::w_stvec(uint64 stvec)
 118:src/../h/../test/../h/../h/riscv.hpp **** {
 119:src/../h/../test/../h/../h/riscv.hpp ****     __asm__ volatile ("csrw stvec, %[stvec]" : : [stvec] "r"(stvec));
 1671              		.loc 2 119 5 is_stmt 1
 1672              		.loc 2 119 69 is_stmt 0
 1673              	#APP
 1674              	# 119 "src/../h/../test/../h/../h/riscv.hpp" 1
 120              	}
 1675              		csrw stvec, a5
 1676              	# 0 "" 2
 1677              	.LVL193:
 1678              	#NO_APP
 1679              	.LBE23:
 1680              	.LBE22:
 387:src/main.cpp  **** 
 388:src/main.cpp  ****     uint64 sstatus = Riscv::r_sstatus();
 1681              		.loc 1 388 5 is_stmt 1
 1682              	.LBB24:
 1683              	.LBB25:
 121:src/../h/../test/../h/../h/riscv.hpp **** 
 122:src/../h/../test/../h/../h/riscv.hpp **** inline uint64 Riscv::r_stval()
 123:src/../h/../test/../h/../h/riscv.hpp **** {
 124:src/../h/../test/../h/../h/riscv.hpp ****     uint64 volatile stval;
 125:src/../h/../test/../h/../h/riscv.hpp ****     __asm__ volatile ("csrr %[stval], stval" : [stval] "=r"(stval));
 126:src/../h/../test/../h/../h/riscv.hpp ****     return stval;
 127:src/../h/../test/../h/../h/riscv.hpp **** }
 128:src/../h/../test/../h/../h/riscv.hpp **** 
 129:src/../h/../test/../h/../h/riscv.hpp **** inline void Riscv::w_stval(uint64 stval)
 130:src/../h/../test/../h/../h/riscv.hpp **** {
 131:src/../h/../test/../h/../h/riscv.hpp ****     __asm__ volatile ("csrw stval, %[stval]" : : [stval] "r"(stval));
 132:src/../h/../test/../h/../h/riscv.hpp **** }
 133:src/../h/../test/../h/../h/riscv.hpp **** 
 134:src/../h/../test/../h/../h/riscv.hpp **** inline void Riscv::ms_sip(uint64 mask)
 135:src/../h/../test/../h/../h/riscv.hpp **** {
GAS LISTING /tmp/ccCCjb08.s 			page 49


 136:src/../h/../test/../h/../h/riscv.hpp ****     __asm__ volatile ("csrs sip, %[mask]" : : [mask] "r"(mask));
 137:src/../h/../test/../h/../h/riscv.hpp **** }
 138:src/../h/../test/../h/../h/riscv.hpp **** 
 139:src/../h/../test/../h/../h/riscv.hpp **** inline void Riscv::mc_sip(uint64 mask)
 140:src/../h/../test/../h/../h/riscv.hpp **** {
 141:src/../h/../test/../h/../h/riscv.hpp ****     __asm__ volatile ("csrc sip, %[mask]" : : [mask] "r"(mask));
 142:src/../h/../test/../h/../h/riscv.hpp **** }
 143:src/../h/../test/../h/../h/riscv.hpp **** 
 144:src/../h/../test/../h/../h/riscv.hpp **** inline uint64 Riscv::r_sip()
 145:src/../h/../test/../h/../h/riscv.hpp **** {
 146:src/../h/../test/../h/../h/riscv.hpp ****     uint64 volatile sip;
 147:src/../h/../test/../h/../h/riscv.hpp ****     __asm__ volatile ("csrr %[sip], sip" : [sip] "=r"(sip));
 148:src/../h/../test/../h/../h/riscv.hpp ****     return sip;
 149:src/../h/../test/../h/../h/riscv.hpp **** }
 150:src/../h/../test/../h/../h/riscv.hpp **** 
 151:src/../h/../test/../h/../h/riscv.hpp **** inline void Riscv::w_sip(uint64 sip)
 152:src/../h/../test/../h/../h/riscv.hpp **** {
 153:src/../h/../test/../h/../h/riscv.hpp ****     __asm__ volatile ("csrw sip, %[sip]" : : [sip] "r"(sip));
 154:src/../h/../test/../h/../h/riscv.hpp **** }
 155:src/../h/../test/../h/../h/riscv.hpp **** 
 156:src/../h/../test/../h/../h/riscv.hpp **** inline void Riscv::ms_sstatus(uint64 mask)
 157:src/../h/../test/../h/../h/riscv.hpp **** {
 158:src/../h/../test/../h/../h/riscv.hpp ****     __asm__ volatile ("csrs sstatus, %[mask]" : : [mask] "r"(mask));
 159:src/../h/../test/../h/../h/riscv.hpp **** }
 160:src/../h/../test/../h/../h/riscv.hpp **** 
 161:src/../h/../test/../h/../h/riscv.hpp **** inline void Riscv::mc_sstatus(uint64 mask)
 162:src/../h/../test/../h/../h/riscv.hpp **** {
 163:src/../h/../test/../h/../h/riscv.hpp ****     __asm__ volatile ("csrc sstatus, %[mask]" : : [mask] "r"(mask));
 164:src/../h/../test/../h/../h/riscv.hpp **** }
 165:src/../h/../test/../h/../h/riscv.hpp **** 
 166:src/../h/../test/../h/../h/riscv.hpp **** inline uint64 Riscv::r_sstatus()
 167:src/../h/../test/../h/../h/riscv.hpp **** {
 168:src/../h/../test/../h/../h/riscv.hpp ****     uint64 volatile sstatus;
 1684              		.loc 2 168 5
 169:src/../h/../test/../h/../h/riscv.hpp ****     __asm__ volatile ("csrr %[sstatus], sstatus" : [sstatus] "=r"(sstatus));
 1685              		.loc 2 169 5
 1686              		.loc 2 169 76 is_stmt 0
 1687              	#APP
 1688              	# 169 "src/../h/../test/../h/../h/riscv.hpp" 1
 170              	    return sstatus;
 1689              		csrr a5, sstatus
 1690              	# 0 "" 2
 1691              	#NO_APP
 1692 0c1c 233CF4FC 		sd	a5,-40(s0)
 1693              		.loc 2 170 5 is_stmt 1
 1694              		.loc 2 170 12 is_stmt 0
 1695 0c20 833784FD 		ld	a5,-40(s0)
 1696              	.LVL194:
 1697              	.LBE25:
 1698              	.LBE24:
 389:src/main.cpp  ****     sstatus |= Riscv::SSTATUS_SIE;
 1699              		.loc 1 389 5 is_stmt 1
 390:src/main.cpp  ****     sstatus |= Riscv::SSTATUS_SPP;
 1700              		.loc 1 390 5
 1701              		.loc 1 390 13 is_stmt 0
 1702 0c24 93E72710 		ori	a5,a5,258
 1703              	.LVL195:
GAS LISTING /tmp/ccCCjb08.s 			page 50


 391:src/main.cpp  ****     Riscv::ms_sstatus(sstatus);
 1704              		.loc 1 391 5 is_stmt 1
 1705              	.LBB26:
 1706              	.LBB27:
 158:src/../h/../test/../h/../h/riscv.hpp **** }
 1707              		.loc 2 158 5
 158:src/../h/../test/../h/../h/riscv.hpp **** }
 1708              		.loc 2 158 68 is_stmt 0
 1709              	#APP
 1710              	# 158 "src/../h/../test/../h/../h/riscv.hpp" 1
 1711              		csrs sstatus, a5
 1712              	# 0 "" 2
 1713              	.LVL196:
 1714              	#NO_APP
 1715              	.LBE27:
 1716              	.LBE26:
 392:src/main.cpp  **** 
 393:src/main.cpp  ****     thread_t handle = nullptr;
 1717              		.loc 1 393 5 is_stmt 1
 1718              		.loc 1 393 14 is_stmt 0
 1719 0c2c 233404FE 		sd	zero,-24(s0)
 394:src/main.cpp  ****     thread_t userMainHandle = nullptr;
 1720              		.loc 1 394 5 is_stmt 1
 1721              		.loc 1 394 14 is_stmt 0
 1722 0c30 233004FE 		sd	zero,-32(s0)
 395:src/main.cpp  **** 
 396:src/main.cpp  ****     thread_create(&handle, nullptr, nullptr);
 1723              		.loc 1 396 5 is_stmt 1
 1724              		.loc 1 396 18 is_stmt 0
 1725 0c34 13060000 		li	a2,0
 1726 0c38 93050000 		li	a1,0
 1727 0c3c 130584FE 		addi	a0,s0,-24
 1728 0c40 97000000 		call	_Z13thread_createPP7_threadPFvPvES2_@plt
 1728      E7800000 
 1729              	.LVL197:
 397:src/main.cpp  ****     _thread::running = handle;
 1730              		.loc 1 397 5 is_stmt 1
 1731              		.loc 1 397 22 is_stmt 0
 1732 0c48 97070000 		la	a5,_ZN7_thread7runningE
 1732      83B70700 
 1733 0c50 033784FE 		ld	a4,-24(s0)
 1734 0c54 23B0E700 		sd	a4,0(a5)
 398:src/main.cpp  **** 
 399:src/main.cpp  **** 
 400:src/main.cpp  ****     thread_create(&userMainHandle, mainWrapper, nullptr);
 1735              		.loc 1 400 5 is_stmt 1
 1736              		.loc 1 400 18 is_stmt 0
 1737 0c58 13060000 		li	a2,0
 1738 0c5c 97050000 		lla	a1,_Z11mainWrapperPv
 1738      93850500 
 1739 0c64 130504FE 		addi	a0,s0,-32
 1740 0c68 97000000 		call	_Z13thread_createPP7_threadPFvPvES2_@plt
 1740      E7800000 
 1741              	.LVL198:
 401:src/main.cpp  **** 
 402:src/main.cpp  **** //    printString("\nMain Thread: ");
 403:src/main.cpp  **** //    printInt((size_t)handle);
GAS LISTING /tmp/ccCCjb08.s 			page 51


 404:src/main.cpp  **** //    printString("\n");
 405:src/main.cpp  **** 
 406:src/main.cpp  **** //    Scheduler::readyThreadQueue.printAll();
 407:src/main.cpp  **** //    printString("\nPre join-a\n\n");
 408:src/main.cpp  **** 
 409:src/main.cpp  ****     enterUserMode();
 1742              		.loc 1 409 5 is_stmt 1
 1743              		.loc 1 409 18 is_stmt 0
 1744 0c70 97000000 		call	_Z13enterUserModev@plt
 1744      E7800000 
 1745              	.LVL199:
 410:src/main.cpp  ****     thread_join(userMainHandle);
 1746              		.loc 1 410 5 is_stmt 1
 1747              		.loc 1 410 16 is_stmt 0
 1748 0c78 033504FE 		ld	a0,-32(s0)
 1749 0c7c 97000000 		call	_Z11thread_joinP7_thread@plt
 1749      E7800000 
 1750              	.LVL200:
 411:src/main.cpp  **** //    printString("\nPosle join-a\n\n");
 412:src/main.cpp  **** //    Scheduler::readyThreadQueue.printAll();
 413:src/main.cpp  **** }
 1751              		.loc 1 413 1
 1752 0c84 83308102 		ld	ra,40(sp)
 1753              		.cfi_restore 1
 1754 0c88 03340102 		ld	s0,32(sp)
 1755              		.cfi_restore 8
 1756              		.cfi_def_cfa 2, 48
 1757 0c8c 13010103 		addi	sp,sp,48
 1758              		.cfi_def_cfa_offset 0
 1759 0c90 67800000 		jr	ra
 1760              		.cfi_endproc
 1761              	.LFE40:
 1763              		.globl	myResource
 1764              		.globl	killSem
 1765              		.globl	threadKillSem
 1766              		.globl	id
 1767              		.globl	buffer
 1768              		.globl	full
 1769              		.globl	empty
 1770              		.globl	globalThread2
 1771              		.globl	globalThread1
 1772              		.data
 1773              		.align	3
 1774              		.set	.LANCHOR1,. + 0
 1777              	id:
 1778 0000 01000000 		.dword	1
 1778      00000000 
 1779              		.bss
 1780              		.align	3
 1781              		.set	.LANCHOR0,. + 0
 1784              	killSem:
 1785 0000 00000000 		.zero	8
 1785      00000000 
 1788              	full:
 1789 0008 00000000 		.zero	8
 1789      00000000 
 1792              	buffer:
GAS LISTING /tmp/ccCCjb08.s 			page 52


 1793 0010 00000000 		.zero	4
 1794 0014 00000000 		.zero	4
 1797              	empty:
 1798 0018 00000000 		.zero	8
 1798      00000000 
 1801              	myResource:
 1802 0020 00000000 		.zero	8
 1802      00000000 
 1805              	globalThread1:
 1806 0028 00000000 		.zero	8
 1806      00000000 
 1809              	globalThread2:
 1810 0030 00000000 		.zero	8
 1810      00000000 
 1813              	threadKillSem:
 1814 0038 00000000 		.zero	8
 1814      00000000 
 1815              		.text
 1816              	.Letext0:
 1817              		.file 3 "src/../h/../test/../h/../lib/hw.h"
 1818              		.file 4 "src/../h/../test/../h/../h/thread.hpp"
 1819              		.file 5 "src/../h/../test/../h/../h/sem.hpp"
 1820              		.file 6 "src/../h/MemoryAllocator.hpp"
 1821              		.file 7 "src/../h/resource.hpp"
 1822              		.file 8 "src/../h/../test/../h/syscall_c.hpp"
 1823              		.file 9 "src/../h/../test/printing.hpp"
GAS LISTING /tmp/ccCCjb08.s 			page 53


DEFINED SYMBOLS
                            *ABS*:0000000000000000 main.cpp
     /tmp/ccCCjb08.s:17     .text:0000000000000000 _Z4testPv
     /tmp/ccCCjb08.s:21     .text:0000000000000000 .L0 
     /tmp/ccCCjb08.s:22     .text:0000000000000000 .L0 
     /tmp/ccCCjb08.s:23     .text:0000000000000004 .L0 
     /tmp/ccCCjb08.s:27     .text:0000000000000010 .L0 
     /tmp/ccCCjb08.s:28     .text:0000000000000010 .L0 
     /tmp/ccCCjb08.s:29     .text:0000000000000010 .L0 
     /tmp/ccCCjb08.s:31     .text:0000000000000014 .L0 
     /tmp/ccCCjb08.s:34     .text:0000000000000014 .L0 
     /tmp/ccCCjb08.s:35     .text:0000000000000014 .L0 
     /tmp/ccCCjb08.s:40     .text:000000000000001c .L0 
     /tmp/ccCCjb08.s:41     .text:000000000000001c .L0 
     /tmp/ccCCjb08.s:45     .text:0000000000000024 .L0 
     /tmp/ccCCjb08.s:46     .text:0000000000000024 .L0 
     /tmp/ccCCjb08.s:50     .text:0000000000000028 .L0 
     /tmp/ccCCjb08.s:51     .text:0000000000000028 .L0 
     /tmp/ccCCjb08.s:52     .text:0000000000000028 .L0 
     /tmp/ccCCjb08.s:53     .text:0000000000000028 .L0 
     /tmp/ccCCjb08.s:57     .text:0000000000000038 .L0 
     /tmp/ccCCjb08.s:58     .text:0000000000000038 .L0 
     /tmp/ccCCjb08.s:64     .text:000000000000004c .L0 
     /tmp/ccCCjb08.s:65     .text:000000000000004c .L0 
     /tmp/ccCCjb08.s:69     .text:000000000000005c .L0 
     /tmp/ccCCjb08.s:70     .text:000000000000005c .L0 
     /tmp/ccCCjb08.s:73     .text:0000000000000064 .L0 
     /tmp/ccCCjb08.s:75     .text:000000000000006c .L0 
     /tmp/ccCCjb08.s:86     .text:000000000000006c _Z5test2Pv
     /tmp/ccCCjb08.s:89     .text:000000000000006c .L0 
     /tmp/ccCCjb08.s:90     .text:000000000000006c .L0 
     /tmp/ccCCjb08.s:91     .text:0000000000000070 .L0 
     /tmp/ccCCjb08.s:95     .text:000000000000007c .L0 
     /tmp/ccCCjb08.s:96     .text:000000000000007c .L0 
     /tmp/ccCCjb08.s:97     .text:000000000000007c .L0 
     /tmp/ccCCjb08.s:99     .text:0000000000000080 .L0 
     /tmp/ccCCjb08.s:102    .text:0000000000000080 .L0 
     /tmp/ccCCjb08.s:103    .text:0000000000000080 .L0 
     /tmp/ccCCjb08.s:108    .text:0000000000000088 .L0 
     /tmp/ccCCjb08.s:109    .text:0000000000000088 .L0 
     /tmp/ccCCjb08.s:113    .text:0000000000000090 .L0 
     /tmp/ccCCjb08.s:114    .text:0000000000000090 .L0 
     /tmp/ccCCjb08.s:118    .text:0000000000000094 .L0 
     /tmp/ccCCjb08.s:119    .text:0000000000000094 .L0 
     /tmp/ccCCjb08.s:122    .text:000000000000009c .L0 
     /tmp/ccCCjb08.s:123    .text:000000000000009c .L0 
     /tmp/ccCCjb08.s:127    .text:00000000000000ac .L0 
     /tmp/ccCCjb08.s:128    .text:00000000000000ac .L0 
     /tmp/ccCCjb08.s:134    .text:00000000000000c0 .L0 
     /tmp/ccCCjb08.s:135    .text:00000000000000c0 .L0 
     /tmp/ccCCjb08.s:139    .text:00000000000000d0 .L0 
     /tmp/ccCCjb08.s:140    .text:00000000000000d0 .L0 
     /tmp/ccCCjb08.s:143    .text:00000000000000d8 .L0 
     /tmp/ccCCjb08.s:147    .text:00000000000000e0 .L0 
     /tmp/ccCCjb08.s:148    .text:00000000000000e4 .L0 
     /tmp/ccCCjb08.s:150    .text:00000000000000e8 .L0 
     /tmp/ccCCjb08.s:151    .text:00000000000000e8 .L0 
GAS LISTING /tmp/ccCCjb08.s 			page 54


     /tmp/ccCCjb08.s:153    .text:00000000000000ec .L0 
     /tmp/ccCCjb08.s:156    .text:00000000000000f0 .L0 
     /tmp/ccCCjb08.s:158    .text:00000000000000f4 .L0 
     /tmp/ccCCjb08.s:169    .text:00000000000000f4 _Z4pingPv
     /tmp/ccCCjb08.s:172    .text:00000000000000f4 .L0 
     /tmp/ccCCjb08.s:174    .text:00000000000000f4 .L0 
     /tmp/ccCCjb08.s:175    .text:00000000000000f8 .L0 
     /tmp/ccCCjb08.s:179    .text:0000000000000104 .L0 
     /tmp/ccCCjb08.s:180    .text:0000000000000104 .L0 
     /tmp/ccCCjb08.s:181    .text:0000000000000104 .L0 
     /tmp/ccCCjb08.s:183    .text:0000000000000108 .L0 
     /tmp/ccCCjb08.s:187    .text:000000000000010c .L0 
     /tmp/ccCCjb08.s:188    .text:000000000000010c .L0 
     /tmp/ccCCjb08.s:189    .text:000000000000010c .L0 
     /tmp/ccCCjb08.s:194    .text:000000000000011c .L0 
     /tmp/ccCCjb08.s:195    .text:000000000000011c .L0 
     /tmp/ccCCjb08.s:201    .text:0000000000000130 .L0 
     /tmp/ccCCjb08.s:202    .text:0000000000000130 .L0 
     /tmp/ccCCjb08.s:206    .text:0000000000000140 .L0 
     /tmp/ccCCjb08.s:210    .text:0000000000000148 .L0 
     /tmp/ccCCjb08.s:211    .text:000000000000014c .L0 
     /tmp/ccCCjb08.s:212    .text:000000000000014c .L0 
     /tmp/ccCCjb08.s:214    .text:0000000000000150 .L0 
     /tmp/ccCCjb08.s:215    .text:0000000000000150 .L0 
     /tmp/ccCCjb08.s:217    .text:0000000000000154 .L0 
     /tmp/ccCCjb08.s:220    .text:0000000000000158 .L0 
     /tmp/ccCCjb08.s:224    .text:000000000000015c .L0 
     /tmp/ccCCjb08.s:226    .text:000000000000015c .L0 
     /tmp/ccCCjb08.s:227    .text:000000000000015c .L0 
     /tmp/ccCCjb08.s:243    .text:0000000000000174 _Z4pongPv
     /tmp/ccCCjb08.s:232    .text:0000000000000174 .L0 
     /tmp/ccCCjb08.s:246    .text:0000000000000174 .L0 
     /tmp/ccCCjb08.s:248    .text:0000000000000174 .L0 
     /tmp/ccCCjb08.s:249    .text:0000000000000178 .L0 
     /tmp/ccCCjb08.s:253    .text:0000000000000184 .L0 
     /tmp/ccCCjb08.s:254    .text:0000000000000184 .L0 
     /tmp/ccCCjb08.s:255    .text:0000000000000184 .L0 
     /tmp/ccCCjb08.s:257    .text:0000000000000188 .L0 
     /tmp/ccCCjb08.s:261    .text:000000000000018c .L0 
     /tmp/ccCCjb08.s:262    .text:000000000000018c .L0 
     /tmp/ccCCjb08.s:263    .text:000000000000018c .L0 
     /tmp/ccCCjb08.s:268    .text:000000000000019c .L0 
     /tmp/ccCCjb08.s:269    .text:000000000000019c .L0 
     /tmp/ccCCjb08.s:275    .text:00000000000001b0 .L0 
     /tmp/ccCCjb08.s:276    .text:00000000000001b0 .L0 
     /tmp/ccCCjb08.s:280    .text:00000000000001c0 .L0 
     /tmp/ccCCjb08.s:284    .text:00000000000001c8 .L0 
     /tmp/ccCCjb08.s:285    .text:00000000000001cc .L0 
     /tmp/ccCCjb08.s:286    .text:00000000000001cc .L0 
     /tmp/ccCCjb08.s:288    .text:00000000000001d0 .L0 
     /tmp/ccCCjb08.s:289    .text:00000000000001d0 .L0 
     /tmp/ccCCjb08.s:291    .text:00000000000001d4 .L0 
     /tmp/ccCCjb08.s:294    .text:00000000000001d8 .L0 
     /tmp/ccCCjb08.s:298    .text:00000000000001dc .L0 
     /tmp/ccCCjb08.s:300    .text:00000000000001dc .L0 
     /tmp/ccCCjb08.s:301    .text:00000000000001dc .L0 
     /tmp/ccCCjb08.s:306    .text:00000000000001f4 .L0 
GAS LISTING /tmp/ccCCjb08.s 			page 55


     /tmp/ccCCjb08.s:320    .text:00000000000001f4 _Z21threadKillSemFunctionPv
     /tmp/ccCCjb08.s:323    .text:00000000000001f4 .L0 
     /tmp/ccCCjb08.s:324    .text:00000000000001f4 .L0 
     /tmp/ccCCjb08.s:325    .text:00000000000001f8 .L0 
     /tmp/ccCCjb08.s:328    .text:0000000000000200 .L0 
     /tmp/ccCCjb08.s:329    .text:0000000000000200 .L0 
     /tmp/ccCCjb08.s:331    .text:0000000000000204 .L0 
     /tmp/ccCCjb08.s:333    .text:0000000000000204 .L0 
     /tmp/ccCCjb08.s:334    .text:0000000000000204 .L0 
     /tmp/ccCCjb08.s:338    .text:0000000000000214 .L0 
     /tmp/ccCCjb08.s:339    .text:0000000000000214 .L0 
     /tmp/ccCCjb08.s:343    .text:0000000000000224 .L0 
     /tmp/ccCCjb08.s:344    .text:0000000000000224 .L0 
     /tmp/ccCCjb08.s:348    .text:0000000000000234 .L0 
     /tmp/ccCCjb08.s:349    .text:0000000000000238 .L0 
     /tmp/ccCCjb08.s:351    .text:000000000000023c .L0 
     /tmp/ccCCjb08.s:352    .text:000000000000023c .L0 
     /tmp/ccCCjb08.s:354    .text:0000000000000240 .L0 
     /tmp/ccCCjb08.s:356    .text:0000000000000244 .L0 
     /tmp/ccCCjb08.s:376    .text:0000000000000244 _Z8consumerPv
     /tmp/ccCCjb08.s:379    .text:0000000000000244 .L0 
     /tmp/ccCCjb08.s:381    .text:0000000000000244 .L0 
     /tmp/ccCCjb08.s:382    .text:0000000000000248 .L0 
     /tmp/ccCCjb08.s:388    .text:000000000000025c .L0 
     /tmp/ccCCjb08.s:389    .text:000000000000025c .L0 
     /tmp/ccCCjb08.s:390    .text:000000000000025c .L0 
     /tmp/ccCCjb08.s:391    .text:000000000000025c .L0 
     /tmp/ccCCjb08.s:392    .text:000000000000025c .L0 
     /tmp/ccCCjb08.s:394    .text:0000000000000260 .L0 
     /tmp/ccCCjb08.s:397    .text:0000000000000260 .L0 
     /tmp/ccCCjb08.s:398    .text:0000000000000260 .L0 
     /tmp/ccCCjb08.s:399    .text:0000000000000260 .L0 
     /tmp/ccCCjb08.s:404    .text:0000000000000270 .L0 
     /tmp/ccCCjb08.s:405    .text:0000000000000270 .L0 
     /tmp/ccCCjb08.s:410    .text:000000000000027c .L0 
     /tmp/ccCCjb08.s:411    .text:000000000000027c .L0 
     /tmp/ccCCjb08.s:415    .text:000000000000028c .L0 
     /tmp/ccCCjb08.s:416    .text:000000000000028c .L0 
     /tmp/ccCCjb08.s:422    .text:00000000000002a0 .L0 
     /tmp/ccCCjb08.s:423    .text:00000000000002a0 .L0 
     /tmp/ccCCjb08.s:427    .text:00000000000002b0 .L0 
     /tmp/ccCCjb08.s:428    .text:00000000000002b0 .L0 
     /tmp/ccCCjb08.s:432    .text:00000000000002bc .L0 
     /tmp/ccCCjb08.s:433    .text:00000000000002bc .L0 
     /tmp/ccCCjb08.s:439    .text:00000000000002c4 .L0 
     /tmp/ccCCjb08.s:440    .text:00000000000002c4 .L0 
     /tmp/ccCCjb08.s:441    .text:00000000000002c4 .L0 
     /tmp/ccCCjb08.s:445    .text:00000000000002d4 .L0 
     /tmp/ccCCjb08.s:447    .text:00000000000002d8 .L0 
     /tmp/ccCCjb08.s:448    .text:00000000000002d8 .L0 
     /tmp/ccCCjb08.s:452    .text:00000000000002e4 .L0 
     /tmp/ccCCjb08.s:453    .text:00000000000002e4 .L0 
     /tmp/ccCCjb08.s:457    .text:00000000000002f4 .L0 
     /tmp/ccCCjb08.s:458    .text:00000000000002f4 .L0 
     /tmp/ccCCjb08.s:464    .text:0000000000000308 .L0 
     /tmp/ccCCjb08.s:465    .text:0000000000000308 .L0 
     /tmp/ccCCjb08.s:469    .text:0000000000000318 .L0 
GAS LISTING /tmp/ccCCjb08.s 			page 56


     /tmp/ccCCjb08.s:470    .text:0000000000000318 .L0 
     /tmp/ccCCjb08.s:476    .text:000000000000032c .L0 
     /tmp/ccCCjb08.s:477    .text:000000000000032c .L0 
     /tmp/ccCCjb08.s:481    .text:000000000000033c .L0 
     /tmp/ccCCjb08.s:482    .text:000000000000033c .L0 
     /tmp/ccCCjb08.s:487    .text:0000000000000348 .L0 
     /tmp/ccCCjb08.s:488    .text:0000000000000348 .L0 
     /tmp/ccCCjb08.s:492    .text:000000000000034c .L0 
     /tmp/ccCCjb08.s:493    .text:0000000000000350 .L0 
     /tmp/ccCCjb08.s:495    .text:0000000000000354 .L0 
     /tmp/ccCCjb08.s:496    .text:0000000000000354 .L0 
     /tmp/ccCCjb08.s:498    .text:0000000000000358 .L0 
     /tmp/ccCCjb08.s:500    .text:000000000000035c .L0 
     /tmp/ccCCjb08.s:502    .text:0000000000000360 .L0 
     /tmp/ccCCjb08.s:505    .text:0000000000000364 .L0 
     /tmp/ccCCjb08.s:507    .text:0000000000000368 .L0 
     /tmp/ccCCjb08.s:521    .text:0000000000000368 _Z8producerPv
     /tmp/ccCCjb08.s:524    .text:0000000000000368 .L0 
     /tmp/ccCCjb08.s:526    .text:0000000000000368 .L0 
     /tmp/ccCCjb08.s:527    .text:000000000000036c .L0 
     /tmp/ccCCjb08.s:533    .text:0000000000000380 .L0 
     /tmp/ccCCjb08.s:534    .text:0000000000000380 .L0 
     /tmp/ccCCjb08.s:535    .text:0000000000000380 .L0 
     /tmp/ccCCjb08.s:536    .text:0000000000000380 .L0 
     /tmp/ccCCjb08.s:537    .text:0000000000000380 .L0 
     /tmp/ccCCjb08.s:539    .text:0000000000000384 .L0 
     /tmp/ccCCjb08.s:542    .text:0000000000000384 .L0 
     /tmp/ccCCjb08.s:543    .text:0000000000000384 .L0 
     /tmp/ccCCjb08.s:544    .text:0000000000000384 .L0 
     /tmp/ccCCjb08.s:548    .text:0000000000000390 .L0 
     /tmp/ccCCjb08.s:549    .text:0000000000000390 .L0 
     /tmp/ccCCjb08.s:553    .text:0000000000000398 .L0 
     /tmp/ccCCjb08.s:554    .text:0000000000000398 .L0 
     /tmp/ccCCjb08.s:558    .text:000000000000039c .L0 
     /tmp/ccCCjb08.s:559    .text:000000000000039c .L0 
     /tmp/ccCCjb08.s:560    .text:000000000000039c .L0 
     /tmp/ccCCjb08.s:564    .text:00000000000003ac .L0 
     /tmp/ccCCjb08.s:566    .text:00000000000003b0 .L0 
     /tmp/ccCCjb08.s:567    .text:00000000000003b0 .L0 
     /tmp/ccCCjb08.s:570    .text:00000000000003bc .L0 
     /tmp/ccCCjb08.s:571    .text:00000000000003bc .L0 
     /tmp/ccCCjb08.s:574    .text:00000000000003c0 .L0 
     /tmp/ccCCjb08.s:575    .text:00000000000003c0 .L0 
     /tmp/ccCCjb08.s:579    .text:00000000000003d0 .L0 
     /tmp/ccCCjb08.s:580    .text:00000000000003d0 .L0 
     /tmp/ccCCjb08.s:586    .text:00000000000003e4 .L0 
     /tmp/ccCCjb08.s:587    .text:00000000000003e4 .L0 
     /tmp/ccCCjb08.s:591    .text:00000000000003f4 .L0 
     /tmp/ccCCjb08.s:592    .text:00000000000003f4 .L0 
     /tmp/ccCCjb08.s:598    .text:0000000000000408 .L0 
     /tmp/ccCCjb08.s:599    .text:0000000000000408 .L0 
     /tmp/ccCCjb08.s:603    .text:0000000000000418 .L0 
     /tmp/ccCCjb08.s:606    .text:0000000000000420 .L0 
     /tmp/ccCCjb08.s:607    .text:0000000000000420 .L0 
     /tmp/ccCCjb08.s:611    .text:0000000000000430 .L0 
     /tmp/ccCCjb08.s:612    .text:0000000000000430 .L0 
     /tmp/ccCCjb08.s:615    .text:0000000000000434 .L0 
GAS LISTING /tmp/ccCCjb08.s 			page 57


     /tmp/ccCCjb08.s:616    .text:0000000000000434 .L0 
     /tmp/ccCCjb08.s:620    .text:0000000000000444 .L0 
     /tmp/ccCCjb08.s:621    .text:0000000000000444 .L0 
     /tmp/ccCCjb08.s:626    .text:0000000000000454 .L0 
     /tmp/ccCCjb08.s:627    .text:0000000000000454 .L0 
     /tmp/ccCCjb08.s:628    .text:0000000000000458 .L0 
     /tmp/ccCCjb08.s:630    .text:000000000000045c .L0 
     /tmp/ccCCjb08.s:631    .text:000000000000045c .L0 
     /tmp/ccCCjb08.s:633    .text:0000000000000460 .L0 
     /tmp/ccCCjb08.s:635    .text:0000000000000464 .L0 
     /tmp/ccCCjb08.s:637    .text:0000000000000468 .L0 
     /tmp/ccCCjb08.s:640    .text:000000000000046c .L0 
     /tmp/ccCCjb08.s:642    .text:0000000000000470 .L0 
     /tmp/ccCCjb08.s:648    .text:0000000000000470 _Z10collumnSumPv
     /tmp/ccCCjb08.s:651    .text:0000000000000470 .L0 
     /tmp/ccCCjb08.s:653    .text:0000000000000470 .L0 
     /tmp/ccCCjb08.s:654    .text:0000000000000470 .L0 
     /tmp/ccCCjb08.s:655    .text:0000000000000470 .L0 
     /tmp/ccCCjb08.s:657    .text:0000000000000470 .L0 
     /tmp/ccCCjb08.s:658    .text:0000000000000470 .L0 
     /tmp/ccCCjb08.s:661    .text:0000000000000474 .L0 
     /tmp/ccCCjb08.s:666    .text:0000000000000478 .L0 
     /tmp/ccCCjb08.s:667    .text:0000000000000478 .L0 
     /tmp/ccCCjb08.s:669    .text:000000000000047c .L0 
     /tmp/ccCCjb08.s:671    .text:0000000000000480 .L0 
     /tmp/ccCCjb08.s:672    .text:0000000000000480 .L0 
     /tmp/ccCCjb08.s:674    .text:0000000000000484 .L0 
     /tmp/ccCCjb08.s:678    .text:0000000000000490 .L0 
     /tmp/ccCCjb08.s:680    .text:0000000000000494 .L0 
     /tmp/ccCCjb08.s:684    .text:00000000000004a0 .L0 
     /tmp/ccCCjb08.s:687    .text:00000000000004a4 .L0 
     /tmp/ccCCjb08.s:694    .text:00000000000004ac .L0 
     /tmp/ccCCjb08.s:695    .text:00000000000004ac .L0 
     /tmp/ccCCjb08.s:698    .text:00000000000004b0 .L0 
     /tmp/ccCCjb08.s:700    .text:00000000000004b4 .L0 
     /tmp/ccCCjb08.s:701    .text:00000000000004b4 .L0 
     /tmp/ccCCjb08.s:703    .text:00000000000004b8 .L0 
     /tmp/ccCCjb08.s:704    .text:00000000000004bc .L0 
     /tmp/ccCCjb08.s:707    .text:00000000000004c4 .L0 
     /tmp/ccCCjb08.s:708    .text:00000000000004c4 .L0 
     /tmp/ccCCjb08.s:710    .text:00000000000004c8 .L0 
     /tmp/ccCCjb08.s:712    .text:00000000000004c8 .L0 
     /tmp/ccCCjb08.s:715    .text:00000000000004d0 .L0 
     /tmp/ccCCjb08.s:716    .text:00000000000004d4 .L0 
     /tmp/ccCCjb08.s:718    .text:00000000000004d8 .L0 
     /tmp/ccCCjb08.s:719    .text:00000000000004d8 .L0 
     /tmp/ccCCjb08.s:721    .text:00000000000004dc .L0 
     /tmp/ccCCjb08.s:726    .text:00000000000004e4 .L0 
     /tmp/ccCCjb08.s:737    .text:00000000000004e4 _Z13resourceGiverPv
     /tmp/ccCCjb08.s:740    .text:00000000000004e4 .L0 
     /tmp/ccCCjb08.s:741    .text:00000000000004e4 .L0 
     /tmp/ccCCjb08.s:742    .text:00000000000004e8 .L0 
     /tmp/ccCCjb08.s:746    .text:00000000000004f4 .L0 
     /tmp/ccCCjb08.s:747    .text:00000000000004f4 .L0 
     /tmp/ccCCjb08.s:748    .text:00000000000004f4 .L0 
     /tmp/ccCCjb08.s:750    .text:00000000000004f8 .L0 
     /tmp/ccCCjb08.s:753    .text:00000000000004f8 .L0 
GAS LISTING /tmp/ccCCjb08.s 			page 58


     /tmp/ccCCjb08.s:754    .text:00000000000004f8 .L0 
     /tmp/ccCCjb08.s:755    .text:00000000000004f8 .L0 
     /tmp/ccCCjb08.s:761    .text:0000000000000510 .L0 
     /tmp/ccCCjb08.s:762    .text:0000000000000510 .L0 
     /tmp/ccCCjb08.s:766    .text:0000000000000520 .L0 
     /tmp/ccCCjb08.s:767    .text:0000000000000520 .L0 
     /tmp/ccCCjb08.s:769    .text:0000000000000524 .L0 
     /tmp/ccCCjb08.s:775    .text:0000000000000538 .L0 
     /tmp/ccCCjb08.s:776    .text:0000000000000538 .L0 
     /tmp/ccCCjb08.s:780    .text:0000000000000548 .L0 
     /tmp/ccCCjb08.s:781    .text:0000000000000548 .L0 
     /tmp/ccCCjb08.s:784    .text:0000000000000550 .L0 
     /tmp/ccCCjb08.s:785    .text:0000000000000554 .L0 
     /tmp/ccCCjb08.s:796    .text:0000000000000554 _Z13resourceTakerPv
     /tmp/ccCCjb08.s:799    .text:0000000000000554 .L0 
     /tmp/ccCCjb08.s:800    .text:0000000000000554 .L0 
     /tmp/ccCCjb08.s:801    .text:0000000000000558 .L0 
     /tmp/ccCCjb08.s:805    .text:0000000000000564 .L0 
     /tmp/ccCCjb08.s:806    .text:0000000000000564 .L0 
     /tmp/ccCCjb08.s:807    .text:0000000000000564 .L0 
     /tmp/ccCCjb08.s:809    .text:0000000000000568 .L0 
     /tmp/ccCCjb08.s:812    .text:0000000000000568 .L0 
     /tmp/ccCCjb08.s:813    .text:0000000000000568 .L0 
     /tmp/ccCCjb08.s:814    .text:0000000000000568 .L0 
     /tmp/ccCCjb08.s:820    .text:0000000000000580 .L0 
     /tmp/ccCCjb08.s:821    .text:0000000000000580 .L0 
     /tmp/ccCCjb08.s:825    .text:0000000000000590 .L0 
     /tmp/ccCCjb08.s:826    .text:0000000000000590 .L0 
     /tmp/ccCCjb08.s:828    .text:0000000000000594 .L0 
     /tmp/ccCCjb08.s:834    .text:00000000000005a8 .L0 
     /tmp/ccCCjb08.s:835    .text:00000000000005a8 .L0 
     /tmp/ccCCjb08.s:839    .text:00000000000005b8 .L0 
     /tmp/ccCCjb08.s:840    .text:00000000000005b8 .L0 
     /tmp/ccCCjb08.s:843    .text:00000000000005c0 .L0 
     /tmp/ccCCjb08.s:844    .text:00000000000005c4 .L0 
     /tmp/ccCCjb08.s:850    .text:00000000000005c4 _Z10prosliMainv
     /tmp/ccCCjb08.s:853    .text:00000000000005c4 .L0 
     /tmp/ccCCjb08.s:854    .text:00000000000005c4 .L0 
     /tmp/ccCCjb08.s:855    .text:00000000000005c8 .L0 
     /tmp/ccCCjb08.s:859    .text:00000000000005d4 .L0 
     /tmp/ccCCjb08.s:860    .text:00000000000005d4 .L0 
     /tmp/ccCCjb08.s:861    .text:00000000000005d4 .L0 
     /tmp/ccCCjb08.s:863    .text:00000000000005d8 .L0 
     /tmp/ccCCjb08.s:865    .text:00000000000005d8 .L0 
     /tmp/ccCCjb08.s:866    .text:00000000000005d8 .L0 
     /tmp/ccCCjb08.s:872    .text:00000000000005f4 .L0 
     /tmp/ccCCjb08.s:873    .text:00000000000005f4 .L0 
     /tmp/ccCCjb08.s:878    .text:0000000000000608 .L0 
     /tmp/ccCCjb08.s:879    .text:0000000000000608 .L0 
     /tmp/ccCCjb08.s:885    .text:0000000000000624 .L0 
     /tmp/ccCCjb08.s:886    .text:0000000000000624 .L0 
     /tmp/ccCCjb08.s:892    .text:0000000000000640 .L0 
     /tmp/ccCCjb08.s:893    .text:0000000000000640 .L0 
     /tmp/ccCCjb08.s:897    .text:000000000000064c .L0 
     /tmp/ccCCjb08.s:898    .text:000000000000064c .L0 
     /tmp/ccCCjb08.s:902    .text:0000000000000658 .L0 
     /tmp/ccCCjb08.s:903    .text:000000000000065c .L0 
GAS LISTING /tmp/ccCCjb08.s 			page 59


     /tmp/ccCCjb08.s:905    .text:0000000000000660 .L0 
     /tmp/ccCCjb08.s:906    .text:0000000000000660 .L0 
     /tmp/ccCCjb08.s:908    .text:0000000000000664 .L0 
     /tmp/ccCCjb08.s:910    .text:0000000000000668 .L0 
     /tmp/ccCCjb08.s:912    .text:000000000000066c .L0 
     /tmp/ccCCjb08.s:935    .text:000000000000066c _Z12modifMatricav
     /tmp/ccCCjb08.s:938    .text:000000000000066c .L0 
     /tmp/ccCCjb08.s:939    .text:000000000000066c .L0 
     /tmp/ccCCjb08.s:940    .text:0000000000000670 .L0 
     /tmp/ccCCjb08.s:951    .text:0000000000000698 .L0 
     /tmp/ccCCjb08.s:952    .text:0000000000000698 .L0 
     /tmp/ccCCjb08.s:953    .text:0000000000000698 .L0 
     /tmp/ccCCjb08.s:954    .text:0000000000000698 .L0 
     /tmp/ccCCjb08.s:955    .text:0000000000000698 .L0 
     /tmp/ccCCjb08.s:956    .text:0000000000000698 .L0 
     /tmp/ccCCjb08.s:957    .text:0000000000000698 .L0 
     /tmp/ccCCjb08.s:958    .text:0000000000000698 .L0 
     /tmp/ccCCjb08.s:959    .text:0000000000000698 .L0 
     /tmp/ccCCjb08.s:960    .text:0000000000000698 .L0 
     /tmp/ccCCjb08.s:962    .text:000000000000069c .L0 
     /tmp/ccCCjb08.s:964    .text:000000000000069c .L0 
     /tmp/ccCCjb08.s:965    .text:000000000000069c .L0 
     /tmp/ccCCjb08.s:969    .text:00000000000006ac .L0 
     /tmp/ccCCjb08.s:970    .text:00000000000006ac .L0 
     /tmp/ccCCjb08.s:973    .text:00000000000006b4 .L0 
     /tmp/ccCCjb08.s:975    .text:00000000000006b8 .L0 
     /tmp/ccCCjb08.s:978    .text:00000000000006bc .L0 
     /tmp/ccCCjb08.s:979    .text:00000000000006bc .L0 
     /tmp/ccCCjb08.s:984    .text:00000000000006cc .L0 
     /tmp/ccCCjb08.s:985    .text:00000000000006cc .L0 
     /tmp/ccCCjb08.s:988    .text:00000000000006d4 .L0 
     /tmp/ccCCjb08.s:991    .text:00000000000006d8 .L0 
     /tmp/ccCCjb08.s:992    .text:00000000000006d8 .L0 
     /tmp/ccCCjb08.s:997    .text:00000000000006e8 .L0 
     /tmp/ccCCjb08.s:998    .text:00000000000006e8 .L0 
     /tmp/ccCCjb08.s:1000   .text:00000000000006ec .L0 
     /tmp/ccCCjb08.s:1007   .text:00000000000006fc .L0 
     /tmp/ccCCjb08.s:1008   .text:00000000000006fc .L0 
     /tmp/ccCCjb08.s:1012   .text:0000000000000700 .L0 
     /tmp/ccCCjb08.s:1014   .text:0000000000000704 .L0 
     /tmp/ccCCjb08.s:1015   .text:0000000000000704 .L0 
     /tmp/ccCCjb08.s:1018   .text:000000000000070c .L0 
     /tmp/ccCCjb08.s:1022   .text:0000000000000718 .L0 
     /tmp/ccCCjb08.s:1024   .text:000000000000071c .L0 
     /tmp/ccCCjb08.s:1032   .text:0000000000000724 .L0 
     /tmp/ccCCjb08.s:1037   .text:000000000000072c .L0 
     /tmp/ccCCjb08.s:1041   .text:0000000000000730 .L0 
     /tmp/ccCCjb08.s:1044   .text:0000000000000734 .L0 
     /tmp/ccCCjb08.s:1048   .text:0000000000000738 .L0 
     /tmp/ccCCjb08.s:1050   .text:000000000000073c .L0 
     /tmp/ccCCjb08.s:1051   .text:000000000000073c .L0 
     /tmp/ccCCjb08.s:1054   .text:0000000000000744 .L0 
     /tmp/ccCCjb08.s:1058   .text:0000000000000750 .L0 
     /tmp/ccCCjb08.s:1061   .text:0000000000000758 .L0 
     /tmp/ccCCjb08.s:1063   .text:000000000000075c .L0 
     /tmp/ccCCjb08.s:1065   .text:0000000000000760 .L0 
     /tmp/ccCCjb08.s:1072   .text:0000000000000768 .L0 
GAS LISTING /tmp/ccCCjb08.s 			page 60


     /tmp/ccCCjb08.s:1073   .text:0000000000000768 .L0 
     /tmp/ccCCjb08.s:1078   .text:0000000000000778 .L0 
     /tmp/ccCCjb08.s:1079   .text:0000000000000778 .L0 
     /tmp/ccCCjb08.s:1086   .text:0000000000000780 .L0 
     /tmp/ccCCjb08.s:1087   .text:0000000000000780 .L0 
     /tmp/ccCCjb08.s:1092   .text:0000000000000790 .L0 
     /tmp/ccCCjb08.s:1096   .text:0000000000000794 .L0 
     /tmp/ccCCjb08.s:1100   .text:0000000000000798 .L0 
     /tmp/ccCCjb08.s:1104   .text:000000000000079c .L0 
     /tmp/ccCCjb08.s:1106   .text:00000000000007a0 .L0 
     /tmp/ccCCjb08.s:1107   .text:00000000000007a0 .L0 
     /tmp/ccCCjb08.s:1111   .text:00000000000007ac .L0 
     /tmp/ccCCjb08.s:1114   .text:00000000000007b4 .L0 
     /tmp/ccCCjb08.s:1120   .text:00000000000007c8 .L0 
     /tmp/ccCCjb08.s:1121   .text:00000000000007c8 .L0 
     /tmp/ccCCjb08.s:1125   .text:00000000000007d8 .L0 
     /tmp/ccCCjb08.s:1133   .text:00000000000007e0 .L0 
     /tmp/ccCCjb08.s:1134   .text:00000000000007e0 .L0 
     /tmp/ccCCjb08.s:1141   .text:00000000000007f0 .L0 
     /tmp/ccCCjb08.s:1142   .text:00000000000007f0 .L0 
     /tmp/ccCCjb08.s:1146   .text:00000000000007f4 .L0 
     /tmp/ccCCjb08.s:1149   .text:00000000000007f8 .L0 
     /tmp/ccCCjb08.s:1150   .text:00000000000007f8 .L0 
     /tmp/ccCCjb08.s:1156   .text:0000000000000808 .L0 
     /tmp/ccCCjb08.s:1157   .text:0000000000000808 .L0 
     /tmp/ccCCjb08.s:1159   .text:000000000000080c .L0 
     /tmp/ccCCjb08.s:1160   .text:000000000000080c .L0 
     /tmp/ccCCjb08.s:1162   .text:0000000000000810 .L0 
     /tmp/ccCCjb08.s:1163   .text:0000000000000810 .L0 
     /tmp/ccCCjb08.s:1165   .text:0000000000000814 .L0 
     /tmp/ccCCjb08.s:1166   .text:0000000000000814 .L0 
     /tmp/ccCCjb08.s:1168   .text:0000000000000818 .L0 
     /tmp/ccCCjb08.s:1169   .text:0000000000000818 .L0 
     /tmp/ccCCjb08.s:1173   .text:0000000000000824 .L0 
     /tmp/ccCCjb08.s:1175   .text:0000000000000828 .L0 
     /tmp/ccCCjb08.s:1177   .text:000000000000082c .L0 
     /tmp/ccCCjb08.s:1179   .text:0000000000000830 .L0 
     /tmp/ccCCjb08.s:1180   .text:0000000000000830 .L0 
     /tmp/ccCCjb08.s:1183   .text:0000000000000838 .L0 
     /tmp/ccCCjb08.s:1187   .text:0000000000000844 .L0 
     /tmp/ccCCjb08.s:1189   .text:0000000000000848 .L0 
     /tmp/ccCCjb08.s:1190   .text:0000000000000848 .L0 
     /tmp/ccCCjb08.s:1197   .text:0000000000000860 .L0 
     /tmp/ccCCjb08.s:1205   .text:0000000000000868 .L0 
     /tmp/ccCCjb08.s:1208   .text:000000000000086c .L0 
     /tmp/ccCCjb08.s:1214   .text:0000000000000874 .L0 
     /tmp/ccCCjb08.s:1215   .text:0000000000000874 .L0 
     /tmp/ccCCjb08.s:1219   .text:0000000000000880 .L0 
     /tmp/ccCCjb08.s:1223   .text:000000000000088c .L0 
     /tmp/ccCCjb08.s:1226   .text:0000000000000890 .L0 
     /tmp/ccCCjb08.s:1230   .text:0000000000000894 .L0 
     /tmp/ccCCjb08.s:1232   .text:0000000000000898 .L0 
     /tmp/ccCCjb08.s:1233   .text:0000000000000898 .L0 
     /tmp/ccCCjb08.s:1235   .text:000000000000089c .L0 
     /tmp/ccCCjb08.s:1238   .text:00000000000008a4 .L0 
     /tmp/ccCCjb08.s:1242   .text:00000000000008b0 .L0 
     /tmp/ccCCjb08.s:1243   .text:00000000000008b0 .L0 
GAS LISTING /tmp/ccCCjb08.s 			page 61


     /tmp/ccCCjb08.s:1245   .text:00000000000008b4 .L0 
     /tmp/ccCCjb08.s:1247   .text:00000000000008b8 .L0 
     /tmp/ccCCjb08.s:1253   .text:00000000000008c4 .L0 
     /tmp/ccCCjb08.s:1254   .text:00000000000008c4 .L0 
     /tmp/ccCCjb08.s:1258   .text:00000000000008d4 .L0 
     /tmp/ccCCjb08.s:1259   .text:00000000000008d4 .L0 
     /tmp/ccCCjb08.s:1265   .text:00000000000008e8 .L0 
     /tmp/ccCCjb08.s:1266   .text:00000000000008e8 .L0 
     /tmp/ccCCjb08.s:1270   .text:00000000000008f8 .L0 
     /tmp/ccCCjb08.s:1271   .text:00000000000008fc .L0 
     /tmp/ccCCjb08.s:1273   .text:0000000000000900 .L0 
     /tmp/ccCCjb08.s:1274   .text:0000000000000900 .L0 
     /tmp/ccCCjb08.s:1276   .text:0000000000000904 .L0 
     /tmp/ccCCjb08.s:1279   .text:0000000000000908 .L0 
     /tmp/ccCCjb08.s:1281   .text:000000000000090c .L0 
     /tmp/ccCCjb08.s:1284   .text:0000000000000910 .L0 
     /tmp/ccCCjb08.s:1286   .text:0000000000000914 .L0 
     /tmp/ccCCjb08.s:1288   .text:0000000000000918 .L0 
     /tmp/ccCCjb08.s:1290   .text:000000000000091c .L0 
     /tmp/ccCCjb08.s:1293   .text:0000000000000920 .L0 
     /tmp/ccCCjb08.s:1296   .text:0000000000000924 .L0 
     /tmp/ccCCjb08.s:1298   .text:0000000000000928 .L0 
     /tmp/ccCCjb08.s:1324   .text:0000000000000928 _Z9modifKillv
     /tmp/ccCCjb08.s:1327   .text:0000000000000928 .L0 
     /tmp/ccCCjb08.s:1328   .text:0000000000000928 .L0 
     /tmp/ccCCjb08.s:1329   .text:000000000000092c .L0 
     /tmp/ccCCjb08.s:1333   .text:0000000000000938 .L0 
     /tmp/ccCCjb08.s:1334   .text:0000000000000938 .L0 
     /tmp/ccCCjb08.s:1335   .text:0000000000000938 .L0 
     /tmp/ccCCjb08.s:1337   .text:000000000000093c .L0 
     /tmp/ccCCjb08.s:1339   .text:000000000000093c .L0 
     /tmp/ccCCjb08.s:1340   .text:000000000000093c .L0 
     /tmp/ccCCjb08.s:1341   .text:000000000000093c .L0 
     /tmp/ccCCjb08.s:1342   .text:000000000000093c .L0 
     /tmp/ccCCjb08.s:1348   .text:0000000000000954 .L0 
     /tmp/ccCCjb08.s:1349   .text:0000000000000954 .L0 
     /tmp/ccCCjb08.s:1355   .text:000000000000096c .L0 
     /tmp/ccCCjb08.s:1360   .text:0000000000000974 .L0 
     /tmp/ccCCjb08.s:1361   .text:0000000000000974 .L0 
     /tmp/ccCCjb08.s:1364   .text:000000000000097c .L0 
     /tmp/ccCCjb08.s:1365   .text:000000000000097c .L0 
     /tmp/ccCCjb08.s:1369   .text:0000000000000980 .L0 
     /tmp/ccCCjb08.s:1370   .text:0000000000000980 .L0 
     /tmp/ccCCjb08.s:1373   .text:0000000000000988 .L0 
     /tmp/ccCCjb08.s:1374   .text:0000000000000988 .L0 
     /tmp/ccCCjb08.s:1375   .text:0000000000000988 .L0 
     /tmp/ccCCjb08.s:1382   .text:000000000000099c .L0 
     /tmp/ccCCjb08.s:1383   .text:000000000000099c .L0 
     /tmp/ccCCjb08.s:1387   .text:00000000000009ac .L0 
     /tmp/ccCCjb08.s:1388   .text:00000000000009ac .L0 
     /tmp/ccCCjb08.s:1394   .text:00000000000009c0 .L0 
     /tmp/ccCCjb08.s:1395   .text:00000000000009c0 .L0 
     /tmp/ccCCjb08.s:1402   .text:00000000000009d4 .L0 
     /tmp/ccCCjb08.s:1403   .text:00000000000009d4 .L0 
     /tmp/ccCCjb08.s:1407   .text:00000000000009e4 .L0 
     /tmp/ccCCjb08.s:1408   .text:00000000000009e4 .L0 
     /tmp/ccCCjb08.s:1414   .text:00000000000009f8 .L0 
GAS LISTING /tmp/ccCCjb08.s 			page 62


     /tmp/ccCCjb08.s:1415   .text:00000000000009f8 .L0 
     /tmp/ccCCjb08.s:1419   .text:0000000000000a08 .L0 
     /tmp/ccCCjb08.s:1420   .text:0000000000000a08 .L0 
     /tmp/ccCCjb08.s:1426   .text:0000000000000a18 .L0 
     /tmp/ccCCjb08.s:1427   .text:0000000000000a18 .L0 
     /tmp/ccCCjb08.s:1431   .text:0000000000000a28 .L0 
     /tmp/ccCCjb08.s:1432   .text:0000000000000a28 .L0 
     /tmp/ccCCjb08.s:1438   .text:0000000000000a3c .L0 
     /tmp/ccCCjb08.s:1439   .text:0000000000000a3c .L0 
     /tmp/ccCCjb08.s:1443   .text:0000000000000a4c .L0 
     /tmp/ccCCjb08.s:1444   .text:0000000000000a4c .L0 
     /tmp/ccCCjb08.s:1451   .text:0000000000000a64 .L0 
     /tmp/ccCCjb08.s:1452   .text:0000000000000a64 .L0 
     /tmp/ccCCjb08.s:1458   .text:0000000000000a80 .L0 
     /tmp/ccCCjb08.s:1459   .text:0000000000000a80 .L0 
     /tmp/ccCCjb08.s:1462   .text:0000000000000a88 .L0 
     /tmp/ccCCjb08.s:1463   .text:0000000000000a88 .L0 
     /tmp/ccCCjb08.s:1470   .text:0000000000000a9c .L0 
     /tmp/ccCCjb08.s:1471   .text:0000000000000a9c .L0 
     /tmp/ccCCjb08.s:1475   .text:0000000000000aac .L0 
     /tmp/ccCCjb08.s:1476   .text:0000000000000aac .L0 
     /tmp/ccCCjb08.s:1482   .text:0000000000000ac0 .L0 
     /tmp/ccCCjb08.s:1483   .text:0000000000000ac0 .L0 
     /tmp/ccCCjb08.s:1487   .text:0000000000000ad0 .L0 
     /tmp/ccCCjb08.s:1488   .text:0000000000000ad0 .L0 
     /tmp/ccCCjb08.s:1494   .text:0000000000000ae8 .L0 
     /tmp/ccCCjb08.s:1495   .text:0000000000000ae8 .L0 
     /tmp/ccCCjb08.s:1499   .text:0000000000000af8 .L0 
     /tmp/ccCCjb08.s:1500   .text:0000000000000afc .L0 
     /tmp/ccCCjb08.s:1502   .text:0000000000000b00 .L0 
     /tmp/ccCCjb08.s:1503   .text:0000000000000b00 .L0 
     /tmp/ccCCjb08.s:1505   .text:0000000000000b04 .L0 
     /tmp/ccCCjb08.s:1508   .text:0000000000000b08 .L0 
     /tmp/ccCCjb08.s:1510   .text:0000000000000b0c .L0 
     /tmp/ccCCjb08.s:1521   .text:0000000000000b0c _Z13modifResourcev
     /tmp/ccCCjb08.s:1524   .text:0000000000000b0c .L0 
     /tmp/ccCCjb08.s:1525   .text:0000000000000b0c .L0 
     /tmp/ccCCjb08.s:1526   .text:0000000000000b10 .L0 
     /tmp/ccCCjb08.s:1530   .text:0000000000000b1c .L0 
     /tmp/ccCCjb08.s:1531   .text:0000000000000b1c .L0 
     /tmp/ccCCjb08.s:1532   .text:0000000000000b1c .L0 
     /tmp/ccCCjb08.s:1534   .text:0000000000000b20 .L0 
     /tmp/ccCCjb08.s:1536   .text:0000000000000b20 .L0 
     /tmp/ccCCjb08.s:1537   .text:0000000000000b20 .L0 
     /tmp/ccCCjb08.s:1538   .text:0000000000000b20 .L0 
     /tmp/ccCCjb08.s:1539   .text:0000000000000b20 .L0 
     /tmp/ccCCjb08.s:1543   .text:0000000000000b2c .L0 
     /tmp/ccCCjb08.s:1545   .text:0000000000000b34 .L0 
     /tmp/ccCCjb08.s:1546   .text:0000000000000b34 .L0 
     /tmp/ccCCjb08.s:1552   .text:0000000000000b4c .L0 
     /tmp/ccCCjb08.s:1553   .text:0000000000000b4c .L0 
     /tmp/ccCCjb08.s:1559   .text:0000000000000b64 .L0 
     /tmp/ccCCjb08.s:1560   .text:0000000000000b64 .L0 
     /tmp/ccCCjb08.s:1564   .text:0000000000000b74 .L0 
     /tmp/ccCCjb08.s:1565   .text:0000000000000b74 .L0 
     /tmp/ccCCjb08.s:1568   .text:0000000000000b7c .L0 
     /tmp/ccCCjb08.s:1572   .text:0000000000000b80 .L0 
GAS LISTING /tmp/ccCCjb08.s 			page 63


     /tmp/ccCCjb08.s:1573   .text:0000000000000b80 .L0 
     /tmp/ccCCjb08.s:1576   .text:0000000000000b88 .L0 
     /tmp/ccCCjb08.s:1577   .text:0000000000000b88 .L0 
     /tmp/ccCCjb08.s:1580   .text:0000000000000b90 .L0 
     /tmp/ccCCjb08.s:1581   .text:0000000000000b90 .L0 
     /tmp/ccCCjb08.s:1584   .text:0000000000000b94 .L0 
     /tmp/ccCCjb08.s:1588   .text:0000000000000b98 .L0 
     /tmp/ccCCjb08.s:1589   .text:0000000000000b98 .L0 
     /tmp/ccCCjb08.s:1594   .text:0000000000000ba8 .L0 
     /tmp/ccCCjb08.s:1595   .text:0000000000000ba8 .L0 
     /tmp/ccCCjb08.s:1600   .text:0000000000000bb8 .L0 
     /tmp/ccCCjb08.s:1601   .text:0000000000000bbc .L0 
     /tmp/ccCCjb08.s:1603   .text:0000000000000bc0 .L0 
     /tmp/ccCCjb08.s:1604   .text:0000000000000bc0 .L0 
     /tmp/ccCCjb08.s:1606   .text:0000000000000bc4 .L0 
     /tmp/ccCCjb08.s:1609   .text:0000000000000bc8 .L0 
     /tmp/ccCCjb08.s:1611   .text:0000000000000bcc .L0 
     /tmp/ccCCjb08.s:1617   .text:0000000000000bcc _Z11mainWrapperPv
     /tmp/ccCCjb08.s:1620   .text:0000000000000bcc .L0 
     /tmp/ccCCjb08.s:1621   .text:0000000000000bcc .L0 
     /tmp/ccCCjb08.s:1622   .text:0000000000000bd0 .L0 
     /tmp/ccCCjb08.s:1625   .text:0000000000000bd8 .L0 
     /tmp/ccCCjb08.s:1626   .text:0000000000000bd8 .L0 
     /tmp/ccCCjb08.s:1628   .text:0000000000000bdc .L0 
     /tmp/ccCCjb08.s:1630   .text:0000000000000bdc .L0 
     /tmp/ccCCjb08.s:1631   .text:0000000000000bdc .L0 
     /tmp/ccCCjb08.s:1634   .text:0000000000000be4 .L0 
     /tmp/ccCCjb08.s:1635   .text:0000000000000be8 .L0 
     /tmp/ccCCjb08.s:1637   .text:0000000000000bec .L0 
     /tmp/ccCCjb08.s:1638   .text:0000000000000bec .L0 
     /tmp/ccCCjb08.s:1640   .text:0000000000000bf0 .L0 
     /tmp/ccCCjb08.s:1642   .text:0000000000000bf4 .L0 
     /tmp/ccCCjb08.s:1648   .text:0000000000000bf4 main
     /tmp/ccCCjb08.s:1651   .text:0000000000000bf4 .L0 
     /tmp/ccCCjb08.s:1652   .text:0000000000000bf4 .L0 
     /tmp/ccCCjb08.s:1653   .text:0000000000000bf8 .L0 
     /tmp/ccCCjb08.s:1656   .text:0000000000000c00 .L0 
     /tmp/ccCCjb08.s:1657   .text:0000000000000c00 .L0 
     /tmp/ccCCjb08.s:1659   .text:0000000000000c04 .L0 
     /tmp/ccCCjb08.s:1661   .text:0000000000000c04 .L0 
     /tmp/ccCCjb08.s:1662   .text:0000000000000c04 .L0 
     /tmp/ccCCjb08.s:1665   .text:0000000000000c0c .L0 
     /tmp/ccCCjb08.s:1666   .text:0000000000000c0c .L0 
     /tmp/ccCCjb08.s:1672   .text:0000000000000c14 .L0 
src/../h/../test/../h/../h/riscv.hpp:119    .text:0000000000000c14 .L0 
     /tmp/ccCCjb08.s:1684   .text:0000000000000c18 .L0 
     /tmp/ccCCjb08.s:1685   .text:0000000000000c18 .L0 
     /tmp/ccCCjb08.s:1686   .text:0000000000000c18 .L0 
src/../h/../test/../h/../h/riscv.hpp:169    .text:0000000000000c18 .L0 
     /tmp/ccCCjb08.s:1694   .text:0000000000000c20 .L0 
     /tmp/ccCCjb08.s:1695   .text:0000000000000c20 .L0 
     /tmp/ccCCjb08.s:1700   .text:0000000000000c24 .L0 
     /tmp/ccCCjb08.s:1701   .text:0000000000000c24 .L0 
     /tmp/ccCCjb08.s:1702   .text:0000000000000c24 .L0 
     /tmp/ccCCjb08.s:1707   .text:0000000000000c28 .L0 
     /tmp/ccCCjb08.s:1708   .text:0000000000000c28 .L0 
src/../h/../test/../h/../h/riscv.hpp:158    .text:0000000000000c28 .L0 
GAS LISTING /tmp/ccCCjb08.s 			page 64


     /tmp/ccCCjb08.s:1718   .text:0000000000000c2c .L0 
     /tmp/ccCCjb08.s:1719   .text:0000000000000c2c .L0 
     /tmp/ccCCjb08.s:1721   .text:0000000000000c30 .L0 
     /tmp/ccCCjb08.s:1722   .text:0000000000000c30 .L0 
     /tmp/ccCCjb08.s:1724   .text:0000000000000c34 .L0 
     /tmp/ccCCjb08.s:1725   .text:0000000000000c34 .L0 
     /tmp/ccCCjb08.s:1731   .text:0000000000000c48 .L0 
     /tmp/ccCCjb08.s:1732   .text:0000000000000c48 .L0 
     /tmp/ccCCjb08.s:1736   .text:0000000000000c58 .L0 
     /tmp/ccCCjb08.s:1737   .text:0000000000000c58 .L0 
     /tmp/ccCCjb08.s:1743   .text:0000000000000c70 .L0 
     /tmp/ccCCjb08.s:1744   .text:0000000000000c70 .L0 
     /tmp/ccCCjb08.s:1747   .text:0000000000000c78 .L0 
     /tmp/ccCCjb08.s:1748   .text:0000000000000c78 .L0 
     /tmp/ccCCjb08.s:1752   .text:0000000000000c84 .L0 
     /tmp/ccCCjb08.s:1753   .text:0000000000000c88 .L0 
     /tmp/ccCCjb08.s:1755   .text:0000000000000c8c .L0 
     /tmp/ccCCjb08.s:1756   .text:0000000000000c8c .L0 
     /tmp/ccCCjb08.s:1758   .text:0000000000000c90 .L0 
     /tmp/ccCCjb08.s:1760   .text:0000000000000c94 .L0 
     /tmp/ccCCjb08.s:1801   .bss:0000000000000020 myResource
     /tmp/ccCCjb08.s:1784   .bss:0000000000000000 killSem
     /tmp/ccCCjb08.s:1813   .bss:0000000000000038 threadKillSem
     /tmp/ccCCjb08.s:1777   .data:0000000000000000 id
     /tmp/ccCCjb08.s:1792   .bss:0000000000000010 buffer
     /tmp/ccCCjb08.s:1788   .bss:0000000000000008 full
     /tmp/ccCCjb08.s:1797   .bss:0000000000000018 empty
     /tmp/ccCCjb08.s:1809   .bss:0000000000000030 globalThread2
     /tmp/ccCCjb08.s:1805   .bss:0000000000000028 globalThread1
     /tmp/ccCCjb08.s:1774   .data:0000000000000000 .LANCHOR1
     /tmp/ccCCjb08.s:1781   .bss:0000000000000000 .LANCHOR0
     /tmp/ccCCjb08.s:1824   .text:0000000000000c94 .L0 
     /tmp/ccCCjb08.s:8      .rodata.str1.8:0000000000000000 .LC0
     /tmp/ccCCjb08.s:53     .text:0000000000000028 .L0 
     /tmp/ccCCjb08.s:11     .rodata.str1.8:0000000000000010 .LC1
     /tmp/ccCCjb08.s:65     .text:000000000000004c .L0 
     /tmp/ccCCjb08.s:80     .rodata.str1.8:0000000000000018 .LC2
     /tmp/ccCCjb08.s:123    .text:000000000000009c .L0 
     /tmp/ccCCjb08.s:135    .text:00000000000000c0 .L0 
     /tmp/ccCCjb08.s:163    .rodata.str1.8:0000000000000028 .LC3
     /tmp/ccCCjb08.s:189    .text:000000000000010c .L0 
     /tmp/ccCCjb08.s:202    .text:0000000000000130 .L0 
     /tmp/ccCCjb08.s:228    .text:0000000000000160 .L0 
     /tmp/ccCCjb08.s:237    .rodata.str1.8:0000000000000030 .LC4
     /tmp/ccCCjb08.s:263    .text:000000000000018c .L0 
     /tmp/ccCCjb08.s:276    .text:00000000000001b0 .L0 
     /tmp/ccCCjb08.s:302    .text:00000000000001e0 .L0 
     /tmp/ccCCjb08.s:311    .rodata.str1.8:0000000000000038 .LC5
     /tmp/ccCCjb08.s:334    .text:0000000000000204 .L0 
     /tmp/ccCCjb08.s:339    .text:0000000000000214 .L0 
     /tmp/ccCCjb08.s:314    .rodata.str1.8:0000000000000060 .LC6
     /tmp/ccCCjb08.s:344    .text:0000000000000224 .L0 
     /tmp/ccCCjb08.s:361    .rodata.str1.8:0000000000000088 .LC7
     /tmp/ccCCjb08.s:399    .text:0000000000000260 .L0 
     /tmp/ccCCjb08.s:364    .rodata.str1.8:0000000000000098 .LC8
     /tmp/ccCCjb08.s:411    .text:000000000000027c .L0 
     /tmp/ccCCjb08.s:423    .text:00000000000002a0 .L0 
GAS LISTING /tmp/ccCCjb08.s 			page 65


     /tmp/ccCCjb08.s:428    .text:00000000000002b0 .L0 
     /tmp/ccCCjb08.s:441    .text:00000000000002c4 .L0 
     /tmp/ccCCjb08.s:448    .text:00000000000002d8 .L0 
     /tmp/ccCCjb08.s:367    .rodata.str1.8:00000000000000a8 .LC9
     /tmp/ccCCjb08.s:453    .text:00000000000002e4 .L0 
     /tmp/ccCCjb08.s:370    .rodata.str1.8:00000000000000b8 .LC10
     /tmp/ccCCjb08.s:465    .text:0000000000000308 .L0 
     /tmp/ccCCjb08.s:477    .text:000000000000032c .L0 
     /tmp/ccCCjb08.s:544    .text:0000000000000384 .L0 
     /tmp/ccCCjb08.s:560    .text:000000000000039c .L0 
     /tmp/ccCCjb08.s:567    .text:00000000000003b0 .L0 
     /tmp/ccCCjb08.s:512    .rodata.str1.8:00000000000000c8 .LC11
     /tmp/ccCCjb08.s:575    .text:00000000000003c0 .L0 
     /tmp/ccCCjb08.s:587    .text:00000000000003e4 .L0 
     /tmp/ccCCjb08.s:599    .text:0000000000000408 .L0 
     /tmp/ccCCjb08.s:607    .text:0000000000000420 .L0 
     /tmp/ccCCjb08.s:515    .rodata.str1.8:00000000000000d8 .LC12
     /tmp/ccCCjb08.s:616    .text:0000000000000434 .L0 
     /tmp/ccCCjb08.s:621    .text:0000000000000444 .L0 
     /tmp/ccCCjb08.s:755    .text:00000000000004f8 .L0 
     /tmp/ccCCjb08.s:731    .rodata.str1.8:00000000000000f8 .LC13
     /tmp/ccCCjb08.s:762    .text:0000000000000510 .L0 
     /tmp/ccCCjb08.s:776    .text:0000000000000538 .L0 
     /tmp/ccCCjb08.s:814    .text:0000000000000568 .L0 
     /tmp/ccCCjb08.s:790    .rodata.str1.8:0000000000000120 .LC14
     /tmp/ccCCjb08.s:821    .text:0000000000000580 .L0 
     /tmp/ccCCjb08.s:835    .text:00000000000005a8 .L0 
     /tmp/ccCCjb08.s:866    .text:00000000000005d8 .L0 
     /tmp/ccCCjb08.s:868    .text:00000000000005e4 .L0 
     /tmp/ccCCjb08.s:874    .text:00000000000005f8 .L0 
     /tmp/ccCCjb08.s:880    .text:000000000000060c .L0 
     /tmp/ccCCjb08.s:881    .text:0000000000000614 .L0 
     /tmp/ccCCjb08.s:887    .text:0000000000000628 .L0 
     /tmp/ccCCjb08.s:888    .text:0000000000000630 .L0 
     /tmp/ccCCjb08.s:917    .rodata.str1.8:0000000000000148 .LC15
     /tmp/ccCCjb08.s:965    .text:000000000000069c .L0 
     /tmp/ccCCjb08.s:920    .rodata.str1.8:0000000000000150 .LC16
     /tmp/ccCCjb08.s:979    .text:00000000000006bc .L0 
     /tmp/ccCCjb08.s:992    .text:00000000000006d8 .L0 
     /tmp/ccCCjb08.s:923    .rodata.str1.8:0000000000000158 .LC17
     /tmp/ccCCjb08.s:1073   .text:0000000000000768 .L0 
     /tmp/ccCCjb08.s:1087   .text:0000000000000780 .L0 
     /tmp/ccCCjb08.s:926    .rodata.str1.8:0000000000000168 .LC18
     /tmp/ccCCjb08.s:1121   .text:00000000000007c8 .L0 
     /tmp/ccCCjb08.s:1191   .text:000000000000084c .L0 
     /tmp/ccCCjb08.s:929    .rodata.str1.8:0000000000000170 .LC19
     /tmp/ccCCjb08.s:1254   .text:00000000000008c4 .L0 
     /tmp/ccCCjb08.s:1266   .text:00000000000008e8 .L0 
     /tmp/ccCCjb08.s:1343   .text:0000000000000940 .L0 
     /tmp/ccCCjb08.s:1350   .text:0000000000000958 .L0 
     /tmp/ccCCjb08.s:1303   .rodata.str1.8:0000000000000178 .LC20
     /tmp/ccCCjb08.s:1383   .text:000000000000099c .L0 
     /tmp/ccCCjb08.s:1306   .rodata.str1.8:0000000000000188 .LC21
     /tmp/ccCCjb08.s:1403   .text:00000000000009d4 .L0 
     /tmp/ccCCjb08.s:1309   .rodata.str1.8:0000000000000198 .LC22
     /tmp/ccCCjb08.s:1415   .text:00000000000009f8 .L0 
     /tmp/ccCCjb08.s:1312   .rodata.str1.8:00000000000001b0 .LC23
GAS LISTING /tmp/ccCCjb08.s 			page 66


     /tmp/ccCCjb08.s:1427   .text:0000000000000a18 .L0 
     /tmp/ccCCjb08.s:1439   .text:0000000000000a3c .L0 
     /tmp/ccCCjb08.s:1444   .text:0000000000000a4c .L0 
     /tmp/ccCCjb08.s:1453   .text:0000000000000a68 .L0 
     /tmp/ccCCjb08.s:1454   .text:0000000000000a70 .L0 
     /tmp/ccCCjb08.s:1315   .rodata.str1.8:00000000000001d0 .LC24
     /tmp/ccCCjb08.s:1471   .text:0000000000000a9c .L0 
     /tmp/ccCCjb08.s:1483   .text:0000000000000ac0 .L0 
     /tmp/ccCCjb08.s:1488   .text:0000000000000ad0 .L0 
     /tmp/ccCCjb08.s:1318   .rodata.str1.8:00000000000001f0 .LC25
     /tmp/ccCCjb08.s:1495   .text:0000000000000ae8 .L0 
     /tmp/ccCCjb08.s:1543   .text:0000000000000b2c .L0 
     /tmp/ccCCjb08.s:1547   .text:0000000000000b38 .L0 
     /tmp/ccCCjb08.s:1554   .text:0000000000000b50 .L0 
     /tmp/ccCCjb08.s:1515   .rodata.str1.8:0000000000000208 .LC26
     /tmp/ccCCjb08.s:1560   .text:0000000000000b64 .L0 
     /tmp/ccCCjb08.s:1666   .text:0000000000000c0c .L0 
     /tmp/ccCCjb08.s:1732   .text:0000000000000c48 .L0 
     /tmp/ccCCjb08.s:1738   .text:0000000000000c5c .L0 
     /tmp/ccCCjb08.s:49     .text:0000000000000028 .L3
     /tmp/ccCCjb08.s:43     .text:0000000000000024 .L2
     /tmp/ccCCjb08.s:38     .text:000000000000001c .L5
     /tmp/ccCCjb08.s:116    .text:0000000000000094 .L9
     /tmp/ccCCjb08.s:145    .text:00000000000000e0 .L6
     /tmp/ccCCjb08.s:111    .text:0000000000000090 .L8
     /tmp/ccCCjb08.s:106    .text:0000000000000088 .L11
     /tmp/ccCCjb08.s:223    .text:000000000000015c .L15
     /tmp/ccCCjb08.s:208    .text:0000000000000148 .L12
     /tmp/ccCCjb08.s:297    .text:00000000000001dc .L19
     /tmp/ccCCjb08.s:282    .text:00000000000001c8 .L16
     /tmp/ccCCjb08.s:490    .text:000000000000034c .L25
     /tmp/ccCCjb08.s:436    .text:00000000000002c4 .L24
     /tmp/ccCCjb08.s:625    .text:0000000000000454 .L27
     /tmp/ccCCjb08.s:613    .text:0000000000000434 .L32
     /tmp/ccCCjb08.s:556    .text:000000000000039c .L30
     /tmp/ccCCjb08.s:691    .text:00000000000004ac .L34
     /tmp/ccCCjb08.s:663    .text:0000000000000478 .L35
     /tmp/ccCCjb08.s:724    .text:00000000000004e0 .L38
     /tmp/ccCCjb08.s:751    .text:00000000000004f8 .L42
     /tmp/ccCCjb08.s:810    .text:0000000000000568 .L45
     /tmp/ccCCjb08.s:1028   .text:0000000000000724 .L63
     /tmp/ccCCjb08.s:1010   .text:0000000000000700 .L51
     /tmp/ccCCjb08.s:1039   .text:0000000000000730 .L50
     /tmp/ccCCjb08.s:1068   .text:0000000000000768 .L52
     /tmp/ccCCjb08.s:1035   .text:000000000000072c .L53
     /tmp/ccCCjb08.s:1045   .text:0000000000000738 .L54
     /tmp/ccCCjb08.s:1094   .text:0000000000000794 .L58
     /tmp/ccCCjb08.s:1128   .text:00000000000007e0 .L55
     /tmp/ccCCjb08.s:1083   .text:0000000000000780 .L56
     /tmp/ccCCjb08.s:1101   .text:000000000000079c .L57
     /tmp/ccCCjb08.s:1201   .text:0000000000000868 .L64
     /tmp/ccCCjb08.s:1144   .text:00000000000007f4 .L60
     /tmp/ccCCjb08.s:1228   .text:0000000000000894 .L59
     /tmp/ccCCjb08.s:1250   .text:00000000000008c4 .L61
     /tmp/ccCCjb08.s:1211   .text:0000000000000874 .L62
     /tmp/ccCCjb08.s:1367   .text:0000000000000980 .L68
     /tmp/ccCCjb08.s:1358   .text:0000000000000974 .L70
GAS LISTING /tmp/ccCCjb08.s 			page 67


     /tmp/ccCCjb08.s:1586   .text:0000000000000b98 .L72
     /tmp/ccCCjb08.s:1569   .text:0000000000000b80 .L73
     /tmp/ccCCjb08.s:4918   .debug_abbrev:0000000000000000 .Ldebug_abbrev0
     /tmp/ccCCjb08.s:6828   .debug_str:00000000000009d6 .LASF216
     /tmp/ccCCjb08.s:6582   .debug_str:00000000000002c2 .LASF217
     /tmp/ccCCjb08.s:6590   .debug_str:00000000000002eb .LASF218
     /tmp/ccCCjb08.s:5      .text:0000000000000000 .Ltext0
     /tmp/ccCCjb08.s:1816   .text:0000000000000c94 .Letext0
     /tmp/ccCCjb08.s:6472   .debug_line:0000000000000000 .Ldebug_line0
     /tmp/ccCCjb08.s:6618   .debug_str:00000000000003ce .LASF0
     /tmp/ccCCjb08.s:6650   .debug_str:00000000000004a1 .LASF1
     /tmp/ccCCjb08.s:6768   .debug_str:0000000000000837 .LASF2
     /tmp/ccCCjb08.s:6778   .debug_str:000000000000088d .LASF4
     /tmp/ccCCjb08.s:6632   .debug_str:0000000000000421 .LASF3
     /tmp/ccCCjb08.s:6486   .debug_str:0000000000000048 .LASF5
     /tmp/ccCCjb08.s:6734   .debug_str:0000000000000725 .LASF6
     /tmp/ccCCjb08.s:6640   .debug_str:0000000000000469 .LASF7
     /tmp/ccCCjb08.s:6588   .debug_str:00000000000002db .LASF8
     /tmp/ccCCjb08.s:6596   .debug_str:000000000000032d .LASF9
     /tmp/ccCCjb08.s:6524   .debug_str:000000000000014b .LASF10
     /tmp/ccCCjb08.s:6580   .debug_str:00000000000002b3 .LASF11
     /tmp/ccCCjb08.s:6544   .debug_str:00000000000001cf .LASF12
     /tmp/ccCCjb08.s:6522   .debug_str:000000000000013b .LASF13
     /tmp/ccCCjb08.s:6806   .debug_str:0000000000000943 .LASF14
     /tmp/ccCCjb08.s:6570   .debug_str:0000000000000270 .LASF15
     /tmp/ccCCjb08.s:6794   .debug_str:0000000000000905 .LASF16
     /tmp/ccCCjb08.s:6870   .debug_str:0000000000000bb2 .LASF115
     /tmp/ccCCjb08.s:6858   .debug_str:0000000000000b5e .LASF219
     /tmp/ccCCjb08.s:6578   .debug_str:00000000000002a7 .LASF17
     /tmp/ccCCjb08.s:6826   .debug_str:00000000000009c9 .LASF18
     /tmp/ccCCjb08.s:6550   .debug_str:00000000000001fc .LASF19
     /tmp/ccCCjb08.s:6606   .debug_str:0000000000000369 .LASF52
     /tmp/ccCCjb08.s:6616   .debug_str:00000000000003b6 .LASF54
     /tmp/ccCCjb08.s:6850   .debug_str:0000000000000b1e .LASF20
     /tmp/ccCCjb08.s:6844   .debug_str:0000000000000afb .LASF22
     /tmp/ccCCjb08.s:6762   .debug_str:000000000000080e .LASF24
     /tmp/ccCCjb08.s:6720   .debug_str:000000000000069f .LASF26
     /tmp/ccCCjb08.s:6742   .debug_str:0000000000000769 .LASF21
     /tmp/ccCCjb08.s:6744   .debug_str:0000000000000770 .LASF23
     /tmp/ccCCjb08.s:6708   .debug_str:0000000000000651 .LASF25
     /tmp/ccCCjb08.s:6642   .debug_str:000000000000047c .LASF27
     /tmp/ccCCjb08.s:6890   .debug_str:0000000000000c57 .LASF28
     /tmp/ccCCjb08.s:6832   .debug_str:0000000000000ab5 .LASF29
     /tmp/ccCCjb08.s:6704   .debug_str:0000000000000644 .LASF30
     /tmp/ccCCjb08.s:6718   .debug_str:000000000000068b .LASF31
     /tmp/ccCCjb08.s:6666   .debug_str:000000000000052d .LASF32
     /tmp/ccCCjb08.s:6748   .debug_str:0000000000000794 .LASF33
     /tmp/ccCCjb08.s:6912   .debug_str:0000000000000d12 .LASF34
     /tmp/ccCCjb08.s:6626   .debug_str:00000000000003f1 .LASF35
     /tmp/ccCCjb08.s:6802   .debug_str:0000000000000934 .LASF36
     /tmp/ccCCjb08.s:6782   .debug_str:00000000000008a9 .LASF37
     /tmp/ccCCjb08.s:6784   .debug_str:00000000000008bc .LASF38
     /tmp/ccCCjb08.s:6528   .debug_str:000000000000015f .LASF39
     /tmp/ccCCjb08.s:6562   .debug_str:0000000000000243 .LASF40
     /tmp/ccCCjb08.s:6612   .debug_str:000000000000039b .LASF41
     /tmp/ccCCjb08.s:6624   .debug_str:00000000000003eb .LASF42
     /tmp/ccCCjb08.s:6554   .debug_str:0000000000000215 .LASF43
GAS LISTING /tmp/ccCCjb08.s 			page 68


     /tmp/ccCCjb08.s:6488   .debug_str:000000000000004f .LASF44
     /tmp/ccCCjb08.s:6774   .debug_str:0000000000000861 .LASF45
     /tmp/ccCCjb08.s:6766   .debug_str:000000000000082c .LASF46
     /tmp/ccCCjb08.s:6910   .debug_str:0000000000000cfa .LASF47
     /tmp/ccCCjb08.s:6874   .debug_str:0000000000000bc1 .LASF48
     /tmp/ccCCjb08.s:6896   .debug_str:0000000000000c7c .LASF49
     /tmp/ccCCjb08.s:6868   .debug_str:0000000000000ba8 .LASF50
     /tmp/ccCCjb08.s:6688   .debug_str:00000000000005af .LASF51
     /tmp/ccCCjb08.s:6884   .debug_str:0000000000000c31 .LASF53
     /tmp/ccCCjb08.s:6594   .debug_str:0000000000000311 .LASF55
     /tmp/ccCCjb08.s:6740   .debug_str:0000000000000754 .LASF70
     /tmp/ccCCjb08.s:6638   .debug_str:0000000000000447 .LASF72
     /tmp/ccCCjb08.s:6498   .debug_str:00000000000000a8 .LASF56
     /tmp/ccCCjb08.s:6812   .debug_str:0000000000000971 .LASF57
     /tmp/ccCCjb08.s:6852   .debug_str:0000000000000b27 .LASF58
     /tmp/ccCCjb08.s:6646   .debug_str:0000000000000497 .LASF59
     /tmp/ccCCjb08.s:6526   .debug_str:000000000000015a .LASF60
     /tmp/ccCCjb08.s:6478   .debug_str:000000000000000c .LASF61
     /tmp/ccCCjb08.s:6504   .debug_str:00000000000000cc .LASF62
     /tmp/ccCCjb08.s:6792   .debug_str:00000000000008fc .LASF63
     /tmp/ccCCjb08.s:6906   .debug_str:0000000000000cde .LASF64
     /tmp/ccCCjb08.s:6842   .debug_str:0000000000000af3 .LASF65
     /tmp/ccCCjb08.s:6834   .debug_str:0000000000000ac9 .LASF66
     /tmp/ccCCjb08.s:6686   .debug_str:00000000000005a4 .LASF67
     /tmp/ccCCjb08.s:6760   .debug_str:0000000000000804 .LASF68
     /tmp/ccCCjb08.s:6634   .debug_str:0000000000000433 .LASF69
     /tmp/ccCCjb08.s:6690   .debug_str:00000000000005c5 .LASF71
     /tmp/ccCCjb08.s:6728   .debug_str:00000000000006f0 .LASF73
     /tmp/ccCCjb08.s:6576   .debug_str:000000000000029c .LASF74
     /tmp/ccCCjb08.s:6902   .debug_str:0000000000000cb4 .LASF75
     /tmp/ccCCjb08.s:6808   .debug_str:000000000000094f .LASF76
     /tmp/ccCCjb08.s:6862   .debug_str:0000000000000b72 .LASF77
     /tmp/ccCCjb08.s:6656   .debug_str:00000000000004d9 .LASF78
     /tmp/ccCCjb08.s:6536   .debug_str:000000000000019e .LASF79
     /tmp/ccCCjb08.s:6800   .debug_str:000000000000092f .LASF80
     /tmp/ccCCjb08.s:6706   .debug_str:000000000000064c .LASF81
     /tmp/ccCCjb08.s:6674   .debug_str:0000000000000551 .LASF96
     /tmp/ccCCjb08.s:6506   .debug_str:00000000000000d4 .LASF109
     /tmp/ccCCjb08.s:6670   .debug_str:000000000000053b .LASF82
     /tmp/ccCCjb08.s:6780   .debug_str:0000000000000894 .LASF83
     /tmp/ccCCjb08.s:6572   .debug_str:0000000000000286 .LASF84
     /tmp/ccCCjb08.s:6684   .debug_str:000000000000058a .LASF85
     /tmp/ccCCjb08.s:6654   .debug_str:00000000000004cc .LASF86
     /tmp/ccCCjb08.s:6824   .debug_str:00000000000009c1 .LASF87
     /tmp/ccCCjb08.s:6788   .debug_str:00000000000008cf .LASF88
     /tmp/ccCCjb08.s:6876   .debug_str:0000000000000bcb .LASF89
     /tmp/ccCCjb08.s:6512   .debug_str:0000000000000100 .LASF90
     /tmp/ccCCjb08.s:6754   .debug_str:00000000000007c5 .LASF91
     /tmp/ccCCjb08.s:6534   .debug_str:000000000000018f .LASF92
     /tmp/ccCCjb08.s:6484   .debug_str:000000000000002a .LASF93
     /tmp/ccCCjb08.s:6682   .debug_str:0000000000000585 .LASF94
     /tmp/ccCCjb08.s:6814   .debug_str:0000000000000979 .LASF95
     /tmp/ccCCjb08.s:6830   .debug_str:0000000000000a9a .LASF97
     /tmp/ccCCjb08.s:6730   .debug_str:000000000000070a .LASF98
     /tmp/ccCCjb08.s:6652   .debug_str:00000000000004b4 .LASF100
     /tmp/ccCCjb08.s:6916   .debug_str:0000000000000d23 .LASF99
     /tmp/ccCCjb08.s:6908   .debug_str:0000000000000ce4 .LASF101
GAS LISTING /tmp/ccCCjb08.s 			page 69


     /tmp/ccCCjb08.s:6556   .debug_str:0000000000000227 .LASF102
     /tmp/ccCCjb08.s:6756   .debug_str:00000000000007e2 .LASF103
     /tmp/ccCCjb08.s:6804   .debug_str:000000000000093b .LASF104
     /tmp/ccCCjb08.s:6702   .debug_str:000000000000062f .LASF105
     /tmp/ccCCjb08.s:6508   .debug_str:00000000000000ec .LASF106
     /tmp/ccCCjb08.s:6546   .debug_str:00000000000001df .LASF107
     /tmp/ccCCjb08.s:6636   .debug_str:000000000000043e .LASF108
     /tmp/ccCCjb08.s:6892   .debug_str:0000000000000c5f .LASF110
     /tmp/ccCCjb08.s:6866   .debug_str:0000000000000b9f .LASF111
     /tmp/ccCCjb08.s:6822   .debug_str:00000000000009b9 .LASF112
     /tmp/ccCCjb08.s:6494   .debug_str:0000000000000090 .LASF113
     /tmp/ccCCjb08.s:6648   .debug_str:000000000000049c .LASF114
     /tmp/ccCCjb08.s:6598   .debug_str:000000000000033b .LASF116
     /tmp/ccCCjb08.s:6698   .debug_str:0000000000000603 .LASF117
     /tmp/ccCCjb08.s:6476   .debug_str:0000000000000005 .LASF118
     /tmp/ccCCjb08.s:6628   .debug_str:0000000000000405 .LASF119
     /tmp/ccCCjb08.s:6664   .debug_str:0000000000000504 .LASF120
     /tmp/ccCCjb08.s:6854   .debug_str:0000000000000b2c .LASF121
     /tmp/ccCCjb08.s:6700   .debug_str:000000000000060c .LASF122
     /tmp/ccCCjb08.s:6692   .debug_str:00000000000005d0 .LASF123
     /tmp/ccCCjb08.s:6490   .debug_str:000000000000005a .LASF124
     /tmp/ccCCjb08.s:6614   .debug_str:00000000000003ad .LASF125
     /tmp/ccCCjb08.s:6694   .debug_str:00000000000005da .LASF126
     /tmp/ccCCjb08.s:6672   .debug_str:0000000000000542 .LASF127
     /tmp/ccCCjb08.s:6856   .debug_str:0000000000000b37 .LASF128
     /tmp/ccCCjb08.s:6482   .debug_str:0000000000000021 .LASF129
     /tmp/ccCCjb08.s:6732   .debug_str:0000000000000716 .LASF130
     /tmp/ccCCjb08.s:6820   .debug_str:000000000000099a .LASF131
     /tmp/ccCCjb08.s:6566   .debug_str:0000000000000253 .LASF132
     /tmp/ccCCjb08.s:6610   .debug_str:000000000000037c .LASF133
     /tmp/ccCCjb08.s:6772   .debug_str:0000000000000851 .LASF134
     /tmp/ccCCjb08.s:6790   .debug_str:00000000000008dc .LASF135
     /tmp/ccCCjb08.s:6676   .debug_str:0000000000000559 .LASF136
     /tmp/ccCCjb08.s:6678   .debug_str:0000000000000567 .LASF137
     /tmp/ccCCjb08.s:6558   .debug_str:000000000000022f .LASF138
     /tmp/ccCCjb08.s:6714   .debug_str:0000000000000678 .LASF139
     /tmp/ccCCjb08.s:6584   .debug_str:00000000000002cf .LASF140
     /tmp/ccCCjb08.s:6798   .debug_str:0000000000000925 .LASF141
     /tmp/ccCCjb08.s:6608   .debug_str:0000000000000374 .LASF142
     /tmp/ccCCjb08.s:6786   .debug_str:00000000000008c3 .LASF143
     /tmp/ccCCjb08.s:6568   .debug_str:0000000000000262 .LASF144
     /tmp/ccCCjb08.s:6592   .debug_str:0000000000000309 .LASF145
     /tmp/ccCCjb08.s:6758   .debug_str:00000000000007f9 .LASF146
     /tmp/ccCCjb08.s:6586   .debug_str:00000000000002d6 .LASF147
     /tmp/ccCCjb08.s:1649   .text:0000000000000bf4 .LFB40
     /tmp/ccCCjb08.s:1761   .text:0000000000000c94 .LFE40
     /tmp/ccCCjb08.s:6878   .debug_str:0000000000000bf6 .LASF148
     /tmp/ccCCjb08.s:5973   .debug_loc:0000000000000000 .LLST33
     /tmp/ccCCjb08.s:6894   .debug_str:0000000000000c75 .LASF149
     /tmp/ccCCjb08.s:6710   .debug_str:0000000000000658 .LASF150
     /tmp/ccCCjb08.s:1668   .text:0000000000000c14 .LBB22
     /tmp/ccCCjb08.s:1680   .text:0000000000000c18 .LBE22
     /tmp/ccCCjb08.s:1682   .text:0000000000000c18 .LBB24
     /tmp/ccCCjb08.s:1698   .text:0000000000000c24 .LBE24
     /tmp/ccCCjb08.s:1705   .text:0000000000000c28 .LBB26
     /tmp/ccCCjb08.s:1716   .text:0000000000000c2c .LBE26
     /tmp/ccCCjb08.s:5988   .debug_loc:000000000000003a .LLST34
GAS LISTING /tmp/ccCCjb08.s 			page 70


     /tmp/ccCCjb08.s:1663   .text:0000000000000c0c .LVL191
     /tmp/ccCCjb08.s:1729   .text:0000000000000c48 .LVL197
     /tmp/ccCCjb08.s:1741   .text:0000000000000c70 .LVL198
     /tmp/ccCCjb08.s:1745   .text:0000000000000c78 .LVL199
     /tmp/ccCCjb08.s:1750   .text:0000000000000c84 .LVL200
     /tmp/ccCCjb08.s:6770   .debug_str:0000000000000845 .LASF151
     /tmp/ccCCjb08.s:6532   .debug_str:000000000000017d .LASF153
     /tmp/ccCCjb08.s:1618   .text:0000000000000bcc .LFB39
     /tmp/ccCCjb08.s:1643   .text:0000000000000bf4 .LFE39
     /tmp/ccCCjb08.s:1632   .text:0000000000000be4 .LVL190
     /tmp/ccCCjb08.s:6816   .debug_str:000000000000097e .LASF152
     /tmp/ccCCjb08.s:6496   .debug_str:0000000000000095 .LASF154
     /tmp/ccCCjb08.s:1522   .text:0000000000000b0c .LFB38
     /tmp/ccCCjb08.s:1612   .text:0000000000000bcc .LFE38
     /tmp/ccCCjb08.s:6838   .debug_str:0000000000000ae1 .LASF155
     /tmp/ccCCjb08.s:6548   .debug_str:00000000000001f6 .LASF156
     /tmp/ccCCjb08.s:5995   .debug_loc:000000000000005d .LLST32
     /tmp/ccCCjb08.s:1541   .text:0000000000000b2c .LVL178
     /tmp/ccCCjb08.s:1550   .text:0000000000000b4c .LVL179
     /tmp/ccCCjb08.s:1557   .text:0000000000000b64 .LVL180
     /tmp/ccCCjb08.s:1562   .text:0000000000000b74 .LVL181
     /tmp/ccCCjb08.s:1566   .text:0000000000000b7c .LVL182
     /tmp/ccCCjb08.s:1578   .text:0000000000000b90 .LVL184
     /tmp/ccCCjb08.s:1592   .text:0000000000000ba8 .LVL187
     /tmp/ccCCjb08.s:1598   .text:0000000000000bb8 .LVL188
     /tmp/ccCCjb08.s:6836   .debug_str:0000000000000ad3 .LASF157
     /tmp/ccCCjb08.s:6752   .debug_str:00000000000007b1 .LASF158
     /tmp/ccCCjb08.s:797    .text:0000000000000554 .LFB37
     /tmp/ccCCjb08.s:845    .text:00000000000005c4 .LFE37
     /tmp/ccCCjb08.s:818    .text:0000000000000580 .LVL86
     /tmp/ccCCjb08.s:823    .text:0000000000000590 .LVL87
     /tmp/ccCCjb08.s:832    .text:00000000000005a8 .LVL88
     /tmp/ccCCjb08.s:837    .text:00000000000005b8 .LVL89
     /tmp/ccCCjb08.s:841    .text:00000000000005c0 .LVL90
     /tmp/ccCCjb08.s:6818   .debug_str:000000000000098c .LASF159
     /tmp/ccCCjb08.s:6518   .debug_str:0000000000000121 .LASF160
     /tmp/ccCCjb08.s:738    .text:00000000000004e4 .LFB36
     /tmp/ccCCjb08.s:786    .text:0000000000000554 .LFE36
     /tmp/ccCCjb08.s:759    .text:0000000000000510 .LVL81
     /tmp/ccCCjb08.s:764    .text:0000000000000520 .LVL82
     /tmp/ccCCjb08.s:773    .text:0000000000000538 .LVL83
     /tmp/ccCCjb08.s:778    .text:0000000000000548 .LVL84
     /tmp/ccCCjb08.s:782    .text:0000000000000550 .LVL85
     /tmp/ccCCjb08.s:6510   .debug_str:00000000000000f6 .LASF161
     /tmp/ccCCjb08.s:6560   .debug_str:0000000000000235 .LASF162
     /tmp/ccCCjb08.s:1325   .text:0000000000000928 .LFB35
     /tmp/ccCCjb08.s:1511   .text:0000000000000b0c .LFE35
     /tmp/ccCCjb08.s:6006   .debug_loc:0000000000000093 .LLST30
     /tmp/ccCCjb08.s:6644   .debug_str:000000000000048f .LASF163
     /tmp/ccCCjb08.s:6013   .debug_loc:00000000000000b6 .LLST31
     /tmp/ccCCjb08.s:1346   .text:0000000000000954 .LVL147
     /tmp/ccCCjb08.s:1353   .text:000000000000096c .LVL148
     /tmp/ccCCjb08.s:1362   .text:000000000000097c .LVL150
     /tmp/ccCCjb08.s:1378   .text:0000000000000998 .LVL152
     /tmp/ccCCjb08.s:1385   .text:00000000000009ac .LVL154
     /tmp/ccCCjb08.s:1392   .text:00000000000009c0 .LVL155
     /tmp/ccCCjb08.s:1398   .text:00000000000009d0 .LVL156
GAS LISTING /tmp/ccCCjb08.s 			page 71


     /tmp/ccCCjb08.s:1405   .text:00000000000009e4 .LVL158
     /tmp/ccCCjb08.s:1412   .text:00000000000009f8 .LVL159
     /tmp/ccCCjb08.s:1417   .text:0000000000000a08 .LVL160
     /tmp/ccCCjb08.s:1422   .text:0000000000000a14 .LVL161
     /tmp/ccCCjb08.s:1429   .text:0000000000000a28 .LVL163
     /tmp/ccCCjb08.s:1436   .text:0000000000000a3c .LVL164
     /tmp/ccCCjb08.s:1441   .text:0000000000000a4c .LVL165
     /tmp/ccCCjb08.s:1449   .text:0000000000000a64 .LVL167
     /tmp/ccCCjb08.s:1456   .text:0000000000000a80 .LVL168
     /tmp/ccCCjb08.s:1460   .text:0000000000000a88 .LVL169
     /tmp/ccCCjb08.s:1466   .text:0000000000000a98 .LVL170
     /tmp/ccCCjb08.s:1473   .text:0000000000000aac .LVL172
     /tmp/ccCCjb08.s:1480   .text:0000000000000ac0 .LVL173
     /tmp/ccCCjb08.s:1485   .text:0000000000000ad0 .LVL174
     /tmp/ccCCjb08.s:1492   .text:0000000000000ae8 .LVL175
     /tmp/ccCCjb08.s:1497   .text:0000000000000af8 .LVL176
     /tmp/ccCCjb08.s:6900   .debug_str:0000000000000c9e .LASF164
     /tmp/ccCCjb08.s:6722   .debug_str:00000000000006b4 .LASF165
     /tmp/ccCCjb08.s:321    .text:00000000000001f4 .LFB34
     /tmp/ccCCjb08.s:357    .text:0000000000000244 .LFE34
     /tmp/ccCCjb08.s:336    .text:0000000000000214 .LVL33
     /tmp/ccCCjb08.s:341    .text:0000000000000224 .LVL34
     /tmp/ccCCjb08.s:346    .text:0000000000000234 .LVL35
     /tmp/ccCCjb08.s:6552   .debug_str:0000000000000208 .LASF166
     /tmp/ccCCjb08.s:6662   .debug_str:00000000000004f2 .LASF169
     /tmp/ccCCjb08.s:936    .text:000000000000066c .LFB33
     /tmp/ccCCjb08.s:1299   .text:0000000000000928 .LFE33
     /tmp/ccCCjb08.s:6024   .debug_loc:00000000000000ec .LLST17
     /tmp/ccCCjb08.s:6039   .debug_loc:0000000000000126 .LLST18
     /tmp/ccCCjb08.s:6048   .debug_loc:000000000000014b .LLST19
     /tmp/ccCCjb08.s:6696   .debug_str:00000000000005fb .LASF167
     /tmp/ccCCjb08.s:6059   .debug_loc:0000000000000181 .LLST20
     /tmp/ccCCjb08.s:6070   .debug_loc:00000000000001b7 .LLST21
     /tmp/ccCCjb08.s:1006   .text:00000000000006fc .LBB11
     /tmp/ccCCjb08.s:1029   .text:0000000000000724 .LBE11
     /tmp/ccCCjb08.s:6081   .debug_loc:00000000000001ed .LLST22
     /tmp/ccCCjb08.s:1020   .text:0000000000000718 .LVL109
     /tmp/ccCCjb08.s:1030   .text:0000000000000724 .LBB12
     /tmp/ccCCjb08.s:1070   .text:0000000000000768 .LBE12
     /tmp/ccCCjb08.s:6097   .debug_loc:0000000000000237 .LLST23
     /tmp/ccCCjb08.s:1042   .text:0000000000000734 .LBB13
     /tmp/ccCCjb08.s:1069   .text:0000000000000768 .LBE13
     /tmp/ccCCjb08.s:6104   .debug_loc:000000000000025a .LLST24
     /tmp/ccCCjb08.s:1052   .text:0000000000000744 .LVL115
     /tmp/ccCCjb08.s:1077   .text:0000000000000778 .LBB14
     /tmp/ccCCjb08.s:1131   .text:00000000000007e0 .LBE14
     /tmp/ccCCjb08.s:6115   .debug_loc:0000000000000290 .LLST25
     /tmp/ccCCjb08.s:1098   .text:0000000000000798 .LBB16
     /tmp/ccCCjb08.s:1129   .text:00000000000007e0 .LBE16
     /tmp/ccCCjb08.s:6127   .debug_loc:00000000000002c7 .LLST26
     /tmp/ccCCjb08.s:1118   .text:00000000000007c8 .LVL123
     /tmp/ccCCjb08.s:1123   .text:00000000000007d8 .LVL124
     /tmp/ccCCjb08.s:1089   .text:0000000000000790 .LVL120
     /tmp/ccCCjb08.s:1140   .text:00000000000007f0 .LBB18
     /tmp/ccCCjb08.s:1202   .text:0000000000000868 .LBE18
     /tmp/ccCCjb08.s:6138   .debug_loc:00000000000002fd .LLST27
     /tmp/ccCCjb08.s:1147   .text:00000000000007f8 .LBB19
GAS LISTING /tmp/ccCCjb08.s 			page 72


     /tmp/ccCCjb08.s:1195   .text:0000000000000860 .LBE19
     /tmp/ccCCjb08.s:6154   .debug_loc:0000000000000347 .LLST28
     /tmp/ccCCjb08.s:1152   .text:0000000000000804 .LVL129
     /tmp/ccCCjb08.s:1185   .text:0000000000000844 .LVL131
     /tmp/ccCCjb08.s:1194   .text:0000000000000860 .LVL132
     /tmp/ccCCjb08.s:6458   .debug_ranges:0000000000000000 .Ldebug_ranges0
     /tmp/ccCCjb08.s:6161   .debug_loc:000000000000036a .LLST29
     /tmp/ccCCjb08.s:1240   .text:00000000000008b0 .LVL138
     /tmp/ccCCjb08.s:1248   .text:00000000000008c0 .LVL139
     /tmp/ccCCjb08.s:967    .text:00000000000006ac .LVL97
     /tmp/ccCCjb08.s:971    .text:00000000000006b4 .LVL98
     /tmp/ccCCjb08.s:982    .text:00000000000006cc .LVL101
     /tmp/ccCCjb08.s:986    .text:00000000000006d4 .LVL102
     /tmp/ccCCjb08.s:995    .text:00000000000006e8 .LVL105
     /tmp/ccCCjb08.s:1002   .text:00000000000006f8 .LVL106
     /tmp/ccCCjb08.s:1075   .text:0000000000000778 .LVL117
     /tmp/ccCCjb08.s:1136   .text:00000000000007ec .LVL126
     /tmp/ccCCjb08.s:1256   .text:00000000000008d4 .LVL140
     /tmp/ccCCjb08.s:1263   .text:00000000000008e8 .LVL141
     /tmp/ccCCjb08.s:1268   .text:00000000000008f8 .LVL142
     /tmp/ccCCjb08.s:6530   .debug_str:0000000000000172 .LASF168
     /tmp/ccCCjb08.s:6746   .debug_str:0000000000000783 .LASF170
     /tmp/ccCCjb08.s:649    .text:0000000000000470 .LFB32
     /tmp/ccCCjb08.s:727    .text:00000000000004e4 .LFE32
     /tmp/ccCCjb08.s:6168   .debug_loc:000000000000038d .LLST13
     /tmp/ccCCjb08.s:6186   .debug_loc:00000000000003d9 .LLST14
     /tmp/ccCCjb08.s:6204   .debug_loc:0000000000000425 .LLST15
     /tmp/ccCCjb08.s:6224   .debug_loc:0000000000000482 .LLST16
     /tmp/ccCCjb08.s:713    .text:00000000000004d0 .LVL79
     /tmp/ccCCjb08.s:6620   .debug_str:00000000000003db .LASF171
     /tmp/ccCCjb08.s:6680   .debug_str:0000000000000575 .LASF172
     /tmp/ccCCjb08.s:851    .text:00000000000005c4 .LFB31
     /tmp/ccCCjb08.s:913    .text:000000000000066c .LFE31
     /tmp/ccCCjb08.s:870    .text:00000000000005f4 .LVL91
     /tmp/ccCCjb08.s:876    .text:0000000000000608 .LVL92
     /tmp/ccCCjb08.s:883    .text:0000000000000624 .LVL93
     /tmp/ccCCjb08.s:890    .text:0000000000000640 .LVL94
     /tmp/ccCCjb08.s:895    .text:000000000000064c .LVL95
     /tmp/ccCCjb08.s:900    .text:0000000000000658 .LVL96
     /tmp/ccCCjb08.s:6750   .debug_str:00000000000007a8 .LASF173
     /tmp/ccCCjb08.s:6514   .debug_str:000000000000010e .LASF174
     /tmp/ccCCjb08.s:522    .text:0000000000000368 .LFB30
     /tmp/ccCCjb08.s:643    .text:0000000000000470 .LFE30
     /tmp/ccCCjb08.s:6240   .debug_loc:00000000000004cc .LLST10
     /tmp/ccCCjb08.s:6254   .debug_loc:0000000000000505 .LLST11
     /tmp/ccCCjb08.s:6265   .debug_loc:000000000000053b .LLST12
     /tmp/ccCCjb08.s:562    .text:00000000000003ac .LVL62
     /tmp/ccCCjb08.s:577    .text:00000000000003d0 .LVL64
     /tmp/ccCCjb08.s:584    .text:00000000000003e4 .LVL65
     /tmp/ccCCjb08.s:589    .text:00000000000003f4 .LVL66
     /tmp/ccCCjb08.s:596    .text:0000000000000408 .LVL67
     /tmp/ccCCjb08.s:601    .text:0000000000000418 .LVL68
     /tmp/ccCCjb08.s:609    .text:0000000000000430 .LVL69
     /tmp/ccCCjb08.s:618    .text:0000000000000444 .LVL70
     /tmp/ccCCjb08.s:623    .text:0000000000000454 .LVL71
     /tmp/ccCCjb08.s:6872   .debug_str:0000000000000bb8 .LASF175
     /tmp/ccCCjb08.s:6716   .debug_str:000000000000067d .LASF176
GAS LISTING /tmp/ccCCjb08.s 			page 73


     /tmp/ccCCjb08.s:377    .text:0000000000000244 .LFB29
     /tmp/ccCCjb08.s:508    .text:0000000000000368 .LFE29
     /tmp/ccCCjb08.s:6287   .debug_loc:0000000000000592 .LLST6
     /tmp/ccCCjb08.s:6301   .debug_loc:00000000000005cb .LLST7
     /tmp/ccCCjb08.s:6319   .debug_loc:0000000000000617 .LLST8
     /tmp/ccCCjb08.s:438    .text:00000000000002c4 .LBB8
     /tmp/ccCCjb08.s:485    .text:0000000000000348 .LBE8
     /tmp/ccCCjb08.s:6326   .debug_loc:000000000000063a .LLST9
     /tmp/ccCCjb08.s:443    .text:00000000000002d4 .LVL47
     /tmp/ccCCjb08.s:455    .text:00000000000002f4 .LVL49
     /tmp/ccCCjb08.s:462    .text:0000000000000308 .LVL50
     /tmp/ccCCjb08.s:467    .text:0000000000000318 .LVL51
     /tmp/ccCCjb08.s:474    .text:000000000000032c .LVL52
     /tmp/ccCCjb08.s:479    .text:000000000000033c .LVL53
     /tmp/ccCCjb08.s:484    .text:0000000000000348 .LVL54
     /tmp/ccCCjb08.s:402    .text:0000000000000270 .LVL39
     /tmp/ccCCjb08.s:406    .text:0000000000000278 .LVL40
     /tmp/ccCCjb08.s:413    .text:000000000000028c .LVL42
     /tmp/ccCCjb08.s:420    .text:00000000000002a0 .LVL43
     /tmp/ccCCjb08.s:425    .text:00000000000002b0 .LVL44
     /tmp/ccCCjb08.s:6604   .debug_str:0000000000000364 .LASF177
     /tmp/ccCCjb08.s:6564   .debug_str:0000000000000249 .LASF178
     /tmp/ccCCjb08.s:244    .text:0000000000000174 .LFB28
     /tmp/ccCCjb08.s:307    .text:00000000000001f4 .LFE28
     /tmp/ccCCjb08.s:6333   .debug_loc:000000000000065d .LLST4
     /tmp/ccCCjb08.s:6355   .debug_loc:00000000000006bc .LLST5
     /tmp/ccCCjb08.s:266    .text:000000000000019c .LVL27
     /tmp/ccCCjb08.s:273    .text:00000000000001b0 .LVL28
     /tmp/ccCCjb08.s:278    .text:00000000000001c0 .LVL29
     /tmp/ccCCjb08.s:304    .text:00000000000001f0 .LVL32
     /tmp/ccCCjb08.s:6848   .debug_str:0000000000000b19 .LASF179
     /tmp/ccCCjb08.s:6660   .debug_str:00000000000004e8 .LASF180
     /tmp/ccCCjb08.s:170    .text:00000000000000f4 .LFB27
     /tmp/ccCCjb08.s:233    .text:0000000000000174 .LFE27
     /tmp/ccCCjb08.s:6377   .debug_loc:000000000000071b .LLST2
     /tmp/ccCCjb08.s:6399   .debug_loc:000000000000077a .LLST3
     /tmp/ccCCjb08.s:192    .text:000000000000011c .LVL18
     /tmp/ccCCjb08.s:199    .text:0000000000000130 .LVL19
     /tmp/ccCCjb08.s:204    .text:0000000000000140 .LVL20
     /tmp/ccCCjb08.s:230    .text:0000000000000170 .LVL23
     /tmp/ccCCjb08.s:6520   .debug_str:0000000000000135 .LASF181
     /tmp/ccCCjb08.s:6574   .debug_str:0000000000000291 .LASF182
     /tmp/ccCCjb08.s:87     .text:000000000000006c .LFB26
     /tmp/ccCCjb08.s:159    .text:00000000000000f4 .LFE26
     /tmp/ccCCjb08.s:6421   .debug_loc:00000000000007d9 .LLST1
     /tmp/ccCCjb08.s:110    .text:0000000000000090 .LVL9
     /tmp/ccCCjb08.s:125    .text:00000000000000ac .LVL11
     /tmp/ccCCjb08.s:132    .text:00000000000000c0 .LVL12
     /tmp/ccCCjb08.s:137    .text:00000000000000d0 .LVL13
     /tmp/ccCCjb08.s:6516   .debug_str:000000000000011c .LASF183
     /tmp/ccCCjb08.s:6796   .debug_str:000000000000091b .LASF184
     /tmp/ccCCjb08.s:18     .text:0000000000000000 .LFB25
     /tmp/ccCCjb08.s:76     .text:000000000000006c .LFE25
     /tmp/ccCCjb08.s:6433   .debug_loc:0000000000000810 .LLST0
     /tmp/ccCCjb08.s:42     .text:0000000000000024 .LVL2
     /tmp/ccCCjb08.s:55     .text:0000000000000038 .LVL4
     /tmp/ccCCjb08.s:62     .text:000000000000004c .LVL5
GAS LISTING /tmp/ccCCjb08.s 			page 74


     /tmp/ccCCjb08.s:67     .text:000000000000005c .LVL6
     /tmp/ccCCjb08.s:6860   .debug_str:0000000000000b6d .LASF185
     /tmp/ccCCjb08.s:6668   .debug_str:0000000000000535 .LASF186
     /tmp/ccCCjb08.s:6882   .debug_str:0000000000000c0c .LASF187
     /tmp/ccCCjb08.s:6888   .debug_str:0000000000000c49 .LASF189
     /tmp/ccCCjb08.s:6738   .debug_str:0000000000000741 .LASF188
     /tmp/ccCCjb08.s:6880   .debug_str:0000000000000bfe .LASF190
     /tmp/ccCCjb08.s:6726   .debug_str:00000000000006d7 .LASF191
     /tmp/ccCCjb08.s:6840   .debug_str:0000000000000ae7 .LASF192
     /tmp/ccCCjb08.s:6538   .debug_str:00000000000001a8 .LASF193
     /tmp/ccCCjb08.s:6898   .debug_str:0000000000000c92 .LASF194
     /tmp/ccCCjb08.s:6492   .debug_str:000000000000007b .LASF195
     /tmp/ccCCjb08.s:6810   .debug_str:0000000000000961 .LASF196
     /tmp/ccCCjb08.s:6712   .debug_str:0000000000000667 .LASF197
     /tmp/ccCCjb08.s:6864   .debug_str:0000000000000b93 .LASF198
     /tmp/ccCCjb08.s:6542   .debug_str:00000000000001c0 .LASF199
     /tmp/ccCCjb08.s:6736   .debug_str:0000000000000738 .LASF200
     /tmp/ccCCjb08.s:6776   .debug_str:0000000000000879 .LASF201
     /tmp/ccCCjb08.s:6846   .debug_str:0000000000000b10 .LASF202
     /tmp/ccCCjb08.s:6630   .debug_str:000000000000040f .LASF203
     /tmp/ccCCjb08.s:6914   .debug_str:0000000000000d1a .LASF204
     /tmp/ccCCjb08.s:6600   .debug_str:000000000000034b .LASF205
     /tmp/ccCCjb08.s:6502   .debug_str:00000000000000c3 .LASF206
     /tmp/ccCCjb08.s:6622   .debug_str:00000000000003e6 .LASF207
     /tmp/ccCCjb08.s:6724   .debug_str:00000000000006d0 .LASF220
     /tmp/ccCCjb08.s:6480   .debug_str:0000000000000011 .LASF221
     /tmp/ccCCjb08.s:6764   .debug_str:0000000000000817 .LASF208
     /tmp/ccCCjb08.s:6602   .debug_str:0000000000000359 .LASF209
     /tmp/ccCCjb08.s:6500   .debug_str:00000000000000b0 .LASF210
     /tmp/ccCCjb08.s:6658   .debug_str:00000000000004de .LASF211
     /tmp/ccCCjb08.s:6886   .debug_str:0000000000000c40 .LASF212
     /tmp/ccCCjb08.s:6474   .debug_str:0000000000000000 .LASF213
     /tmp/ccCCjb08.s:6904   .debug_str:0000000000000cce .LASF214
     /tmp/ccCCjb08.s:6540   .debug_str:00000000000001bb .LASF215
     /tmp/ccCCjb08.s:1696   .text:0000000000000c24 .LVL194
     /tmp/ccCCjb08.s:1703   .text:0000000000000c28 .LVL195
     /tmp/ccCCjb08.s:1713   .text:0000000000000c2c .LVL196
     /tmp/ccCCjb08.s:1570   .text:0000000000000b80 .LVL183
     /tmp/ccCCjb08.s:1582   .text:0000000000000b94 .LVL185
     /tmp/ccCCjb08.s:1585   .text:0000000000000b98 .LVL186
     /tmp/ccCCjb08.s:1607   .text:0000000000000bc4 .LVL189
     /tmp/ccCCjb08.s:1357   .text:0000000000000974 .LVL149
     /tmp/ccCCjb08.s:1380   .text:000000000000099c .LVL153
     /tmp/ccCCjb08.s:1445   .text:0000000000000a54 .LVL166
     /tmp/ccCCjb08.s:1468   .text:0000000000000a9c .LVL171
     /tmp/ccCCjb08.s:1506   .text:0000000000000b04 .LVL177
     /tmp/ccCCjb08.s:976    .text:00000000000006bc .LVL99
     /tmp/ccCCjb08.s:980    .text:00000000000006c4 .LVL100
     /tmp/ccCCjb08.s:1009   .text:0000000000000700 .LVL108
     /tmp/ccCCjb08.s:989    .text:00000000000006d8 .LVL103
     /tmp/ccCCjb08.s:993    .text:00000000000006e0 .LVL104
     /tmp/ccCCjb08.s:1004   .text:00000000000006fc .LVL107
     /tmp/ccCCjb08.s:1282   .text:000000000000090c .LVL144
     /tmp/ccCCjb08.s:1138   .text:00000000000007f0 .LVL127
     /tmp/ccCCjb08.s:1143   .text:00000000000007f4 .LVL128
     /tmp/ccCCjb08.s:1291   .text:000000000000091c .LVL145
     /tmp/ccCCjb08.s:1210   .text:0000000000000874 .LVL135
GAS LISTING /tmp/ccCCjb08.s 			page 75


     /tmp/ccCCjb08.s:1224   .text:0000000000000890 .LVL136
     /tmp/ccCCjb08.s:1227   .text:0000000000000894 .LVL137
     /tmp/ccCCjb08.s:1294   .text:0000000000000920 .LVL146
     /tmp/ccCCjb08.s:1025   .text:0000000000000720 .LVL110
     /tmp/ccCCjb08.s:1027   .text:0000000000000724 .LVL111
     /tmp/ccCCjb08.s:1034   .text:000000000000072c .LVL112
     /tmp/ccCCjb08.s:1080   .text:000000000000077c .LVL118
     /tmp/ccCCjb08.s:1038   .text:0000000000000730 .LVL113
     /tmp/ccCCjb08.s:1046   .text:0000000000000738 .LVL114
     /tmp/ccCCjb08.s:1066   .text:0000000000000764 .LVL116
     /tmp/ccCCjb08.s:1082   .text:0000000000000780 .LVL119
     /tmp/ccCCjb08.s:1093   .text:0000000000000794 .LVL121
     /tmp/ccCCjb08.s:1102   .text:000000000000079c .LVL122
     /tmp/ccCCjb08.s:1126   .text:00000000000007dc .LVL125
     /tmp/ccCCjb08.s:1198   .text:0000000000000864 .LVL133
     /tmp/ccCCjb08.s:1200   .text:0000000000000868 .LVL134
     /tmp/ccCCjb08.s:1154   .text:0000000000000808 .LVL130
     /tmp/ccCCjb08.s:1277   .text:0000000000000904 .LVL143
     /tmp/ccCCjb08.s:652    .text:0000000000000470 .LVL73
     /tmp/ccCCjb08.s:723    .text:00000000000004e0 .LVL80
     /tmp/ccCCjb08.s:662    .text:0000000000000478 .LVL74
     /tmp/ccCCjb08.s:685    .text:00000000000004a4 .LVL75
     /tmp/ccCCjb08.s:690    .text:00000000000004ac .LVL77
     /tmp/ccCCjb08.s:688    .text:00000000000004a8 .LVL76
     /tmp/ccCCjb08.s:696    .text:00000000000004b0 .LVL78
     /tmp/ccCCjb08.s:525    .text:0000000000000368 .LVL57
     /tmp/ccCCjb08.s:555    .text:000000000000039c .LVL61
     /tmp/ccCCjb08.s:541    .text:0000000000000384 .LVL58
     /tmp/ccCCjb08.s:546    .text:0000000000000390 .LVL59
     /tmp/ccCCjb08.s:638    .text:0000000000000468 .LVL72
     /tmp/ccCCjb08.s:552    .text:0000000000000398 .LVL60
     /tmp/ccCCjb08.s:572    .text:00000000000003c0 .LVL63
     /tmp/ccCCjb08.s:380    .text:0000000000000244 .LVL36
     /tmp/ccCCjb08.s:400    .text:0000000000000268 .LVL38
     /tmp/ccCCjb08.s:396    .text:0000000000000260 .LVL37
     /tmp/ccCCjb08.s:430    .text:00000000000002bc .LVL45
     /tmp/ccCCjb08.s:503    .text:0000000000000360 .LVL56
     /tmp/ccCCjb08.s:408    .text:000000000000027c .LVL41
     /tmp/ccCCjb08.s:435    .text:00000000000002c4 .LVL46
     /tmp/ccCCjb08.s:450    .text:00000000000002e4 .LVL48
     /tmp/ccCCjb08.s:489    .text:000000000000034c .LVL55
     /tmp/ccCCjb08.s:247    .text:0000000000000174 .LVL24
     /tmp/ccCCjb08.s:264    .text:0000000000000194 .LVL26
     /tmp/ccCCjb08.s:292    .text:00000000000001d4 .LVL30
     /tmp/ccCCjb08.s:296    .text:00000000000001dc .LVL31
     /tmp/ccCCjb08.s:260    .text:000000000000018c .LVL25
     /tmp/ccCCjb08.s:173    .text:00000000000000f4 .LVL15
     /tmp/ccCCjb08.s:190    .text:0000000000000114 .LVL17
     /tmp/ccCCjb08.s:218    .text:0000000000000154 .LVL21
     /tmp/ccCCjb08.s:222    .text:000000000000015c .LVL22
     /tmp/ccCCjb08.s:186    .text:000000000000010c .LVL16
     /tmp/ccCCjb08.s:101    .text:0000000000000080 .LVL7
     /tmp/ccCCjb08.s:105    .text:0000000000000088 .LVL8
     /tmp/ccCCjb08.s:154    .text:00000000000000ec .LVL14
     /tmp/ccCCjb08.s:33     .text:0000000000000014 .LVL0
     /tmp/ccCCjb08.s:37     .text:000000000000001c .LVL1
     /tmp/ccCCjb08.s:1825   .debug_info:0000000000000000 .Ldebug_info0
GAS LISTING /tmp/ccCCjb08.s 			page 76


     /tmp/ccCCjb08.s:656    .text:0000000000000470 .LBB9
     /tmp/ccCCjb08.s:659    .text:0000000000000474 .LBE9
     /tmp/ccCCjb08.s:664    .text:0000000000000478 .LBB10
     /tmp/ccCCjb08.s:692    .text:00000000000004ac .LBE10
     /tmp/ccCCjb08.s:1203   .text:0000000000000868 .LBB20
     /tmp/ccCCjb08.s:1206   .text:000000000000086c .LBE20
     /tmp/ccCCjb08.s:1212   .text:0000000000000874 .LBB21
     /tmp/ccCCjb08.s:1251   .text:00000000000008c4 .LBE21

UNDEFINED SYMBOLS
_Z15thread_dispatchv
_Z11printStringPKc
_Z8printIntiii
_Z4execPFvPvES_
_Z8sem_waitP4_sem
_Z4forkv
_Z10sem_signalP4_sem
_Z9sem_closeP4_sem
_ZdlPv
_ZN8resource15releaseResourceEj
_ZN8resource14aquireResourceEj
_Z8sem_openPP4_semj
_Z13thread_createPP7_threadPFvPvES2_
_Z11thread_joinP7_thread
_Z4getcv
_Z9mem_allocm
_Z11thread_killi
_ZN7_thread7runningE
_ZN8resource14createResourceEj
_ZN15MemoryAllocator10initialiseEv
_ZN5Riscv14supervisorTrapEv
_Z13enterUserModev
