GAS LISTING /tmp/cccgqshc.s 			page 1


   1              		.file	"main.cpp"
   2              		.option pic
   3              		.option norelax
   4              		.text
   5              	.Ltext0:
   6              		.section	.rodata.str1.8,"aMS",@progbits,1
   7              		.align	3
   8              	.LC0:
   9 0000 41414141 		.string	"AAAAAAAAAAAAAAAAAAAAAAAAAAAAAAAAAAA\n"
   9      41414141 
   9      41414141 
   9      41414141 
   9      41414141 
  10              		.text
  11              		.align	2
  12              		.globl	_Z4testPv
  14              	_Z4testPv:
  15              	.LFB16:
  16              		.file 1 "src/main.cpp"
   1:src/main.cpp  **** #include "../lib/console.h"
   2:src/main.cpp  **** #include "../h/MemoryAllocator.hpp"
   3:src/main.cpp  **** #include "../h/print.hpp"
   4:src/main.cpp  **** #include "../h/riscv.hpp"
   5:src/main.cpp  **** #include "../h/syscall_c.hpp"
   6:src/main.cpp  **** #include "../h/workers.hpp"
   7:src/main.cpp  **** 
   8:src/main.cpp  **** void test(void*)
   9:src/main.cpp  **** {
  17              		.loc 1 9 1
  18              		.cfi_startproc
  19 0000 130101FF 		addi	sp,sp,-16
  20              		.cfi_def_cfa_offset 16
  21 0004 23341100 		sd	ra,8(sp)
  22 0008 23308100 		sd	s0,0(sp)
  23              		.cfi_offset 1, -8
  24              		.cfi_offset 8, -16
  25 000c 13040101 		addi	s0,sp,16
  26              		.cfi_def_cfa 8, 0
  10:src/main.cpp  ****     printString("AAAAAAAAAAAAAAAAAAAAAAAAAAAAAAAAAAA\n");
  27              		.loc 1 10 5
  28              		.loc 1 10 16 is_stmt 0
  29 0010 17050000 		lla	a0,.LC0
  29      13050500 
  30 0018 97000000 		call	_Z11printStringPKc@plt
  30      E7800000 
  31              	.LVL0:
  11:src/main.cpp  **** }
  32              		.loc 1 11 1
  33 0020 83308100 		ld	ra,8(sp)
  34              		.cfi_restore 1
  35 0024 03340100 		ld	s0,0(sp)
  36              		.cfi_restore 8
  37              		.cfi_def_cfa 2, 16
  38 0028 13010101 		addi	sp,sp,16
  39              		.cfi_def_cfa_offset 0
  40 002c 67800000 		jr	ra
  41              		.cfi_endproc
GAS LISTING /tmp/cccgqshc.s 			page 2


  42              	.LFE16:
  44              		.section	.rodata.str1.8
  45 0025 000000   		.align	3
  46              	.LC1:
  47 0028 0A00     		.string	"\n"
  48              		.text
  49              		.align	2
  50              		.globl	_Z5test2Pv
  52              	_Z5test2Pv:
  53              	.LFB17:
  12:src/main.cpp  **** 
  13:src/main.cpp  **** void test2(void*)
  14:src/main.cpp  **** {
  54              		.loc 1 14 1 is_stmt 1
  55              		.cfi_startproc
  56 0030 130101FE 		addi	sp,sp,-32
  57              		.cfi_def_cfa_offset 32
  58 0034 233C1100 		sd	ra,24(sp)
  59 0038 23388100 		sd	s0,16(sp)
  60 003c 23349100 		sd	s1,8(sp)
  61              		.cfi_offset 1, -8
  62              		.cfi_offset 8, -16
  63              		.cfi_offset 9, -24
  64 0040 13040102 		addi	s0,sp,32
  65              		.cfi_def_cfa 8, 0
  15:src/main.cpp  ****     int i = 0;
  66              		.loc 1 15 5
  67              	.LVL1:
  68              		.loc 1 15 9 is_stmt 0
  69 0044 93040000 		li	s1,0
  70 0048 6F000001 		j	.L6
  71              	.LVL2:
  72              	.L8:
  16:src/main.cpp  ****     while(i < 100)
  17:src/main.cpp  ****     {
  18:src/main.cpp  ****         printInteger(i);
  19:src/main.cpp  ****         printString("\n");
  20:src/main.cpp  ****         if (i % 10 == 0)
  21:src/main.cpp  ****             thread_dispatch();
  73              		.loc 1 21 13 is_stmt 1
  74              		.loc 1 21 28 is_stmt 0
  75 004c 97000000 		call	_Z15thread_dispatchv@plt
  75      E7800000 
  76              	.LVL3:
  77              	.L5:
  22:src/main.cpp  **** 
  23:src/main.cpp  ****         i++;
  78              		.loc 1 23 9 is_stmt 1
  79              		.loc 1 23 10 is_stmt 0
  80 0054 9B841400 		addiw	s1,s1,1
  81              	.LVL4:
  82              	.L6:
  16:src/main.cpp  ****     while(i < 100)
  83              		.loc 1 16 5 is_stmt 1
  16:src/main.cpp  ****     while(i < 100)
  84              		.loc 1 16 13
  85 0058 93073006 		li	a5,99
GAS LISTING /tmp/cccgqshc.s 			page 3


  86 005c 63C89702 		bgt	s1,a5,.L3
  18:src/main.cpp  ****         printString("\n");
  87              		.loc 1 18 9
  18:src/main.cpp  ****         printString("\n");
  88              		.loc 1 18 21 is_stmt 0
  89 0060 13850400 		mv	a0,s1
  90 0064 97000000 		call	_Z12printIntegerm@plt
  90      E7800000 
  91              	.LVL5:
  19:src/main.cpp  ****         if (i % 10 == 0)
  92              		.loc 1 19 9 is_stmt 1
  19:src/main.cpp  ****         if (i % 10 == 0)
  93              		.loc 1 19 20 is_stmt 0
  94 006c 17050000 		lla	a0,.LC1
  94      13050500 
  95 0074 97000000 		call	_Z11printStringPKc@plt
  95      E7800000 
  96              	.LVL6:
  20:src/main.cpp  ****             thread_dispatch();
  97              		.loc 1 20 9 is_stmt 1
  20:src/main.cpp  ****             thread_dispatch();
  98              		.loc 1 20 15 is_stmt 0
  99 007c 9307A000 		li	a5,10
 100 0080 BBE7F402 		remw	a5,s1,a5
  20:src/main.cpp  ****             thread_dispatch();
 101              		.loc 1 20 9
 102 0084 E39807FC 		bnez	a5,.L5
 103 0088 6FF05FFC 		j	.L8
 104              	.L3:
  24:src/main.cpp  ****     }
  25:src/main.cpp  **** }
 105              		.loc 1 25 1
 106 008c 83308101 		ld	ra,24(sp)
 107              		.cfi_restore 1
 108 0090 03340101 		ld	s0,16(sp)
 109              		.cfi_restore 8
 110              		.cfi_def_cfa 2, 32
 111 0094 83348100 		ld	s1,8(sp)
 112              		.cfi_restore 9
 113              	.LVL7:
 114 0098 13010102 		addi	sp,sp,32
 115              		.cfi_def_cfa_offset 0
 116 009c 67800000 		jr	ra
 117              		.cfi_endproc
 118              	.LFE17:
 120              		.section	.rodata.str1.8
 121 002a 00000000 		.align	3
 121      0000
 122              	.LC2:
 123 0030 46696E69 		.string	"Finished!\n"
 123      73686564 
 123      210A00
 124              		.text
 125              		.align	2
 126              		.globl	_Z8userMainv
 128              	_Z8userMainv:
 129              	.LFB18:
GAS LISTING /tmp/cccgqshc.s 			page 4


  26:src/main.cpp  **** 
  27:src/main.cpp  **** void userMain()
  28:src/main.cpp  **** {
 130              		.loc 1 28 1 is_stmt 1
 131              		.cfi_startproc
 132 00a0 130101FE 		addi	sp,sp,-32
 133              		.cfi_def_cfa_offset 32
 134 00a4 233C1100 		sd	ra,24(sp)
 135 00a8 23388100 		sd	s0,16(sp)
 136              		.cfi_offset 1, -8
 137              		.cfi_offset 8, -16
 138 00ac 13040102 		addi	s0,sp,32
 139              		.cfi_def_cfa 8, 0
  29:src/main.cpp  ****     __putc('1');
 140              		.loc 1 29 5
 141              		.loc 1 29 11 is_stmt 0
 142 00b0 13051003 		li	a0,49
 143 00b4 97000000 		call	__putc@plt
 143      E7800000 
 144              	.LVL8:
  30:src/main.cpp  ****     __putc('\n');
 145              		.loc 1 30 5 is_stmt 1
 146              		.loc 1 30 11 is_stmt 0
 147 00bc 1305A000 		li	a0,10
 148 00c0 97000000 		call	__putc@plt
 148      E7800000 
 149              	.LVL9:
  31:src/main.cpp  **** 
  32:src/main.cpp  ****     thread_t handle2 = nullptr;
 150              		.loc 1 32 5 is_stmt 1
 151              		.loc 1 32 14 is_stmt 0
 152 00c8 233404FE 		sd	zero,-24(s0)
  33:src/main.cpp  ****     thread_t handle3 = nullptr;
 153              		.loc 1 33 5 is_stmt 1
 154              		.loc 1 33 14 is_stmt 0
 155 00cc 233004FE 		sd	zero,-32(s0)
  34:src/main.cpp  **** 
  35:src/main.cpp  ****     //handle2 = (_thread**) mem_alloc(sizeof(_thread*));
  36:src/main.cpp  ****     //handle3 = (_thread**) mem_alloc(sizeof(_thread*));
  37:src/main.cpp  **** 
  38:src/main.cpp  ****     thread_create(&handle2, test, nullptr);
 156              		.loc 1 38 5 is_stmt 1
 157              		.loc 1 38 18 is_stmt 0
 158 00d0 13060000 		li	a2,0
 159 00d4 97050000 		lla	a1,_Z4testPv
 159      93850500 
 160 00dc 130584FE 		addi	a0,s0,-24
 161 00e0 97000000 		call	_Z13thread_createPP7_threadPFvPvES2_@plt
 161      E7800000 
 162              	.LVL10:
  39:src/main.cpp  ****     thread_create(&handle3, test2, nullptr);
 163              		.loc 1 39 5 is_stmt 1
 164              		.loc 1 39 18 is_stmt 0
 165 00e8 13060000 		li	a2,0
 166 00ec 97050000 		lla	a1,_Z5test2Pv
 166      93850500 
 167 00f4 130504FE 		addi	a0,s0,-32
GAS LISTING /tmp/cccgqshc.s 			page 5


 168 00f8 97000000 		call	_Z13thread_createPP7_threadPFvPvES2_@plt
 168      E7800000 
 169              	.LVL11:
 170 0100 6F00C000 		j	.L12
 171              	.L10:
  40:src/main.cpp  **** 
  41:src/main.cpp  ****     while(!handle2->finished || !handle3->finished)
  42:src/main.cpp  ****         thread_dispatch();
 172              		.loc 1 42 9 is_stmt 1
 173              		.loc 1 42 24 is_stmt 0
 174 0104 97000000 		call	_Z15thread_dispatchv@plt
 174      E7800000 
 175              	.LVL12:
 176              	.L12:
  41:src/main.cpp  ****         thread_dispatch();
 177              		.loc 1 41 5 is_stmt 1
  41:src/main.cpp  ****         thread_dispatch();
 178              		.loc 1 41 30
  41:src/main.cpp  ****         thread_dispatch();
 179              		.loc 1 41 21 is_stmt 0
 180 010c 833784FE 		ld	a5,-24(s0)
 181 0110 83C78700 		lbu	a5,8(a5)
  41:src/main.cpp  ****         thread_dispatch();
 182              		.loc 1 41 30
 183 0114 E38807FE 		beqz	a5,.L10
  41:src/main.cpp  ****         thread_dispatch();
 184              		.loc 1 41 43 discriminator 1
 185 0118 833704FE 		ld	a5,-32(s0)
 186 011c 83C78700 		lbu	a5,8(a5)
  41:src/main.cpp  ****         thread_dispatch();
 187              		.loc 1 41 30 discriminator 1
 188 0120 E38207FE 		beqz	a5,.L10
  43:src/main.cpp  **** 
  44:src/main.cpp  ****     printString("Finished!\n");
 189              		.loc 1 44 5 is_stmt 1
 190              		.loc 1 44 16 is_stmt 0
 191 0124 17050000 		lla	a0,.LC2
 191      13050500 
 192 012c 97000000 		call	_Z11printStringPKc@plt
 192      E7800000 
 193              	.LVL13:
  45:src/main.cpp  **** }
 194              		.loc 1 45 1
 195 0134 83308101 		ld	ra,24(sp)
 196              		.cfi_restore 1
 197 0138 03340101 		ld	s0,16(sp)
 198              		.cfi_restore 8
 199              		.cfi_def_cfa 2, 32
 200 013c 13010102 		addi	sp,sp,32
 201              		.cfi_def_cfa_offset 0
 202 0140 67800000 		jr	ra
 203              		.cfi_endproc
 204              	.LFE18:
 206              		.align	2
 207              		.globl	main
 209              	main:
 210              	.LFB19:
GAS LISTING /tmp/cccgqshc.s 			page 6


  46:src/main.cpp  **** 
  47:src/main.cpp  **** 
  48:src/main.cpp  **** 
  49:src/main.cpp  **** void main(void*)
  50:src/main.cpp  **** {
 211              		.loc 1 50 1 is_stmt 1
 212              		.cfi_startproc
 213 0144 130101FE 		addi	sp,sp,-32
 214              		.cfi_def_cfa_offset 32
 215 0148 233C1100 		sd	ra,24(sp)
 216 014c 23388100 		sd	s0,16(sp)
 217              		.cfi_offset 1, -8
 218              		.cfi_offset 8, -16
 219 0150 13040102 		addi	s0,sp,32
 220              		.cfi_def_cfa 8, 0
  51:src/main.cpp  ****     MemoryAllocator::initialise();
 221              		.loc 1 51 5
 222              		.loc 1 51 32 is_stmt 0
 223 0154 97000000 		call	_ZN15MemoryAllocator10initialiseEv@plt
 223      E7800000 
 224              	.LVL14:
  52:src/main.cpp  **** 
  53:src/main.cpp  ****     Riscv::w_stvec((uint64) &Riscv::supervisorTrap);
 225              		.loc 1 53 5 is_stmt 1
 226              		.loc 1 53 19 is_stmt 0
 227 015c 97070000 		la	a5,_ZN5Riscv14supervisorTrapEv
 227      83B70700 
 228              	.LVL15:
 229              	.LBB6:
 230              	.LBB7:
 231              		.file 2 "src/../h/riscv.hpp"
   1:src/../h/riscv.hpp **** 
   2:src/../h/riscv.hpp **** #ifndef OS1_VEZBE07_RISCV_CONTEXT_SWITCH_2_INTERRUPT_RISCV_HPP
   3:src/../h/riscv.hpp **** #define OS1_VEZBE07_RISCV_CONTEXT_SWITCH_2_INTERRUPT_RISCV_HPP
   4:src/../h/riscv.hpp **** 
   5:src/../h/riscv.hpp **** #include "../lib/hw.h"
   6:src/../h/riscv.hpp **** 
   7:src/../h/riscv.hpp **** class Riscv
   8:src/../h/riscv.hpp **** {
   9:src/../h/riscv.hpp **** public:
  10:src/../h/riscv.hpp **** 
  11:src/../h/riscv.hpp ****     // pop sstatus.spp and sstatus.spie bits (has to be a non inline function)
  12:src/../h/riscv.hpp ****     static void popSppSpie();
  13:src/../h/riscv.hpp **** 
  14:src/../h/riscv.hpp ****     // read register scause
  15:src/../h/riscv.hpp ****     static uint64 r_scause();
  16:src/../h/riscv.hpp **** 
  17:src/../h/riscv.hpp ****     // write register scause
  18:src/../h/riscv.hpp ****     static void w_scause(uint64 scause);
  19:src/../h/riscv.hpp **** 
  20:src/../h/riscv.hpp ****     // read register sepc
  21:src/../h/riscv.hpp ****     static uint64 r_sepc();
  22:src/../h/riscv.hpp **** 
  23:src/../h/riscv.hpp ****     // write register sepc
  24:src/../h/riscv.hpp ****     static void w_sepc(uint64 sepc);
  25:src/../h/riscv.hpp **** 
  26:src/../h/riscv.hpp ****     // read register stvec
GAS LISTING /tmp/cccgqshc.s 			page 7


  27:src/../h/riscv.hpp ****     static uint64 r_stvec();
  28:src/../h/riscv.hpp **** 
  29:src/../h/riscv.hpp ****     // write register stvec
  30:src/../h/riscv.hpp ****     static void w_stvec(uint64 stvec);
  31:src/../h/riscv.hpp **** 
  32:src/../h/riscv.hpp ****     // read register stval
  33:src/../h/riscv.hpp ****     static uint64 r_stval();
  34:src/../h/riscv.hpp **** 
  35:src/../h/riscv.hpp ****     // write register stval
  36:src/../h/riscv.hpp ****     static void w_stval(uint64 stval);
  37:src/../h/riscv.hpp **** 
  38:src/../h/riscv.hpp ****     enum BitMaskSip
  39:src/../h/riscv.hpp ****     {
  40:src/../h/riscv.hpp ****         SIP_SSIP = (1 << 1),
  41:src/../h/riscv.hpp ****         SIP_STIP = (1 << 5),
  42:src/../h/riscv.hpp ****         SIP_SEIP = (1 << 9),
  43:src/../h/riscv.hpp ****     };
  44:src/../h/riscv.hpp **** 
  45:src/../h/riscv.hpp ****     // mask set register sip
  46:src/../h/riscv.hpp ****     static void ms_sip(uint64 mask);
  47:src/../h/riscv.hpp **** 
  48:src/../h/riscv.hpp ****     // mask clear register sip
  49:src/../h/riscv.hpp ****     static void mc_sip(uint64 mask);
  50:src/../h/riscv.hpp **** 
  51:src/../h/riscv.hpp ****     // read register sip
  52:src/../h/riscv.hpp ****     static uint64 r_sip();
  53:src/../h/riscv.hpp **** 
  54:src/../h/riscv.hpp ****     // write register sip
  55:src/../h/riscv.hpp ****     static void w_sip(uint64 sip);
  56:src/../h/riscv.hpp **** 
  57:src/../h/riscv.hpp ****     enum BitMaskSstatus
  58:src/../h/riscv.hpp ****     {
  59:src/../h/riscv.hpp ****         SSTATUS_SIE = (1 << 1),
  60:src/../h/riscv.hpp ****         SSTATUS_SPIE = (1 << 5),
  61:src/../h/riscv.hpp ****         SSTATUS_SPP = (1 << 8),
  62:src/../h/riscv.hpp ****     };
  63:src/../h/riscv.hpp **** 
  64:src/../h/riscv.hpp ****     // mask set register sstatus
  65:src/../h/riscv.hpp ****     static void ms_sstatus(uint64 mask);
  66:src/../h/riscv.hpp **** 
  67:src/../h/riscv.hpp ****     // mask clear register sstatus
  68:src/../h/riscv.hpp ****     static void mc_sstatus(uint64 mask);
  69:src/../h/riscv.hpp **** 
  70:src/../h/riscv.hpp ****     // read register sstatus
  71:src/../h/riscv.hpp ****     static uint64 r_sstatus();
  72:src/../h/riscv.hpp **** 
  73:src/../h/riscv.hpp ****     // write register sstatus
  74:src/../h/riscv.hpp ****     static void w_sstatus(uint64 sstatus);
  75:src/../h/riscv.hpp **** 
  76:src/../h/riscv.hpp ****     // supervisor trap
  77:src/../h/riscv.hpp ****     static void supervisorTrap();
  78:src/../h/riscv.hpp **** 
  79:src/../h/riscv.hpp **** private:
  80:src/../h/riscv.hpp **** 
  81:src/../h/riscv.hpp ****     // supervisor trap handler
  82:src/../h/riscv.hpp ****     static void handleSupervisorTrap();
  83:src/../h/riscv.hpp **** 
GAS LISTING /tmp/cccgqshc.s 			page 8


  84:src/../h/riscv.hpp **** };
  85:src/../h/riscv.hpp **** 
  86:src/../h/riscv.hpp **** inline uint64 Riscv::r_scause()
  87:src/../h/riscv.hpp **** {
  88:src/../h/riscv.hpp ****     uint64 volatile scause;
  89:src/../h/riscv.hpp ****     __asm__ volatile ("csrr %[scause], scause" : [scause] "=r"(scause));
  90:src/../h/riscv.hpp ****     return scause;
  91:src/../h/riscv.hpp **** }
  92:src/../h/riscv.hpp **** 
  93:src/../h/riscv.hpp **** inline void Riscv::w_scause(uint64 scause)
  94:src/../h/riscv.hpp **** {
  95:src/../h/riscv.hpp ****     __asm__ volatile ("csrw scause, %[scause]" : : [scause] "r"(scause));
  96:src/../h/riscv.hpp **** }
  97:src/../h/riscv.hpp **** 
  98:src/../h/riscv.hpp **** inline uint64 Riscv::r_sepc()
  99:src/../h/riscv.hpp **** {
 100:src/../h/riscv.hpp ****     uint64 volatile sepc;
 101:src/../h/riscv.hpp ****     __asm__ volatile ("csrr %[sepc], sepc" : [sepc] "=r"(sepc));
 102:src/../h/riscv.hpp ****     return sepc;
 103:src/../h/riscv.hpp **** }
 104:src/../h/riscv.hpp **** 
 105:src/../h/riscv.hpp **** inline void Riscv::w_sepc(uint64 sepc)
 106:src/../h/riscv.hpp **** {
 107:src/../h/riscv.hpp ****     __asm__ volatile ("csrw sepc, %[sepc]" : : [sepc] "r"(sepc));
 108:src/../h/riscv.hpp **** }
 109:src/../h/riscv.hpp **** 
 110:src/../h/riscv.hpp **** inline uint64 Riscv::r_stvec()
 111:src/../h/riscv.hpp **** {
 112:src/../h/riscv.hpp ****     uint64 volatile stvec;
 113:src/../h/riscv.hpp ****     __asm__ volatile ("csrr %[stvec], stvec" : [stvec] "=r"(stvec));
 114:src/../h/riscv.hpp ****     return stvec;
 115:src/../h/riscv.hpp **** }
 116:src/../h/riscv.hpp **** 
 117:src/../h/riscv.hpp **** inline void Riscv::w_stvec(uint64 stvec)
 118:src/../h/riscv.hpp **** {
 119:src/../h/riscv.hpp ****     __asm__ volatile ("csrw stvec, %[stvec]" : : [stvec] "r"(stvec));
 232              		.loc 2 119 5 is_stmt 1
 233              		.loc 2 119 69 is_stmt 0
 234              	#APP
 235              	# 119 "src/../h/riscv.hpp" 1
 120              	}
 236              		csrw stvec, a5
 237              	# 0 "" 2
 238              	.LVL16:
 239              	#NO_APP
 240              	.LBE7:
 241              	.LBE6:
  54:src/main.cpp  ****     thread_t handle = nullptr;
 242              		.loc 1 54 5 is_stmt 1
 243              		.loc 1 54 14 is_stmt 0
 244 0168 233404FE 		sd	zero,-24(s0)
  55:src/main.cpp  **** 
  56:src/main.cpp  **** //    size_t blockNum = MemoryAllocator::convert2Blocks(sizeof(_thread**));
  57:src/main.cpp  **** //    handle = (_thread**) MemoryAllocator::mem_alloc(blockNum);
  58:src/main.cpp  **** 
  59:src/main.cpp  ****     thread_create(&handle, nullptr, nullptr);
 245              		.loc 1 59 5 is_stmt 1
GAS LISTING /tmp/cccgqshc.s 			page 9


 246              		.loc 1 59 18 is_stmt 0
 247 016c 13060000 		li	a2,0
 248 0170 93050000 		li	a1,0
 249 0174 130584FE 		addi	a0,s0,-24
 250 0178 97000000 		call	_Z13thread_createPP7_threadPFvPvES2_@plt
 250      E7800000 
 251              	.LVL17:
  60:src/main.cpp  **** 
  61:src/main.cpp  **** //    printString("Main Thread handle: ");
  62:src/main.cpp  **** //    printInteger((size_t)*handle);
  63:src/main.cpp  **** //    printString("\n");
  64:src/main.cpp  **** 
  65:src/main.cpp  ****     _thread::running = handle;
 252              		.loc 1 65 5 is_stmt 1
 253              		.loc 1 65 22 is_stmt 0
 254 0180 97070000 		la	a5,_ZN7_thread7runningE
 254      83B70700 
 255 0188 033784FE 		ld	a4,-24(s0)
 256 018c 23B0E700 		sd	a4,0(a5)
  66:src/main.cpp  **** 
  67:src/main.cpp  **** //    printString("Main Thread return value: ");
  68:src/main.cpp  **** //    printInteger(retVal);
  69:src/main.cpp  **** //    printString("\n");
  70:src/main.cpp  **** 
  71:src/main.cpp  ****     Riscv::ms_sstatus(Riscv::SSTATUS_SIE);
 257              		.loc 1 71 5 is_stmt 1
 258              	.LVL18:
 259              	.LBB8:
 260              	.LBB9:
 121:src/../h/riscv.hpp **** 
 122:src/../h/riscv.hpp **** inline uint64 Riscv::r_stval()
 123:src/../h/riscv.hpp **** {
 124:src/../h/riscv.hpp ****     uint64 volatile stval;
 125:src/../h/riscv.hpp ****     __asm__ volatile ("csrr %[stval], stval" : [stval] "=r"(stval));
 126:src/../h/riscv.hpp ****     return stval;
 127:src/../h/riscv.hpp **** }
 128:src/../h/riscv.hpp **** 
 129:src/../h/riscv.hpp **** inline void Riscv::w_stval(uint64 stval)
 130:src/../h/riscv.hpp **** {
 131:src/../h/riscv.hpp ****     __asm__ volatile ("csrw stval, %[stval]" : : [stval] "r"(stval));
 132:src/../h/riscv.hpp **** }
 133:src/../h/riscv.hpp **** 
 134:src/../h/riscv.hpp **** inline void Riscv::ms_sip(uint64 mask)
 135:src/../h/riscv.hpp **** {
 136:src/../h/riscv.hpp ****     __asm__ volatile ("csrs sip, %[mask]" : : [mask] "r"(mask));
 137:src/../h/riscv.hpp **** }
 138:src/../h/riscv.hpp **** 
 139:src/../h/riscv.hpp **** inline void Riscv::mc_sip(uint64 mask)
 140:src/../h/riscv.hpp **** {
 141:src/../h/riscv.hpp ****     __asm__ volatile ("csrc sip, %[mask]" : : [mask] "r"(mask));
 142:src/../h/riscv.hpp **** }
 143:src/../h/riscv.hpp **** 
 144:src/../h/riscv.hpp **** inline uint64 Riscv::r_sip()
 145:src/../h/riscv.hpp **** {
 146:src/../h/riscv.hpp ****     uint64 volatile sip;
 147:src/../h/riscv.hpp ****     __asm__ volatile ("csrr %[sip], sip" : [sip] "=r"(sip));
 148:src/../h/riscv.hpp ****     return sip;
GAS LISTING /tmp/cccgqshc.s 			page 10


 149:src/../h/riscv.hpp **** }
 150:src/../h/riscv.hpp **** 
 151:src/../h/riscv.hpp **** inline void Riscv::w_sip(uint64 sip)
 152:src/../h/riscv.hpp **** {
 153:src/../h/riscv.hpp ****     __asm__ volatile ("csrw sip, %[sip]" : : [sip] "r"(sip));
 154:src/../h/riscv.hpp **** }
 155:src/../h/riscv.hpp **** 
 156:src/../h/riscv.hpp **** inline void Riscv::ms_sstatus(uint64 mask)
 157:src/../h/riscv.hpp **** {
 158:src/../h/riscv.hpp ****     __asm__ volatile ("csrs sstatus, %[mask]" : : [mask] "r"(mask));
 261              		.loc 2 158 5
 262              		.loc 2 158 68 is_stmt 0
 263 0190 93072000 		li	a5,2
 264              	#APP
 265              	# 158 "src/../h/riscv.hpp" 1
 159              	}
 266              		csrs sstatus, a5
 267              	# 0 "" 2
 268              	.LVL19:
 269              	#NO_APP
 270              	.LBE9:
 271              	.LBE8:
  72:src/main.cpp  **** 
  73:src/main.cpp  ****     userMain();
 272              		.loc 1 73 5 is_stmt 1
 273              		.loc 1 73 13 is_stmt 0
 274 0198 97000000 		call	_Z8userMainv
 274      E7800000 
 275              	.LVL20:
  74:src/main.cpp  **** 
  75:src/main.cpp  ****     // thread_exit();
  76:src/main.cpp  **** }
 276              		.loc 1 76 1
 277 01a0 83308101 		ld	ra,24(sp)
 278              		.cfi_restore 1
 279 01a4 03340101 		ld	s0,16(sp)
 280              		.cfi_restore 8
 281              		.cfi_def_cfa 2, 32
 282 01a8 13010102 		addi	sp,sp,32
 283              		.cfi_def_cfa_offset 0
 284 01ac 67800000 		jr	ra
 285              		.cfi_endproc
 286              	.LFE19:
 288              	.Letext0:
 289              		.file 3 "src/../h/../lib/hw.h"
 290              		.file 4 "src/../h/MemoryAllocator.hpp"
 291              		.file 5 "src/../h/../h/thread.hpp"
 292              		.file 6 "src/../h/syscall_c.hpp"
 293              		.file 7 "src/../lib/console.h"
 294              		.file 8 "src/../h/print.hpp"
GAS LISTING /tmp/cccgqshc.s 			page 11

