GAS LISTING /tmp/ccj9G2ho.s 			page 1


   1              		.file	"scheduler.cpp"
   2              		.option pic
   3              		.option norelax
   4              		.text
   5              	.Ltext0:
   6              		.align	2
   8              	_Z41__static_initialization_and_destruction_0ii:
   9              	.LFB33:
  10              		.file 1 "src/scheduler.cpp"
   1:src/scheduler.cpp **** 
   2:src/scheduler.cpp **** #include "../h/scheduler.hpp"
   3:src/scheduler.cpp **** 
   4:src/scheduler.cpp **** List<_thread> Scheduler::readyThreadQueue;
   5:src/scheduler.cpp **** 
   6:src/scheduler.cpp **** _thread* Scheduler::get()
   7:src/scheduler.cpp **** {
   8:src/scheduler.cpp ****     if (readyThreadQueue.peekFirst() != 0)
   9:src/scheduler.cpp ****         return readyThreadQueue.removeFirst();
  10:src/scheduler.cpp **** 
  11:src/scheduler.cpp ****     return nullptr;
  12:src/scheduler.cpp **** }
  13:src/scheduler.cpp **** 
  14:src/scheduler.cpp **** void Scheduler::put(_thread *ccb)
  15:src/scheduler.cpp **** {
  16:src/scheduler.cpp ****     readyThreadQueue.addLast(ccb);
  17:src/scheduler.cpp **** }...
  11              		.loc 1 17 1
  12              		.cfi_startproc
  13              	.LVL0:
  14 0000 130101FF 		addi	sp,sp,-16
  15              		.cfi_def_cfa_offset 16
  16 0004 23348100 		sd	s0,8(sp)
  17              		.cfi_offset 8, -8
  18 0008 13040101 		addi	s0,sp,16
  19              		.cfi_def_cfa 8, 0
  20              		.loc 1 17 1 is_stmt 0
  21 000c 93071000 		li	a5,1
  22 0010 6308F500 		beq	a0,a5,.L4
  23              	.L1:
  24 0014 03348100 		ld	s0,8(sp)
  25              		.cfi_remember_state
  26              		.cfi_restore 8
  27              		.cfi_def_cfa 2, 16
  28 0018 13010101 		addi	sp,sp,16
  29              		.cfi_def_cfa_offset 0
  30 001c 67800000 		jr	ra
  31              	.L4:
  32              		.cfi_restore_state
  33              		.loc 1 17 1 discriminator 1
  34 0020 B7070100 		li	a5,65536
  35 0024 9387F7FF 		addi	a5,a5,-1
  36 0028 E396F5FE 		bne	a1,a5,.L1
  37              	.LVL1:
  38              	.LBB9:
  39              	.LBB10:
  40              	.LBB11:
  41              		.file 2 "src/../h/list.hpp"
GAS LISTING /tmp/ccj9G2ho.s 			page 2


   1:src/../h/list.hpp **** 
   2:src/../h/list.hpp **** 
   3:src/../h/list.hpp **** #ifndef OS1_VEZBE07_RISCV_CONTEXT_SWITCH_2_INTERRUPT_LIST_HPP
   4:src/../h/list.hpp **** #define OS1_VEZBE07_RISCV_CONTEXT_SWITCH_2_INTERRUPT_LIST_HPP
   5:src/../h/list.hpp **** 
   6:src/../h/list.hpp **** #include "MemoryAllocator.hpp"
   7:src/../h/list.hpp **** #include "../h/print.hpp"
   8:src/../h/list.hpp **** 
   9:src/../h/list.hpp **** template<typename T>
  10:src/../h/list.hpp **** class List
  11:src/../h/list.hpp **** {
  12:src/../h/list.hpp **** private:
  13:src/../h/list.hpp ****     struct Elem
  14:src/../h/list.hpp ****     {
  15:src/../h/list.hpp ****         T *data;
  16:src/../h/list.hpp ****         Elem *next;
  17:src/../h/list.hpp **** 
  18:src/../h/list.hpp ****         Elem(T *data, Elem *next) : data(data), next(next) {}
  19:src/../h/list.hpp ****     };
  20:src/../h/list.hpp **** 
  21:src/../h/list.hpp ****     Elem *head, *tail;
  22:src/../h/list.hpp **** 
  23:src/../h/list.hpp **** public:
  24:src/../h/list.hpp ****     List() : head(0), tail(0) {}
  42              		.loc 2 24 29
  43 002c 97070000 		lla	a5,.LANCHOR0
  43      93870700 
  44 0034 23B00700 		sd	zero,0(a5)
  45 0038 23B40700 		sd	zero,8(a5)
  46              	.LVL2:
  47              	.LBE11:
  48              	.LBE10:
  49              	.LBE9:
  50              		.loc 1 17 1
  51 003c 6FF09FFD 		j	.L1
  52              		.cfi_endproc
  53              	.LFE33:
  55              		.align	2
  56              		.globl	_ZN9Scheduler3getEv
  58              	_ZN9Scheduler3getEv:
  59              	.LFB25:
   7:src/scheduler.cpp **** {
  60              		.loc 1 7 1 is_stmt 1
  61              		.cfi_startproc
  62 0040 130101FE 		addi	sp,sp,-32
  63              		.cfi_def_cfa_offset 32
  64 0044 233C1100 		sd	ra,24(sp)
  65 0048 23388100 		sd	s0,16(sp)
  66 004c 23349100 		sd	s1,8(sp)
  67              		.cfi_offset 1, -8
  68              		.cfi_offset 8, -16
  69              		.cfi_offset 9, -24
  70 0050 13040102 		addi	s0,sp,32
  71              		.cfi_def_cfa 8, 0
   8:src/scheduler.cpp ****     if (readyThreadQueue.peekFirst() != 0)
  72              		.loc 1 8 5
  73              	.LVL3:
GAS LISTING /tmp/ccj9G2ho.s 			page 3


  74              	.LBB12:
  75              	.LBB13:
  25:src/../h/list.hpp **** 
  26:src/../h/list.hpp ****     List(const List<T> &) = delete;
  27:src/../h/list.hpp **** 
  28:src/../h/list.hpp ****     List<T> &operator=(const List<T> &) = delete;
  29:src/../h/list.hpp **** 
  30:src/../h/list.hpp ****     void addFirst(T *data)
  31:src/../h/list.hpp ****     {
  32:src/../h/list.hpp ****         Elem *elem = new Elem(data, head);
  33:src/../h/list.hpp ****         head = elem;
  34:src/../h/list.hpp ****         if (!tail) { tail = head; }
  35:src/../h/list.hpp ****     }
  36:src/../h/list.hpp **** 
  37:src/../h/list.hpp ****     void addLast(T *data)
  38:src/../h/list.hpp ****     {
  39:src/../h/list.hpp ****         // Elem *elem = new Elem(data, 0);
  40:src/../h/list.hpp ****         size_t blockNum = MemoryAllocator::convert2Blocks(sizeof(Elem));
  41:src/../h/list.hpp ****         Elem *elem = (Elem*)MemoryAllocator::mem_alloc(blockNum);
  42:src/../h/list.hpp **** 
  43:src/../h/list.hpp ****         elem->data = data;
  44:src/../h/list.hpp ****         elem->next = nullptr;
  45:src/../h/list.hpp **** 
  46:src/../h/list.hpp ****         if (tail)
  47:src/../h/list.hpp ****         {
  48:src/../h/list.hpp ****             tail->next = elem;
  49:src/../h/list.hpp ****             tail = elem;
  50:src/../h/list.hpp ****         } else
  51:src/../h/list.hpp ****         {
  52:src/../h/list.hpp ****             head = tail = elem;
  53:src/../h/list.hpp ****         }
  54:src/../h/list.hpp **** 
  55:src/../h/list.hpp **** //        printString("\nSheduler.put(): ");
  56:src/../h/list.hpp **** //        printInteger((uint64) *elem->data);
  57:src/../h/list.hpp **** //        printString("\n");
  58:src/../h/list.hpp ****     }
  59:src/../h/list.hpp **** 
  60:src/../h/list.hpp ****     T *removeFirst()
  61:src/../h/list.hpp ****     {
  62:src/../h/list.hpp ****         if (!head) { return 0; }
  63:src/../h/list.hpp **** 
  64:src/../h/list.hpp ****         Elem *elem = head;
  65:src/../h/list.hpp ****         head = head->next;
  66:src/../h/list.hpp ****         if (!head) { tail = 0; }
  67:src/../h/list.hpp **** 
  68:src/../h/list.hpp ****         T *ret = elem->data;
  69:src/../h/list.hpp ****         // delete elem;
  70:src/../h/list.hpp ****         MemoryAllocator::mem_free(elem);
  71:src/../h/list.hpp **** 
  72:src/../h/list.hpp **** //        printString("\nSheduler.get(): ");
  73:src/../h/list.hpp **** //        printInteger((uint64) *ret);
  74:src/../h/list.hpp **** //        printString("\n");
  75:src/../h/list.hpp **** 
  76:src/../h/list.hpp ****         return ret;
  77:src/../h/list.hpp ****     }
  78:src/../h/list.hpp **** 
  79:src/../h/list.hpp ****     T *peekFirst()
GAS LISTING /tmp/ccj9G2ho.s 			page 4


  80:src/../h/list.hpp ****     {
  81:src/../h/list.hpp ****         if (!head) { return 0; }
  76              		.loc 2 81 14 is_stmt 0
  77 0054 17050000 		ld	a0,.LANCHOR0
  77      03350500 
  78              		.loc 2 81 9
  79 005c 63060504 		beqz	a0,.L8
  82:src/../h/list.hpp ****         return head->data;
  80              		.loc 2 82 22
  81 0060 83340500 		ld	s1,0(a0)
  82              	.LVL4:
  83              	.LBE13:
  84              	.LBE12:
   8:src/scheduler.cpp ****     if (readyThreadQueue.peekFirst() != 0)
  85              		.loc 1 8 5
  86 0064 63800402 		beqz	s1,.L5
   9:src/scheduler.cpp ****         return readyThreadQueue.removeFirst();
  87              		.loc 1 9 9 is_stmt 1
  88              	.LVL5:
  89              	.LBB14:
  90              	.LBB15:
  65:src/../h/list.hpp ****         if (!head) { tail = 0; }
  91              		.loc 2 65 22 is_stmt 0
  92 0068 83378500 		ld	a5,8(a0)
  65:src/../h/list.hpp ****         if (!head) { tail = 0; }
  93              		.loc 2 65 9
  94 006c 17070000 		sd	a5,.LANCHOR0,a4
  94      2330F700 
  66:src/../h/list.hpp **** 
  95              		.loc 2 66 9
  96 0074 63840702 		beqz	a5,.L10
  97              	.L7:
  68:src/../h/list.hpp ****         // delete elem;
  98              		.loc 2 68 12
  99 0078 83340500 		ld	s1,0(a0)
 100              	.LVL6:
  70:src/../h/list.hpp **** 
 101              		.loc 2 70 34
 102 007c 97000000 		call	_ZN15MemoryAllocator8mem_freeEPv@plt
 102      E7800000 
 103              	.LVL7:
 104              	.L5:
 105              	.LBE15:
 106              	.LBE14:
  12:src/scheduler.cpp **** }
 107              		.loc 1 12 1
 108 0084 13850400 		mv	a0,s1
 109 0088 83308101 		ld	ra,24(sp)
 110              		.cfi_remember_state
 111              		.cfi_restore 1
 112 008c 03340101 		ld	s0,16(sp)
 113              		.cfi_restore 8
 114              		.cfi_def_cfa 2, 32
 115 0090 83348100 		ld	s1,8(sp)
 116              		.cfi_restore 9
 117 0094 13010102 		addi	sp,sp,32
 118              		.cfi_def_cfa_offset 0
GAS LISTING /tmp/ccj9G2ho.s 			page 5


 119 0098 67800000 		jr	ra
 120              	.LVL8:
 121              	.L10:
 122              		.cfi_restore_state
 123              	.LBB17:
 124              	.LBB16:
  66:src/../h/list.hpp **** 
 125              		.loc 2 66 22
 126 009c 97070000 		sd	zero,.LANCHOR0+8,a5
 126      23B00700 
 127 00a4 6FF05FFD 		j	.L7
 128              	.LVL9:
 129              	.L8:
 130              	.LBE16:
 131              	.LBE17:
  11:src/scheduler.cpp ****     return nullptr;
 132              		.loc 1 11 12
 133 00a8 93040500 		mv	s1,a0
 134              	.LVL10:
 135 00ac 6FF09FFD 		j	.L5
 136              		.cfi_endproc
 137              	.LFE25:
 139              		.align	2
 140              		.globl	_ZN9Scheduler3putEP7_thread
 142              	_ZN9Scheduler3putEP7_thread:
 143              	.LFB26:
  15:src/scheduler.cpp **** {
 144              		.loc 1 15 1 is_stmt 1
 145              		.cfi_startproc
 146              	.LVL11:
 147 00b0 130101FE 		addi	sp,sp,-32
 148              		.cfi_def_cfa_offset 32
 149 00b4 233C1100 		sd	ra,24(sp)
 150 00b8 23388100 		sd	s0,16(sp)
 151 00bc 23349100 		sd	s1,8(sp)
 152              		.cfi_offset 1, -8
 153              		.cfi_offset 8, -16
 154              		.cfi_offset 9, -24
 155 00c0 13040102 		addi	s0,sp,32
 156              		.cfi_def_cfa 8, 0
 157 00c4 93040500 		mv	s1,a0
  16:src/scheduler.cpp ****     readyThreadQueue.addLast(ccb);
 158              		.loc 1 16 5
 159              	.LVL12:
 160              	.LBB20:
 161              	.LBB21:
  40:src/../h/list.hpp ****         Elem *elem = (Elem*)MemoryAllocator::mem_alloc(blockNum);
 162              		.loc 2 40 58 is_stmt 0
 163 00c8 13050001 		li	a0,16
 164              	.LVL13:
 165 00cc 97000000 		call	_ZN15MemoryAllocator14convert2BlocksEm@plt
 165      E7800000 
 166              	.LVL14:
  41:src/../h/list.hpp **** 
 167              		.loc 2 41 55
 168 00d4 97000000 		call	_ZN15MemoryAllocator9mem_allocEm@plt
 168      E7800000 
GAS LISTING /tmp/ccj9G2ho.s 			page 6


 169              	.LVL15:
  43:src/../h/list.hpp ****         elem->next = nullptr;
 170              		.loc 2 43 9
 171 00dc 23309500 		sd	s1,0(a0)
  44:src/../h/list.hpp **** 
 172              		.loc 2 44 9
 173 00e0 23340500 		sd	zero,8(a0)
  46:src/../h/list.hpp ****         {
 174              		.loc 2 46 13
 175 00e4 97070000 		ld	a5,.LANCHOR0+8
 175      83B70700 
  46:src/../h/list.hpp ****         {
 176              		.loc 2 46 9
 177 00ec 63820702 		beqz	a5,.L12
  48:src/../h/list.hpp ****             tail = elem;
 178              		.loc 2 48 13
 179 00f0 23B4A700 		sd	a0,8(a5)
  49:src/../h/list.hpp ****         } else
 180              		.loc 2 49 13
 181 00f4 97070000 		sd	a0,.LANCHOR0+8,a5
 181      23B0A700 
 182              	.LVL16:
 183              	.L11:
 184              	.LBE21:
 185              	.LBE20:
 186              		.loc 1 17 1
 187 00fc 83308101 		ld	ra,24(sp)
 188              		.cfi_remember_state
 189              		.cfi_restore 1
 190 0100 03340101 		ld	s0,16(sp)
 191              		.cfi_restore 8
 192              		.cfi_def_cfa 2, 32
 193 0104 83348100 		ld	s1,8(sp)
 194              		.cfi_restore 9
 195              	.LVL17:
 196 0108 13010102 		addi	sp,sp,32
 197              		.cfi_def_cfa_offset 0
 198 010c 67800000 		jr	ra
 199              	.LVL18:
 200              	.L12:
 201              		.cfi_restore_state
 202              	.LBB23:
 203              	.LBB22:
  52:src/../h/list.hpp ****         }
 204              		.loc 2 52 13
 205 0110 97070000 		lla	a5,.LANCHOR0
 205      93870700 
 206 0118 23B4A700 		sd	a0,8(a5)
 207 011c 23B0A700 		sd	a0,0(a5)
 208              	.LVL19:
 209              	.LBE22:
 210              	.LBE23:
 211              		.loc 1 17 1
 212 0120 6FF0DFFD 		j	.L11
 213              		.cfi_endproc
 214              	.LFE26:
 216              		.align	2
GAS LISTING /tmp/ccj9G2ho.s 			page 7


 218              	_GLOBAL__sub_I__ZN9Scheduler16readyThreadQueueE:
 219              	.LFB34:
 220              		.loc 1 17 1 is_stmt 1
 221              		.cfi_startproc
 222 0124 130101FF 		addi	sp,sp,-16
 223              		.cfi_def_cfa_offset 16
 224 0128 23341100 		sd	ra,8(sp)
 225 012c 23308100 		sd	s0,0(sp)
 226              		.cfi_offset 1, -8
 227              		.cfi_offset 8, -16
 228 0130 13040101 		addi	s0,sp,16
 229              		.cfi_def_cfa 8, 0
 230              		.loc 1 17 1 is_stmt 0
 231 0134 B7050100 		li	a1,65536
 232 0138 9385F5FF 		addi	a1,a1,-1
 233 013c 13051000 		li	a0,1
 234 0140 97000000 		call	_Z41__static_initialization_and_destruction_0ii
 234      E7800000 
 235              	.LVL20:
 236 0148 83308100 		ld	ra,8(sp)
 237              		.cfi_restore 1
 238 014c 03340100 		ld	s0,0(sp)
 239              		.cfi_restore 8
 240              		.cfi_def_cfa 2, 16
 241 0150 13010101 		addi	sp,sp,16
 242              		.cfi_def_cfa_offset 0
 243 0154 67800000 		jr	ra
 244              		.cfi_endproc
 245              	.LFE34:
 247              		.section	.init_array,"aw"
 248              		.align	3
 249 0000 00000000 		.dword	_GLOBAL__sub_I__ZN9Scheduler16readyThreadQueueE
 249      00000000 
 250              		.globl	_ZN9Scheduler16readyThreadQueueE
 251              		.bss
 252              		.align	3
 253              		.set	.LANCHOR0,. + 0
 256              	_ZN9Scheduler16readyThreadQueueE:
 257 0000 00000000 		.zero	16
 257      00000000 
 257      00000000 
 257      00000000 
 258              		.text
 259              	.Letext0:
 260              		.file 3 "src/../h/../lib/hw.h"
 261              		.file 4 "src/../h/MemoryAllocator.hpp"
 262              		.file 5 "src/../h/../h/thread.hpp"
 263              		.file 6 "src/../h/scheduler.hpp"
GAS LISTING /tmp/ccj9G2ho.s 			page 8


DEFINED SYMBOLS
                            *ABS*:0000000000000000 scheduler.cpp
     /tmp/ccj9G2ho.s:8      .text:0000000000000000 _Z41__static_initialization_and_destruction_0ii
     /tmp/ccj9G2ho.s:12     .text:0000000000000000 .L0 
     /tmp/ccj9G2ho.s:14     .text:0000000000000000 .L0 
     /tmp/ccj9G2ho.s:15     .text:0000000000000004 .L0 
     /tmp/ccj9G2ho.s:17     .text:0000000000000008 .L0 
     /tmp/ccj9G2ho.s:19     .text:000000000000000c .L0 
     /tmp/ccj9G2ho.s:21     .text:000000000000000c .L0 
     /tmp/ccj9G2ho.s:25     .text:0000000000000018 .L0 
     /tmp/ccj9G2ho.s:26     .text:0000000000000018 .L0 
     /tmp/ccj9G2ho.s:27     .text:0000000000000018 .L0 
     /tmp/ccj9G2ho.s:29     .text:000000000000001c .L0 
     /tmp/ccj9G2ho.s:32     .text:0000000000000020 .L0 
     /tmp/ccj9G2ho.s:34     .text:0000000000000020 .L0 
     /tmp/ccj9G2ho.s:43     .text:000000000000002c .L0 
     /tmp/ccj9G2ho.s:51     .text:000000000000003c .L0 
     /tmp/ccj9G2ho.s:52     .text:0000000000000040 .L0 
     /tmp/ccj9G2ho.s:58     .text:0000000000000040 _ZN9Scheduler3getEv
     /tmp/ccj9G2ho.s:61     .text:0000000000000040 .L0 
     /tmp/ccj9G2ho.s:62     .text:0000000000000040 .L0 
     /tmp/ccj9G2ho.s:63     .text:0000000000000044 .L0 
     /tmp/ccj9G2ho.s:67     .text:0000000000000050 .L0 
     /tmp/ccj9G2ho.s:68     .text:0000000000000050 .L0 
     /tmp/ccj9G2ho.s:69     .text:0000000000000050 .L0 
     /tmp/ccj9G2ho.s:71     .text:0000000000000054 .L0 
     /tmp/ccj9G2ho.s:76     .text:0000000000000054 .L0 
     /tmp/ccj9G2ho.s:77     .text:0000000000000054 .L0 
     /tmp/ccj9G2ho.s:79     .text:000000000000005c .L0 
     /tmp/ccj9G2ho.s:81     .text:0000000000000060 .L0 
     /tmp/ccj9G2ho.s:86     .text:0000000000000064 .L0 
     /tmp/ccj9G2ho.s:91     .text:0000000000000068 .L0 
     /tmp/ccj9G2ho.s:92     .text:0000000000000068 .L0 
     /tmp/ccj9G2ho.s:94     .text:000000000000006c .L0 
     /tmp/ccj9G2ho.s:96     .text:0000000000000074 .L0 
     /tmp/ccj9G2ho.s:99     .text:0000000000000078 .L0 
     /tmp/ccj9G2ho.s:102    .text:000000000000007c .L0 
     /tmp/ccj9G2ho.s:108    .text:0000000000000084 .L0 
     /tmp/ccj9G2ho.s:110    .text:000000000000008c .L0 
     /tmp/ccj9G2ho.s:111    .text:000000000000008c .L0 
     /tmp/ccj9G2ho.s:113    .text:0000000000000090 .L0 
     /tmp/ccj9G2ho.s:114    .text:0000000000000090 .L0 
     /tmp/ccj9G2ho.s:116    .text:0000000000000094 .L0 
     /tmp/ccj9G2ho.s:118    .text:0000000000000098 .L0 
     /tmp/ccj9G2ho.s:122    .text:000000000000009c .L0 
     /tmp/ccj9G2ho.s:126    .text:000000000000009c .L0 
     /tmp/ccj9G2ho.s:133    .text:00000000000000a8 .L0 
     /tmp/ccj9G2ho.s:136    .text:00000000000000b0 .L0 
     /tmp/ccj9G2ho.s:142    .text:00000000000000b0 _ZN9Scheduler3putEP7_thread
     /tmp/ccj9G2ho.s:145    .text:00000000000000b0 .L0 
     /tmp/ccj9G2ho.s:147    .text:00000000000000b0 .L0 
     /tmp/ccj9G2ho.s:148    .text:00000000000000b4 .L0 
     /tmp/ccj9G2ho.s:152    .text:00000000000000c0 .L0 
     /tmp/ccj9G2ho.s:153    .text:00000000000000c0 .L0 
     /tmp/ccj9G2ho.s:154    .text:00000000000000c0 .L0 
     /tmp/ccj9G2ho.s:156    .text:00000000000000c4 .L0 
     /tmp/ccj9G2ho.s:162    .text:00000000000000c8 .L0 
GAS LISTING /tmp/ccj9G2ho.s 			page 9


     /tmp/ccj9G2ho.s:163    .text:00000000000000c8 .L0 
     /tmp/ccj9G2ho.s:168    .text:00000000000000d4 .L0 
     /tmp/ccj9G2ho.s:171    .text:00000000000000dc .L0 
     /tmp/ccj9G2ho.s:173    .text:00000000000000e0 .L0 
     /tmp/ccj9G2ho.s:175    .text:00000000000000e4 .L0 
     /tmp/ccj9G2ho.s:177    .text:00000000000000ec .L0 
     /tmp/ccj9G2ho.s:179    .text:00000000000000f0 .L0 
     /tmp/ccj9G2ho.s:181    .text:00000000000000f4 .L0 
     /tmp/ccj9G2ho.s:187    .text:00000000000000fc .L0 
     /tmp/ccj9G2ho.s:188    .text:0000000000000100 .L0 
     /tmp/ccj9G2ho.s:189    .text:0000000000000100 .L0 
     /tmp/ccj9G2ho.s:191    .text:0000000000000104 .L0 
     /tmp/ccj9G2ho.s:192    .text:0000000000000104 .L0 
     /tmp/ccj9G2ho.s:194    .text:0000000000000108 .L0 
     /tmp/ccj9G2ho.s:197    .text:000000000000010c .L0 
     /tmp/ccj9G2ho.s:201    .text:0000000000000110 .L0 
     /tmp/ccj9G2ho.s:205    .text:0000000000000110 .L0 
     /tmp/ccj9G2ho.s:212    .text:0000000000000120 .L0 
     /tmp/ccj9G2ho.s:213    .text:0000000000000124 .L0 
     /tmp/ccj9G2ho.s:218    .text:0000000000000124 _GLOBAL__sub_I__ZN9Scheduler16readyThreadQueueE
     /tmp/ccj9G2ho.s:221    .text:0000000000000124 .L0 
     /tmp/ccj9G2ho.s:222    .text:0000000000000124 .L0 
     /tmp/ccj9G2ho.s:223    .text:0000000000000128 .L0 
     /tmp/ccj9G2ho.s:226    .text:0000000000000130 .L0 
     /tmp/ccj9G2ho.s:227    .text:0000000000000130 .L0 
     /tmp/ccj9G2ho.s:229    .text:0000000000000134 .L0 
     /tmp/ccj9G2ho.s:231    .text:0000000000000134 .L0 
     /tmp/ccj9G2ho.s:237    .text:000000000000014c .L0 
     /tmp/ccj9G2ho.s:239    .text:0000000000000150 .L0 
     /tmp/ccj9G2ho.s:240    .text:0000000000000150 .L0 
     /tmp/ccj9G2ho.s:242    .text:0000000000000154 .L0 
     /tmp/ccj9G2ho.s:244    .text:0000000000000158 .L0 
     /tmp/ccj9G2ho.s:256    .bss:0000000000000000 _ZN9Scheduler16readyThreadQueueE
     /tmp/ccj9G2ho.s:253    .bss:0000000000000000 .LANCHOR0
     /tmp/ccj9G2ho.s:264    .text:0000000000000158 .L0 
     /tmp/ccj9G2ho.s:43     .text:000000000000002c .L0 
     /tmp/ccj9G2ho.s:77     .text:0000000000000054 .L0 
     /tmp/ccj9G2ho.s:94     .text:000000000000006c .L0 
     /tmp/ccj9G2ho.s:126    .text:000000000000009c .L0 
     /tmp/ccj9G2ho.s:175    .text:00000000000000e4 .L0 
     /tmp/ccj9G2ho.s:181    .text:00000000000000f4 .L0 
     /tmp/ccj9G2ho.s:205    .text:0000000000000110 .L0 
     /tmp/ccj9G2ho.s:31     .text:0000000000000020 .L4
     /tmp/ccj9G2ho.s:23     .text:0000000000000014 .L1
     /tmp/ccj9G2ho.s:129    .text:00000000000000a8 .L8
     /tmp/ccj9G2ho.s:104    .text:0000000000000084 .L5
     /tmp/ccj9G2ho.s:121    .text:000000000000009c .L10
     /tmp/ccj9G2ho.s:97     .text:0000000000000078 .L7
     /tmp/ccj9G2ho.s:200    .text:0000000000000110 .L12
     /tmp/ccj9G2ho.s:183    .text:00000000000000fc .L11
     /tmp/ccj9G2ho.s:1126   .debug_abbrev:0000000000000000 .Ldebug_abbrev0
     /tmp/ccj9G2ho.s:2323   .debug_str:00000000000004c4 .LASF77
     /tmp/ccj9G2ho.s:2341   .debug_str:0000000000000628 .LASF78
     /tmp/ccj9G2ho.s:2215   .debug_str:0000000000000156 .LASF79
     /tmp/ccj9G2ho.s:5      .text:0000000000000000 .Ltext0
     /tmp/ccj9G2ho.s:259    .text:0000000000000158 .Letext0
     /tmp/ccj9G2ho.s:2171   .debug_line:0000000000000000 .Ldebug_line0
GAS LISTING /tmp/ccj9G2ho.s 			page 10


     /tmp/ccj9G2ho.s:2267   .debug_str:0000000000000308 .LASF0
     /tmp/ccj9G2ho.s:2281   .debug_str:0000000000000367 .LASF1
     /tmp/ccj9G2ho.s:2253   .debug_str:000000000000029d .LASF2
     /tmp/ccj9G2ho.s:2233   .debug_str:0000000000000211 .LASF4
     /tmp/ccj9G2ho.s:2311   .debug_str:000000000000046b .LASF3
     /tmp/ccj9G2ho.s:2187   .debug_str:000000000000006f .LASF5
     /tmp/ccj9G2ho.s:2285   .debug_str:0000000000000385 .LASF6
     /tmp/ccj9G2ho.s:2265   .debug_str:00000000000002f5 .LASF7
     /tmp/ccj9G2ho.s:2335   .debug_str:00000000000005f1 .LASF8
     /tmp/ccj9G2ho.s:2223   .debug_str:00000000000001c5 .LASF9
     /tmp/ccj9G2ho.s:2295   .debug_str:00000000000003e3 .LASF10
     /tmp/ccj9G2ho.s:2327   .debug_str:00000000000005a3 .LASF11
     /tmp/ccj9G2ho.s:2191   .debug_str:0000000000000081 .LASF12
     /tmp/ccj9G2ho.s:2177   .debug_str:0000000000000010 .LASF13
     /tmp/ccj9G2ho.s:2199   .debug_str:00000000000000df .LASF14
     /tmp/ccj9G2ho.s:2305   .debug_str:000000000000042f .LASF15
     /tmp/ccj9G2ho.s:2201   .debug_str:00000000000000eb .LASF16
     /tmp/ccj9G2ho.s:2213   .debug_str:000000000000014e .LASF20
     /tmp/ccj9G2ho.s:2349   .debug_str:000000000000069a .LASF17
     /tmp/ccj9G2ho.s:2339   .debug_str:0000000000000623 .LASF18
     /tmp/ccj9G2ho.s:2317   .debug_str:00000000000004a8 .LASF19
     /tmp/ccj9G2ho.s:2249   .debug_str:0000000000000272 .LASF47
     /tmp/ccj9G2ho.s:2175   .debug_str:0000000000000007 .LASF21
     /tmp/ccj9G2ho.s:2173   .debug_str:0000000000000000 .LASF22
     /tmp/ccj9G2ho.s:2203   .debug_str:0000000000000101 .LASF23
     /tmp/ccj9G2ho.s:2207   .debug_str:0000000000000136 .LASF28
     /tmp/ccj9G2ho.s:2289   .debug_str:00000000000003a7 .LASF30
     /tmp/ccj9G2ho.s:2283   .debug_str:000000000000037a .LASF80
     /tmp/ccj9G2ho.s:2195   .debug_str:00000000000000b2 .LASF81
     /tmp/ccj9G2ho.s:2313   .debug_str:000000000000047d .LASF24
     /tmp/ccj9G2ho.s:2315   .debug_str:0000000000000487 .LASF26
     /tmp/ccj9G2ho.s:2297   .debug_str:00000000000003f2 .LASF25
     /tmp/ccj9G2ho.s:2221   .debug_str:00000000000001a4 .LASF27
     /tmp/ccj9G2ho.s:2269   .debug_str:0000000000000315 .LASF29
     /tmp/ccj9G2ho.s:2263   .debug_str:00000000000002ce .LASF31
     /tmp/ccj9G2ho.s:2229   .debug_str:0000000000000204 .LASF32
     /tmp/ccj9G2ho.s:2183   .debug_str:0000000000000050 .LASF33
     /tmp/ccj9G2ho.s:2237   .debug_str:0000000000000221 .LASF34
     /tmp/ccj9G2ho.s:2235   .debug_str:0000000000000218 .LASF35
     /tmp/ccj9G2ho.s:2271   .debug_str:0000000000000324 .LASF36
     /tmp/ccj9G2ho.s:2239   .debug_str:0000000000000226 .LASF37
     /tmp/ccj9G2ho.s:2277   .debug_str:0000000000000355 .LASF38
     /tmp/ccj9G2ho.s:2279   .debug_str:000000000000035f .LASF39
     /tmp/ccj9G2ho.s:2181   .debug_str:0000000000000043 .LASF40
     /tmp/ccj9G2ho.s:2347   .debug_str:000000000000066f .LASF41
     /tmp/ccj9G2ho.s:2245   .debug_str:0000000000000255 .LASF42
     /tmp/ccj9G2ho.s:2225   .debug_str:00000000000001d3 .LASF44
     /tmp/ccj9G2ho.s:2287   .debug_str:0000000000000398 .LASF43
     /tmp/ccj9G2ho.s:2333   .debug_str:00000000000005d3 .LASF45
     /tmp/ccj9G2ho.s:2211   .debug_str:0000000000000149 .LASF46
     /tmp/ccj9G2ho.s:2291   .debug_str:00000000000003d0 .LASF48
     /tmp/ccj9G2ho.s:2217   .debug_str:0000000000000174 .LASF82
     /tmp/ccj9G2ho.s:2227   .debug_str:00000000000001f0 .LASF83
     /tmp/ccj9G2ho.s:2331   .debug_str:00000000000005b7 .LASF84
     /tmp/ccj9G2ho.s:2319   .debug_str:00000000000004ad .LASF49
     /tmp/ccj9G2ho.s:2329   .debug_str:00000000000005b2 .LASF50
     /tmp/ccj9G2ho.s:2301   .debug_str:0000000000000400 .LASF51
GAS LISTING /tmp/ccj9G2ho.s 			page 11


     /tmp/ccj9G2ho.s:2179   .debug_str:0000000000000020 .LASF85
     /tmp/ccj9G2ho.s:2259   .debug_str:00000000000002bf .LASF52
     /tmp/ccj9G2ho.s:2231   .debug_str:000000000000020c .LASF53
     /tmp/ccj9G2ho.s:2345   .debug_str:0000000000000658 .LASF54
     /tmp/ccj9G2ho.s:2251   .debug_str:0000000000000282 .LASF60
     /tmp/ccj9G2ho.s:2261   .debug_str:00000000000002c4 .LASF86
     /tmp/ccj9G2ho.s:2325   .debug_str:0000000000000588 .LASF87
     /tmp/ccj9G2ho.s:2321   .debug_str:00000000000004bb .LASF55
     /tmp/ccj9G2ho.s:2351   .debug_str:000000000000069f .LASF56
     /tmp/ccj9G2ho.s:2257   .debug_str:00000000000002b7 .LASF57
     /tmp/ccj9G2ho.s:2273   .debug_str:000000000000032a .LASF58
     /tmp/ccj9G2ho.s:2255   .debug_str:00000000000002ab .LASF59
     /tmp/ccj9G2ho.s:2337   .debug_str:0000000000000601 .LASF61
     /tmp/ccj9G2ho.s:2197   .debug_str:00000000000000d5 .LASF62
     /tmp/ccj9G2ho.s:2219   .debug_str:0000000000000185 .LASF63
     /tmp/ccj9G2ho.s:2275   .debug_str:000000000000034a .LASF64
     /tmp/ccj9G2ho.s:2307   .debug_str:0000000000000445 .LASF65
     /tmp/ccj9G2ho.s:2243   .debug_str:000000000000024c .LASF66
     /tmp/ccj9G2ho.s:2241   .debug_str:000000000000022e .LASF67
     /tmp/ccj9G2ho.s:2293   .debug_str:00000000000003da .LASF68
     /tmp/ccj9G2ho.s:2343   .debug_str:000000000000063a .LASF69
     /tmp/ccj9G2ho.s:2193   .debug_str:0000000000000091 .LASF88
     /tmp/ccj9G2ho.s:2205   .debug_str:0000000000000106 .LASF70
     /tmp/ccj9G2ho.s:219    .text:0000000000000124 .LFB34
     /tmp/ccj9G2ho.s:245    .text:0000000000000158 .LFE34
     /tmp/ccj9G2ho.s:235    .text:0000000000000148 .LVL20
     /tmp/ccj9G2ho.s:2303   .debug_str:0000000000000405 .LASF71
     /tmp/ccj9G2ho.s:9      .text:0000000000000000 .LFB33
     /tmp/ccj9G2ho.s:53     .text:0000000000000040 .LFE33
     /tmp/ccj9G2ho.s:2247   .debug_str:0000000000000263 .LASF72
     /tmp/ccj9G2ho.s:2189   .debug_str:0000000000000076 .LASF73
     /tmp/ccj9G2ho.s:38     .text:000000000000002c .LBB9
     /tmp/ccj9G2ho.s:49     .text:000000000000003c .LBE9
     /tmp/ccj9G2ho.s:2028   .debug_loc:0000000000000000 .LLST0
     /tmp/ccj9G2ho.s:2299   .debug_str:00000000000003fb .LASF76
     /tmp/ccj9G2ho.s:2209   .debug_str:0000000000000140 .LASF74
     /tmp/ccj9G2ho.s:2309   .debug_str:0000000000000466 .LASF75
     /tmp/ccj9G2ho.s:2185   .debug_str:0000000000000058 .LASF89
     /tmp/ccj9G2ho.s:143    .text:00000000000000b0 .LFB26
     /tmp/ccj9G2ho.s:214    .text:0000000000000124 .LFE26
     /tmp/ccj9G2ho.s:2037   .debug_loc:000000000000002c .LLST5
     /tmp/ccj9G2ho.s:160    .text:00000000000000c8 .LBB20
     /tmp/ccj9G2ho.s:2157   .debug_ranges:0000000000000000 .Ldebug_ranges0
     /tmp/ccj9G2ho.s:2059   .debug_loc:000000000000008b .LLST6
     /tmp/ccj9G2ho.s:2074   .debug_loc:00000000000000d4 .LLST7
     /tmp/ccj9G2ho.s:2089   .debug_loc:000000000000011c .LLST8
     /tmp/ccj9G2ho.s:166    .text:00000000000000d4 .LVL14
     /tmp/ccj9G2ho.s:169    .text:00000000000000dc .LVL15
     /tmp/ccj9G2ho.s:59     .text:0000000000000040 .LFB25
     /tmp/ccj9G2ho.s:137    .text:00000000000000b0 .LFE25
     /tmp/ccj9G2ho.s:74     .text:0000000000000054 .LBB12
     /tmp/ccj9G2ho.s:84     .text:0000000000000064 .LBE12
     /tmp/ccj9G2ho.s:2096   .debug_loc:000000000000013f .LLST1
     /tmp/ccj9G2ho.s:89     .text:0000000000000068 .LBB14
     /tmp/ccj9G2ho.s:2111   .debug_loc:0000000000000187 .LLST2
     /tmp/ccj9G2ho.s:2126   .debug_loc:00000000000001cf .LLST3
     /tmp/ccj9G2ho.s:2137   .debug_loc:0000000000000205 .LLST4
GAS LISTING /tmp/ccj9G2ho.s 			page 12


     /tmp/ccj9G2ho.s:103    .text:0000000000000084 .LVL7
     /tmp/ccj9G2ho.s:37     .text:000000000000002c .LVL1
     /tmp/ccj9G2ho.s:46     .text:000000000000003c .LVL2
     /tmp/ccj9G2ho.s:146    .text:00000000000000b0 .LVL11
     /tmp/ccj9G2ho.s:164    .text:00000000000000cc .LVL13
     /tmp/ccj9G2ho.s:195    .text:0000000000000108 .LVL17
     /tmp/ccj9G2ho.s:199    .text:0000000000000110 .LVL18
     /tmp/ccj9G2ho.s:159    .text:00000000000000c8 .LVL12
     /tmp/ccj9G2ho.s:182    .text:00000000000000fc .LVL16
     /tmp/ccj9G2ho.s:208    .text:0000000000000120 .LVL19
     /tmp/ccj9G2ho.s:73     .text:0000000000000054 .LVL3
     /tmp/ccj9G2ho.s:82     .text:0000000000000064 .LVL4
     /tmp/ccj9G2ho.s:128    .text:00000000000000a8 .LVL9
     /tmp/ccj9G2ho.s:134    .text:00000000000000ac .LVL10
     /tmp/ccj9G2ho.s:88     .text:0000000000000068 .LVL5
     /tmp/ccj9G2ho.s:120    .text:000000000000009c .LVL8
     /tmp/ccj9G2ho.s:100    .text:000000000000007c .LVL6
     /tmp/ccj9G2ho.s:265    .debug_info:0000000000000000 .Ldebug_info0
     /tmp/ccj9G2ho.s:106    .text:0000000000000084 .LBE14
     /tmp/ccj9G2ho.s:123    .text:000000000000009c .LBB17
     /tmp/ccj9G2ho.s:131    .text:00000000000000a8 .LBE17
     /tmp/ccj9G2ho.s:185    .text:00000000000000fc .LBE20
     /tmp/ccj9G2ho.s:202    .text:0000000000000110 .LBB23
     /tmp/ccj9G2ho.s:210    .text:0000000000000120 .LBE23

UNDEFINED SYMBOLS
_ZN15MemoryAllocator8mem_freeEPv
_ZN15MemoryAllocator14convert2BlocksEm
_ZN15MemoryAllocator9mem_allocEm
