GAS LISTING /tmp/ccipoLLH.s 			page 1


   1              		.file	"scheduler.cpp"
   2              		.option pic
   3              		.option norelax
   4              		.text
   5              	.Ltext0:
   6              		.align	2
   8              	_Z41__static_initialization_and_destruction_0ii:
   9              	.LFB31:
  10              		.file 1 "src/scheduler.cpp"
   1:src/scheduler.cpp **** 
   2:src/scheduler.cpp **** #include "../h/scheduler.hpp"
   3:src/scheduler.cpp **** 
   4:src/scheduler.cpp **** List<thread_t> Scheduler::readyThreadQueue;
   5:src/scheduler.cpp **** 
   6:src/scheduler.cpp **** _thread *Scheduler::get()
   7:src/scheduler.cpp **** {
   8:src/scheduler.cpp ****     return *readyThreadQueue.removeFirst();
   9:src/scheduler.cpp **** }
  10:src/scheduler.cpp **** 
  11:src/scheduler.cpp **** void Scheduler::put(_thread *ccb)
  12:src/scheduler.cpp **** {
  13:src/scheduler.cpp ****     readyThreadQueue.addLast(&ccb);
  14:src/scheduler.cpp **** }...
  11              		.loc 1 14 1
  12              		.cfi_startproc
  13              	.LVL0:
  14 0000 130101FF 		addi	sp,sp,-16
  15              		.cfi_def_cfa_offset 16
  16 0004 23348100 		sd	s0,8(sp)
  17              		.cfi_offset 8, -8
  18 0008 13040101 		addi	s0,sp,16
  19              		.cfi_def_cfa 8, 0
  20              		.loc 1 14 1 is_stmt 0
  21 000c 93071000 		li	a5,1
  22 0010 6308F500 		beq	a0,a5,.L4
  23              	.L1:
  24 0014 03348100 		ld	s0,8(sp)
  25              		.cfi_remember_state
  26              		.cfi_restore 8
  27              		.cfi_def_cfa 2, 16
  28 0018 13010101 		addi	sp,sp,16
  29              		.cfi_def_cfa_offset 0
  30 001c 67800000 		jr	ra
  31              	.L4:
  32              		.cfi_restore_state
  33              		.loc 1 14 1 discriminator 1
  34 0020 B7070100 		li	a5,65536
  35 0024 9387F7FF 		addi	a5,a5,-1
  36 0028 E396F5FE 		bne	a1,a5,.L1
  37              	.LVL1:
  38              	.LBB7:
  39              	.LBB8:
  40              	.LBB9:
  41              		.file 2 "src/../h/list.hpp"
   1:src/../h/list.hpp **** 
   2:src/../h/list.hpp **** 
   3:src/../h/list.hpp **** #ifndef OS1_VEZBE07_RISCV_CONTEXT_SWITCH_2_INTERRUPT_LIST_HPP
GAS LISTING /tmp/ccipoLLH.s 			page 2


   4:src/../h/list.hpp **** #define OS1_VEZBE07_RISCV_CONTEXT_SWITCH_2_INTERRUPT_LIST_HPP
   5:src/../h/list.hpp **** 
   6:src/../h/list.hpp **** #include "MemoryAllocator.hpp"
   7:src/../h/list.hpp **** 
   8:src/../h/list.hpp **** template<typename T>
   9:src/../h/list.hpp **** class List
  10:src/../h/list.hpp **** {
  11:src/../h/list.hpp **** private:
  12:src/../h/list.hpp ****     struct Elem
  13:src/../h/list.hpp ****     {
  14:src/../h/list.hpp ****         T *data;
  15:src/../h/list.hpp ****         Elem *next;
  16:src/../h/list.hpp **** 
  17:src/../h/list.hpp ****         Elem(T *data, Elem *next) : data(data), next(next) {}
  18:src/../h/list.hpp ****     };
  19:src/../h/list.hpp **** 
  20:src/../h/list.hpp ****     Elem *head, *tail;
  21:src/../h/list.hpp **** 
  22:src/../h/list.hpp **** public:
  23:src/../h/list.hpp ****     List() : head(0), tail(0) {}
  42              		.loc 2 23 29
  43 002c 97070000 		lla	a5,.LANCHOR0
  43      93870700 
  44 0034 23B00700 		sd	zero,0(a5)
  45 0038 23B40700 		sd	zero,8(a5)
  46              	.LVL2:
  47              	.LBE9:
  48              	.LBE8:
  49              	.LBE7:
  50              		.loc 1 14 1
  51 003c 6FF09FFD 		j	.L1
  52              		.cfi_endproc
  53              	.LFE31:
  55              		.align	2
  56              		.globl	_ZN9Scheduler3getEv
  58              	_ZN9Scheduler3getEv:
  59              	.LFB24:
   7:src/scheduler.cpp **** {
  60              		.loc 1 7 1 is_stmt 1
  61              		.cfi_startproc
  62 0040 130101FE 		addi	sp,sp,-32
  63              		.cfi_def_cfa_offset 32
  64 0044 233C1100 		sd	ra,24(sp)
  65 0048 23388100 		sd	s0,16(sp)
  66 004c 23349100 		sd	s1,8(sp)
  67              		.cfi_offset 1, -8
  68              		.cfi_offset 8, -16
  69              		.cfi_offset 9, -24
  70 0050 13040102 		addi	s0,sp,32
  71              		.cfi_def_cfa 8, 0
   8:src/scheduler.cpp ****     return *readyThreadQueue.removeFirst();
  72              		.loc 1 8 5
  73              	.LVL3:
  74              	.LBB10:
  75              	.LBB11:
  24:src/../h/list.hpp **** 
  25:src/../h/list.hpp ****     List(const List<T> &) = delete;
GAS LISTING /tmp/ccipoLLH.s 			page 3


  26:src/../h/list.hpp **** 
  27:src/../h/list.hpp ****     List<T> &operator=(const List<T> &) = delete;
  28:src/../h/list.hpp **** 
  29:src/../h/list.hpp ****     void addFirst(T *data)
  30:src/../h/list.hpp ****     {
  31:src/../h/list.hpp ****         Elem *elem = new Elem(data, head);
  32:src/../h/list.hpp ****         head = elem;
  33:src/../h/list.hpp ****         if (!tail) { tail = head; }
  34:src/../h/list.hpp ****     }
  35:src/../h/list.hpp **** 
  36:src/../h/list.hpp ****     void addLast(T *data)
  37:src/../h/list.hpp ****     {
  38:src/../h/list.hpp ****         // Elem *elem = new Elem(data, 0);
  39:src/../h/list.hpp ****         size_t blockNum = MemoryAllocator::convert2Blocks(sizeof(Elem));
  40:src/../h/list.hpp ****         Elem *elem = (Elem*)MemoryAllocator::mem_alloc(blockNum);
  41:src/../h/list.hpp ****         if (tail)
  42:src/../h/list.hpp ****         {
  43:src/../h/list.hpp ****             tail->next = elem;
  44:src/../h/list.hpp ****             tail = elem;
  45:src/../h/list.hpp ****         } else
  46:src/../h/list.hpp ****         {
  47:src/../h/list.hpp ****             head = tail = elem;
  48:src/../h/list.hpp ****         }
  49:src/../h/list.hpp ****     }
  50:src/../h/list.hpp **** 
  51:src/../h/list.hpp ****     T *removeFirst()
  52:src/../h/list.hpp ****     {
  53:src/../h/list.hpp ****         if (!head) { return 0; }
  76              		.loc 2 53 14 is_stmt 0
  77 0054 17050000 		ld	a0,.LANCHOR0
  77      03350500 
  78              		.loc 2 53 9
  79 005c 63020504 		beqz	a0,.L8
  80              	.LVL4:
  54:src/../h/list.hpp **** 
  55:src/../h/list.hpp ****         Elem *elem = head;
  56:src/../h/list.hpp ****         head = head->next;
  81              		.loc 2 56 22
  82 0060 83378500 		ld	a5,8(a0)
  83              		.loc 2 56 9
  84 0064 17070000 		sd	a5,.LANCHOR0,a4
  84      2330F700 
  57:src/../h/list.hpp ****         if (!head) { tail = 0; }
  85              		.loc 2 57 9
  86 006c 63840702 		beqz	a5,.L10
  87              	.L7:
  58:src/../h/list.hpp **** 
  59:src/../h/list.hpp ****         T *ret = elem->data;
  88              		.loc 2 59 12
  89 0070 83340500 		ld	s1,0(a0)
  90              	.LVL5:
  60:src/../h/list.hpp ****         MemoryAllocator::mem_free(elem);
  91              		.loc 2 60 34
  92 0074 97000000 		call	_ZN15MemoryAllocator8mem_freeEPv@plt
  92      E7800000 
  93              	.LVL6:
  94              	.L6:
GAS LISTING /tmp/ccipoLLH.s 			page 4


  95              	.LBE11:
  96              	.LBE10:
   9:src/scheduler.cpp **** }
  97              		.loc 1 9 1
  98 007c 03B50400 		ld	a0,0(s1)
  99 0080 83308101 		ld	ra,24(sp)
 100              		.cfi_remember_state
 101              		.cfi_restore 1
 102 0084 03340101 		ld	s0,16(sp)
 103              		.cfi_restore 8
 104              		.cfi_def_cfa 2, 32
 105 0088 83348100 		ld	s1,8(sp)
 106              		.cfi_restore 9
 107 008c 13010102 		addi	sp,sp,32
 108              		.cfi_def_cfa_offset 0
 109 0090 67800000 		jr	ra
 110              	.LVL7:
 111              	.L10:
 112              		.cfi_restore_state
 113              	.LBB13:
 114              	.LBB12:
  57:src/../h/list.hpp **** 
 115              		.loc 2 57 22
 116 0094 97070000 		sd	zero,.LANCHOR0+8,a5
 116      23B00700 
 117 009c 6FF05FFD 		j	.L7
 118              	.LVL8:
 119              	.L8:
  53:src/../h/list.hpp **** 
 120              		.loc 2 53 29
 121 00a0 93040500 		mv	s1,a0
 122 00a4 6FF09FFD 		j	.L6
 123              	.LBE12:
 124              	.LBE13:
 125              		.cfi_endproc
 126              	.LFE24:
 128              		.align	2
 129              		.globl	_ZN9Scheduler3putEP7_thread
 131              	_ZN9Scheduler3putEP7_thread:
 132              	.LFB25:
  12:src/scheduler.cpp **** {
 133              		.loc 1 12 1 is_stmt 1
 134              		.cfi_startproc
 135              	.LVL9:
 136 00a8 130101FF 		addi	sp,sp,-16
 137              		.cfi_def_cfa_offset 16
 138 00ac 23341100 		sd	ra,8(sp)
 139 00b0 23308100 		sd	s0,0(sp)
 140              		.cfi_offset 1, -8
 141              		.cfi_offset 8, -16
 142 00b4 13040101 		addi	s0,sp,16
 143              		.cfi_def_cfa 8, 0
  13:src/scheduler.cpp ****     readyThreadQueue.addLast(&ccb);
 144              		.loc 1 13 5
 145              	.LVL10:
 146              	.LBB16:
 147              	.LBB17:
GAS LISTING /tmp/ccipoLLH.s 			page 5


  39:src/../h/list.hpp ****         Elem *elem = (Elem*)MemoryAllocator::mem_alloc(blockNum);
 148              		.loc 2 39 58 is_stmt 0
 149 00b8 13050001 		li	a0,16
 150              	.LVL11:
 151 00bc 97000000 		call	_ZN15MemoryAllocator14convert2BlocksEm@plt
 151      E7800000 
 152              	.LVL12:
  40:src/../h/list.hpp ****         if (tail)
 153              		.loc 2 40 55
 154 00c4 97000000 		call	_ZN15MemoryAllocator9mem_allocEm@plt
 154      E7800000 
 155              	.LVL13:
  41:src/../h/list.hpp ****         {
 156              		.loc 2 41 13
 157 00cc 97070000 		ld	a5,.LANCHOR0+8
 157      83B70700 
  41:src/../h/list.hpp ****         {
 158              		.loc 2 41 9
 159 00d4 63800702 		beqz	a5,.L12
  43:src/../h/list.hpp ****             tail = elem;
 160              		.loc 2 43 13
 161 00d8 23B4A700 		sd	a0,8(a5)
  44:src/../h/list.hpp ****         } else
 162              		.loc 2 44 13
 163 00dc 97070000 		sd	a0,.LANCHOR0+8,a5
 163      23B0A700 
 164              	.LVL14:
 165              	.L11:
 166              	.LBE17:
 167              	.LBE16:
 168              		.loc 1 14 1
 169 00e4 83308100 		ld	ra,8(sp)
 170              		.cfi_remember_state
 171              		.cfi_restore 1
 172 00e8 03340100 		ld	s0,0(sp)
 173              		.cfi_restore 8
 174              		.cfi_def_cfa 2, 16
 175 00ec 13010101 		addi	sp,sp,16
 176              		.cfi_def_cfa_offset 0
 177 00f0 67800000 		jr	ra
 178              	.LVL15:
 179              	.L12:
 180              		.cfi_restore_state
 181              	.LBB19:
 182              	.LBB18:
  47:src/../h/list.hpp ****         }
 183              		.loc 2 47 13
 184 00f4 97070000 		lla	a5,.LANCHOR0
 184      93870700 
 185 00fc 23B4A700 		sd	a0,8(a5)
 186 0100 23B0A700 		sd	a0,0(a5)
 187              	.LVL16:
 188              	.LBE18:
 189              	.LBE19:
 190              		.loc 1 14 1
 191 0104 6FF01FFE 		j	.L11
 192              		.cfi_endproc
GAS LISTING /tmp/ccipoLLH.s 			page 6


 193              	.LFE25:
 195              		.align	2
 197              	_GLOBAL__sub_I__ZN9Scheduler16readyThreadQueueE:
 198              	.LFB32:
 199              		.loc 1 14 1 is_stmt 1
 200              		.cfi_startproc
 201 0108 130101FF 		addi	sp,sp,-16
 202              		.cfi_def_cfa_offset 16
 203 010c 23341100 		sd	ra,8(sp)
 204 0110 23308100 		sd	s0,0(sp)
 205              		.cfi_offset 1, -8
 206              		.cfi_offset 8, -16
 207 0114 13040101 		addi	s0,sp,16
 208              		.cfi_def_cfa 8, 0
 209              		.loc 1 14 1 is_stmt 0
 210 0118 B7050100 		li	a1,65536
 211 011c 9385F5FF 		addi	a1,a1,-1
 212 0120 13051000 		li	a0,1
 213 0124 97000000 		call	_Z41__static_initialization_and_destruction_0ii
 213      E7800000 
 214              	.LVL17:
 215 012c 83308100 		ld	ra,8(sp)
 216              		.cfi_restore 1
 217 0130 03340100 		ld	s0,0(sp)
 218              		.cfi_restore 8
 219              		.cfi_def_cfa 2, 16
 220 0134 13010101 		addi	sp,sp,16
 221              		.cfi_def_cfa_offset 0
 222 0138 67800000 		jr	ra
 223              		.cfi_endproc
 224              	.LFE32:
 226              		.section	.init_array,"aw"
 227              		.align	3
 228 0000 00000000 		.dword	_GLOBAL__sub_I__ZN9Scheduler16readyThreadQueueE
 228      00000000 
 229              		.globl	_ZN9Scheduler16readyThreadQueueE
 230              		.bss
 231              		.align	3
 232              		.set	.LANCHOR0,. + 0
 235              	_ZN9Scheduler16readyThreadQueueE:
 236 0000 00000000 		.zero	16
 236      00000000 
 236      00000000 
 236      00000000 
 237              		.text
 238              	.Letext0:
 239              		.file 3 "src/../h/../lib/hw.h"
 240              		.file 4 "src/../h/MemoryAllocator.hpp"
 241              		.file 5 "src/../h/../h/thread.hpp"
 242              		.file 6 "src/../h/scheduler.hpp"
GAS LISTING /tmp/ccipoLLH.s 			page 7

