GAS LISTING /tmp/cc4oluDf.s 			page 1


   1              		.file	"scheduler.cpp"
   2              		.option pic
   3              		.option norelax
   4              		.text
   5              	.Ltext0:
   6              		.align	2
   8              	_Z41__static_initialization_and_destruction_0ii:
   9              	.LFB34:
  10              		.file 1 "src/scheduler.cpp"
   1:src/scheduler.cpp **** 
   2:src/scheduler.cpp **** #include "../h/scheduler.hpp"
   3:src/scheduler.cpp **** 
   4:src/scheduler.cpp **** List<_thread> Scheduler::readyThreadQueue;
   5:src/scheduler.cpp **** 
   6:src/scheduler.cpp **** _thread* Scheduler::get()
   7:src/scheduler.cpp **** {
   8:src/scheduler.cpp ****     if (readyThreadQueue.peekFirst() != 0)
   9:src/scheduler.cpp ****         return readyThreadQueue.removeFirst();
  10:src/scheduler.cpp **** 
  11:src/scheduler.cpp ****     return nullptr;
  12:src/scheduler.cpp **** }
  13:src/scheduler.cpp **** 
  14:src/scheduler.cpp **** void Scheduler::put(_thread *ccb)
  15:src/scheduler.cpp **** {
  16:src/scheduler.cpp ****     readyThreadQueue.addLast(ccb);
  17:src/scheduler.cpp **** }
  11              		.loc 1 17 1
  12              		.cfi_startproc
  13              	.LVL0:
  14 0000 130101FF 		addi	sp,sp,-16
  15              		.cfi_def_cfa_offset 16
  16 0004 23348100 		sd	s0,8(sp)
  17              		.cfi_offset 8, -8
  18 0008 13040101 		addi	s0,sp,16
  19              		.cfi_def_cfa 8, 0
  20              		.loc 1 17 1 is_stmt 0
  21 000c 93071000 		li	a5,1
  22 0010 6308F500 		beq	a0,a5,.L4
  23              	.L1:
  24 0014 03348100 		ld	s0,8(sp)
  25              		.cfi_remember_state
  26              		.cfi_restore 8
  27              		.cfi_def_cfa 2, 16
  28 0018 13010101 		addi	sp,sp,16
  29              		.cfi_def_cfa_offset 0
  30 001c 67800000 		jr	ra
  31              	.L4:
  32              		.cfi_restore_state
  33              		.loc 1 17 1 discriminator 1
  34 0020 B7070100 		li	a5,65536
  35 0024 9387F7FF 		addi	a5,a5,-1
  36 0028 E396F5FE 		bne	a1,a5,.L1
  37              	.LVL1:
  38              	.LBB7:
  39              	.LBB8:
  40              	.LBB9:
  41              		.file 2 "src/../h/list.hpp"
GAS LISTING /tmp/cc4oluDf.s 			page 2


   1:src/../h/list.hpp **** 
   2:src/../h/list.hpp **** 
   3:src/../h/list.hpp **** #ifndef OS1_VEZBE07_RISCV_CONTEXT_SWITCH_2_INTERRUPT_LIST_HPP
   4:src/../h/list.hpp **** #define OS1_VEZBE07_RISCV_CONTEXT_SWITCH_2_INTERRUPT_LIST_HPP
   5:src/../h/list.hpp **** 
   6:src/../h/list.hpp **** #include "MemoryAllocator.hpp"
   7:src/../h/list.hpp **** #include "../test/printing.hpp"
   8:src/../h/list.hpp **** 
   9:src/../h/list.hpp **** 
  10:src/../h/list.hpp **** template<typename T>
  11:src/../h/list.hpp **** class List
  12:src/../h/list.hpp **** {
  13:src/../h/list.hpp **** private:
  14:src/../h/list.hpp ****     struct Elem
  15:src/../h/list.hpp ****     {
  16:src/../h/list.hpp ****         T *data;
  17:src/../h/list.hpp ****         Elem *next;
  18:src/../h/list.hpp **** 
  19:src/../h/list.hpp ****         Elem(T *data, Elem *next) : data(data), next(next) {}
  20:src/../h/list.hpp ****     };
  21:src/../h/list.hpp **** 
  22:src/../h/list.hpp **** public:
  23:src/../h/list.hpp ****     List() : head(0), tail(0) {}
  42              		.loc 2 23 29
  43 002c 97070000 		lla	a5,.LANCHOR0
  43      93870700 
  44 0034 23B00700 		sd	zero,0(a5)
  45 0038 23B40700 		sd	zero,8(a5)
  46              	.LVL2:
  47              	.LBE9:
  48              	.LBE8:
  49              	.LBE7:
  50              		.loc 1 17 1
  51 003c 6FF09FFD 		j	.L1
  52              		.cfi_endproc
  53              	.LFE34:
  55              		.section	.rodata.str1.8,"aMS",@progbits,1
  56              		.align	3
  57              	.LC0:
  58 0000 2D2D2D2D 		.string	"-----------------------------------------\n"
  58      2D2D2D2D 
  58      2D2D2D2D 
  58      2D2D2D2D 
  58      2D2D2D2D 
  59 002b 00000000 		.align	3
  59      00
  60              	.LC1:
  61 0030 5072696E 		.string	"Print all threads in list:\n"
  61      7420616C 
  61      6C207468 
  61      72656164 
  61      7320696E 
  62 004c 00000000 		.align	3
  63              	.LC2:
  64 0050 0A00     		.string	"\n"
  65              		.text
  66              		.align	2
GAS LISTING /tmp/cc4oluDf.s 			page 3


  67              		.globl	_ZN9Scheduler3getEv
  69              	_ZN9Scheduler3getEv:
  70              	.LFB25:
   7:src/scheduler.cpp ****     if (readyThreadQueue.peekFirst() != 0)
  71              		.loc 1 7 1 is_stmt 1
  72              		.cfi_startproc
  73 0040 130101FE 		addi	sp,sp,-32
  74              		.cfi_def_cfa_offset 32
  75 0044 233C1100 		sd	ra,24(sp)
  76 0048 23388100 		sd	s0,16(sp)
  77 004c 23349100 		sd	s1,8(sp)
  78              		.cfi_offset 1, -8
  79              		.cfi_offset 8, -16
  80              		.cfi_offset 9, -24
  81 0050 13040102 		addi	s0,sp,32
  82              		.cfi_def_cfa 8, 0
   8:src/scheduler.cpp ****         return readyThreadQueue.removeFirst();
  83              		.loc 1 8 5
  84              	.LVL3:
  85              	.LBB16:
  86              	.LBB17:
  24:src/../h/list.hpp **** 
  25:src/../h/list.hpp ****     List(const List<T> &) = delete;
  26:src/../h/list.hpp **** 
  27:src/../h/list.hpp ****     List<T> &operator=(const List<T> &) = delete;
  28:src/../h/list.hpp **** 
  29:src/../h/list.hpp ****     Elem *head = nullptr, *tail = nullptr;
  30:src/../h/list.hpp **** 
  31:src/../h/list.hpp ****     void addFirst(T *data)
  32:src/../h/list.hpp ****     {
  33:src/../h/list.hpp ****         Elem *elem = new Elem(data, head);
  34:src/../h/list.hpp ****         head = elem;
  35:src/../h/list.hpp ****         if (!tail) { tail = head; }
  36:src/../h/list.hpp ****     }
  37:src/../h/list.hpp **** 
  38:src/../h/list.hpp ****     void addLast(T *data)
  39:src/../h/list.hpp ****     {
  40:src/../h/list.hpp ****         // Elem *elem = new Elem(data, 0);
  41:src/../h/list.hpp ****         size_t blockNum = MemoryAllocator::convert2Blocks(sizeof(List<T>::Elem));
  42:src/../h/list.hpp ****         Elem *elem = (Elem*)MemoryAllocator::mem_alloc(blockNum);
  43:src/../h/list.hpp **** 
  44:src/../h/list.hpp ****         elem->data = data;
  45:src/../h/list.hpp ****         elem->next = nullptr;
  46:src/../h/list.hpp **** 
  47:src/../h/list.hpp ****         if (tail != 0)
  48:src/../h/list.hpp ****         {
  49:src/../h/list.hpp **** //            printInteger((size_t)tail->data);
  50:src/../h/list.hpp **** //            printString("\n");
  51:src/../h/list.hpp ****             tail->next = elem;
  52:src/../h/list.hpp ****             tail = elem;
  53:src/../h/list.hpp ****         } else
  54:src/../h/list.hpp ****         {
  55:src/../h/list.hpp ****             head = tail = elem;
  56:src/../h/list.hpp ****         }
  57:src/../h/list.hpp **** 
  58:src/../h/list.hpp **** //        printString("\nMemory address thread: ");
  59:src/../h/list.hpp **** //        printString("\n");
GAS LISTING /tmp/cc4oluDf.s 			page 4


  60:src/../h/list.hpp **** //        printInteger((size_t)(&tail->data));
  61:src/../h/list.hpp **** 
  62:src/../h/list.hpp **** //        printString("\nSheduler.put(): ");
  63:src/../h/list.hpp **** //        printInteger((uint64) *elem->data);
  64:src/../h/list.hpp **** //        printString("\n");
  65:src/../h/list.hpp ****     }
  66:src/../h/list.hpp **** 
  67:src/../h/list.hpp ****     T *removeFirst()
  68:src/../h/list.hpp ****     {
  69:src/../h/list.hpp ****         printAll();
  70:src/../h/list.hpp ****         if (!head) { return 0; }
  71:src/../h/list.hpp **** 
  72:src/../h/list.hpp ****         Elem *elem = head;
  73:src/../h/list.hpp ****         head = head->next;
  74:src/../h/list.hpp ****         if (!head) { tail = 0; }
  75:src/../h/list.hpp **** 
  76:src/../h/list.hpp ****         T *ret = elem->data;
  77:src/../h/list.hpp ****         // delete elem;
  78:src/../h/list.hpp ****         MemoryAllocator::mem_free(elem);
  79:src/../h/list.hpp **** 
  80:src/../h/list.hpp **** //        printString("\nSheduler.get(): ");
  81:src/../h/list.hpp **** //        printInteger((uint64) *ret);
  82:src/../h/list.hpp **** //        printString("\n");
  83:src/../h/list.hpp **** 
  84:src/../h/list.hpp ****         return ret;
  85:src/../h/list.hpp ****     }
  86:src/../h/list.hpp **** 
  87:src/../h/list.hpp ****     T *peekFirst()
  88:src/../h/list.hpp ****     {
  89:src/../h/list.hpp ****         if (!head) { return 0; }
  87              		.loc 2 89 14 is_stmt 0
  88 0054 97040000 		ld	s1,.LANCHOR0
  88      83B40400 
  89              		.loc 2 89 9
  90 005c 638E0408 		beqz	s1,.L5
  90:src/../h/list.hpp **** //        printString("\n\nMemory:\n");
  91:src/../h/list.hpp **** //        for(int i = 0; i < 10; i++)
  92:src/../h/list.hpp **** //        {
  93:src/../h/list.hpp **** //            printInteger((size_t)head->data);
  94:src/../h/list.hpp **** //            printString("\n");
  95:src/../h/list.hpp **** //            printInteger((size_t)((uint8*)head)[i]);
  96:src/../h/list.hpp **** //            printString(" ");
  97:src/../h/list.hpp **** //        }
  98:src/../h/list.hpp **** //        printString("\n");
  99:src/../h/list.hpp ****         return head->data;
  91              		.loc 2 99 22
  92 0060 83B40400 		ld	s1,0(s1)
  93              	.LVL4:
  94              	.LBE17:
  95              	.LBE16:
   8:src/scheduler.cpp ****         return readyThreadQueue.removeFirst();
  96              		.loc 1 8 5
  97 0064 638A0408 		beqz	s1,.L5
   9:src/scheduler.cpp **** 
  98              		.loc 1 9 9 is_stmt 1
  99              	.LVL5:
 100              	.LBB18:
GAS LISTING /tmp/cc4oluDf.s 			page 5


 101              	.LBB19:
 102              	.LBB20:
 103              	.LBB21:
 100:src/../h/list.hpp ****     }
 101:src/../h/list.hpp **** 
 102:src/../h/list.hpp ****     T *removeLast()
 103:src/../h/list.hpp ****     {
 104:src/../h/list.hpp ****         if (!head) { return 0; }
 105:src/../h/list.hpp **** 
 106:src/../h/list.hpp ****         Elem *prev = 0;
 107:src/../h/list.hpp ****         for (Elem *curr = head; curr && curr != tail; curr = curr->next)
 108:src/../h/list.hpp ****         {
 109:src/../h/list.hpp ****             prev = curr;
 110:src/../h/list.hpp ****         }
 111:src/../h/list.hpp **** 
 112:src/../h/list.hpp ****         Elem *elem = tail;
 113:src/../h/list.hpp ****         if (prev) { prev->next = 0; }
 114:src/../h/list.hpp ****         else { head = 0; }
 115:src/../h/list.hpp ****         tail = prev;
 116:src/../h/list.hpp **** 
 117:src/../h/list.hpp ****         T *ret = elem->data;
 118:src/../h/list.hpp **** 
 119:src/../h/list.hpp ****         //delete elem;
 120:src/../h/list.hpp ****         MemoryAllocator::mem_free(elem);
 121:src/../h/list.hpp **** 
 122:src/../h/list.hpp ****         return ret;
 123:src/../h/list.hpp ****     }
 124:src/../h/list.hpp **** 
 125:src/../h/list.hpp ****     T *peekLast()
 126:src/../h/list.hpp ****     {
 127:src/../h/list.hpp ****         if (!tail) { return 0; }
 128:src/../h/list.hpp ****         return tail->data;
 129:src/../h/list.hpp ****     }
 130:src/../h/list.hpp **** 
 131:src/../h/list.hpp ****     void printAll()
 132:src/../h/list.hpp ****     {
 133:src/../h/list.hpp ****         Elem* temp = head;
 104              		.loc 2 133 15 is_stmt 0
 105 0068 97040000 		ld	s1,.LANCHOR0
 105      83B40400 
 106              	.LVL6:
 134:src/../h/list.hpp ****         printString("-----------------------------------------\n");
 107              		.loc 2 134 20
 108 0070 17050000 		lla	a0,.LC0
 108      13050500 
 109 0078 97000000 		call	_Z11printStringPKc@plt
 109      E7800000 
 110              	.LVL7:
 135:src/../h/list.hpp ****         printString("Print all threads in list:\n");
 111              		.loc 2 135 20
 112 0080 17050000 		lla	a0,.LC1
 112      13050500 
 113 0088 97000000 		call	_Z11printStringPKc@plt
 113      E7800000 
 114              	.LVL8:
 115 0090 6F00C002 		j	.L8
 116              	.L13:
GAS LISTING /tmp/cc4oluDf.s 			page 6


 136:src/../h/list.hpp ****         while(temp)
 137:src/../h/list.hpp ****         {
 138:src/../h/list.hpp ****             printInt((size_t)temp->data);
 117              		.loc 2 138 21
 118 0094 13060000 		li	a2,0
 119 0098 9305A000 		li	a1,10
 120 009c 03A50400 		lw	a0,0(s1)
 121 00a0 97000000 		call	_Z8printIntiii@plt
 121      E7800000 
 122              	.LVL9:
 139:src/../h/list.hpp ****             printString("\n");
 123              		.loc 2 139 24
 124 00a8 17050000 		lla	a0,.LC2
 124      13050500 
 125 00b0 97000000 		call	_Z11printStringPKc@plt
 125      E7800000 
 126              	.LVL10:
 140:src/../h/list.hpp ****             temp = temp->next;
 127              		.loc 2 140 13
 128 00b8 83B48400 		ld	s1,8(s1)
 129              	.LVL11:
 130              	.L8:
 136:src/../h/list.hpp ****         while(temp)
 131              		.loc 2 136 9 is_stmt 1
 132 00bc E39C04FC 		bnez	s1,.L13
 141:src/../h/list.hpp **** 
 142:src/../h/list.hpp ****         }
 143:src/../h/list.hpp ****         printString("-----------------------------------------\n");
 133              		.loc 2 143 20 is_stmt 0
 134 00c0 17050000 		lla	a0,.LC0
 134      13050500 
 135 00c8 97000000 		call	_Z11printStringPKc@plt
 135      E7800000 
 136              	.LVL12:
 137              	.LBE21:
 138              	.LBE20:
  70:src/../h/list.hpp **** 
 139              		.loc 2 70 14
 140 00d0 17050000 		ld	a0,.LANCHOR0
 140      03350500 
  70:src/../h/list.hpp **** 
 141              		.loc 2 70 9
 142 00d8 63020504 		beqz	a0,.L11
 143              	.LVL13:
  73:src/../h/list.hpp ****         if (!head) { tail = 0; }
 144              		.loc 2 73 22
 145 00dc 83378500 		ld	a5,8(a0)
  73:src/../h/list.hpp ****         if (!head) { tail = 0; }
 146              		.loc 2 73 9
 147 00e0 17070000 		sd	a5,.LANCHOR0,a4
 147      2330F700 
  74:src/../h/list.hpp **** 
 148              		.loc 2 74 9
 149 00e8 63840702 		beqz	a5,.L14
 150              	.L10:
  76:src/../h/list.hpp ****         // delete elem;
 151              		.loc 2 76 12
GAS LISTING /tmp/cc4oluDf.s 			page 7


 152 00ec 83340500 		ld	s1,0(a0)
 153              	.LVL14:
  78:src/../h/list.hpp **** 
 154              		.loc 2 78 34
 155 00f0 97000000 		call	_ZN15MemoryAllocator8mem_freeEPv@plt
 155      E7800000 
 156              	.LVL15:
 157              	.L5:
 158              	.LBE19:
 159              	.LBE18:
  12:src/scheduler.cpp **** 
 160              		.loc 1 12 1
 161 00f8 13850400 		mv	a0,s1
 162 00fc 83308101 		ld	ra,24(sp)
 163              		.cfi_remember_state
 164              		.cfi_restore 1
 165 0100 03340101 		ld	s0,16(sp)
 166              		.cfi_restore 8
 167              		.cfi_def_cfa 2, 32
 168 0104 83348100 		ld	s1,8(sp)
 169              		.cfi_restore 9
 170 0108 13010102 		addi	sp,sp,32
 171              		.cfi_def_cfa_offset 0
 172 010c 67800000 		jr	ra
 173              	.LVL16:
 174              	.L14:
 175              		.cfi_restore_state
 176              	.LBB23:
 177              	.LBB22:
  74:src/../h/list.hpp **** 
 178              		.loc 2 74 22
 179 0110 97070000 		sd	zero,.LANCHOR0+8,a5
 179      23B00700 
 180 0118 6FF05FFD 		j	.L10
 181              	.LVL17:
 182              	.L11:
  70:src/../h/list.hpp **** 
 183              		.loc 2 70 29
 184 011c 93040500 		mv	s1,a0
 185              	.LVL18:
 186              	.LBE22:
 187              	.LBE23:
   9:src/scheduler.cpp **** 
 188              		.loc 1 9 45
 189 0120 6FF09FFD 		j	.L5
 190              		.cfi_endproc
 191              	.LFE25:
 193              		.align	2
 194              		.globl	_ZN9Scheduler3putEP7_thread
 196              	_ZN9Scheduler3putEP7_thread:
 197              	.LFB26:
  15:src/scheduler.cpp ****     readyThreadQueue.addLast(ccb);
 198              		.loc 1 15 1 is_stmt 1
 199              		.cfi_startproc
 200              	.LVL19:
 201 0124 130101FE 		addi	sp,sp,-32
 202              		.cfi_def_cfa_offset 32
GAS LISTING /tmp/cc4oluDf.s 			page 8


 203 0128 233C1100 		sd	ra,24(sp)
 204 012c 23388100 		sd	s0,16(sp)
 205 0130 23349100 		sd	s1,8(sp)
 206              		.cfi_offset 1, -8
 207              		.cfi_offset 8, -16
 208              		.cfi_offset 9, -24
 209 0134 13040102 		addi	s0,sp,32
 210              		.cfi_def_cfa 8, 0
 211 0138 93040500 		mv	s1,a0
  16:src/scheduler.cpp **** }
 212              		.loc 1 16 5
 213              	.LVL20:
 214              	.LBB26:
 215              	.LBB27:
  41:src/../h/list.hpp ****         Elem *elem = (Elem*)MemoryAllocator::mem_alloc(blockNum);
 216              		.loc 2 41 58 is_stmt 0
 217 013c 13050001 		li	a0,16
 218              	.LVL21:
 219 0140 97000000 		call	_ZN15MemoryAllocator14convert2BlocksEm@plt
 219      E7800000 
 220              	.LVL22:
  42:src/../h/list.hpp **** 
 221              		.loc 2 42 55
 222 0148 97000000 		call	_ZN15MemoryAllocator9mem_allocEm@plt
 222      E7800000 
 223              	.LVL23:
  44:src/../h/list.hpp ****         elem->next = nullptr;
 224              		.loc 2 44 9
 225 0150 23309500 		sd	s1,0(a0)
  45:src/../h/list.hpp **** 
 226              		.loc 2 45 9
 227 0154 23340500 		sd	zero,8(a0)
  47:src/../h/list.hpp ****         {
 228              		.loc 2 47 13
 229 0158 97070000 		ld	a5,.LANCHOR0+8
 229      83B70700 
  47:src/../h/list.hpp ****         {
 230              		.loc 2 47 9
 231 0160 63820702 		beqz	a5,.L16
  51:src/../h/list.hpp ****             tail = elem;
 232              		.loc 2 51 13
 233 0164 23B4A700 		sd	a0,8(a5)
  52:src/../h/list.hpp ****         } else
 234              		.loc 2 52 13
 235 0168 97070000 		sd	a0,.LANCHOR0+8,a5
 235      23B0A700 
 236              	.LVL24:
 237              	.L15:
 238              	.LBE27:
 239              	.LBE26:
 240              		.loc 1 17 1
 241 0170 83308101 		ld	ra,24(sp)
 242              		.cfi_remember_state
 243              		.cfi_restore 1
 244 0174 03340101 		ld	s0,16(sp)
 245              		.cfi_restore 8
 246              		.cfi_def_cfa 2, 32
GAS LISTING /tmp/cc4oluDf.s 			page 9


 247 0178 83348100 		ld	s1,8(sp)
 248              		.cfi_restore 9
 249              	.LVL25:
 250 017c 13010102 		addi	sp,sp,32
 251              		.cfi_def_cfa_offset 0
 252 0180 67800000 		jr	ra
 253              	.LVL26:
 254              	.L16:
 255              		.cfi_restore_state
 256              	.LBB29:
 257              	.LBB28:
  55:src/../h/list.hpp ****         }
 258              		.loc 2 55 13
 259 0184 97070000 		lla	a5,.LANCHOR0
 259      93870700 
 260 018c 23B4A700 		sd	a0,8(a5)
 261 0190 23B0A700 		sd	a0,0(a5)
 262              	.LVL27:
 263              	.LBE28:
 264              	.LBE29:
 265              		.loc 1 17 1
 266 0194 6FF0DFFD 		j	.L15
 267              		.cfi_endproc
 268              	.LFE26:
 270              		.align	2
 272              	_GLOBAL__sub_I__ZN9Scheduler16readyThreadQueueE:
 273              	.LFB35:
 274              		.loc 1 17 1 is_stmt 1
 275              		.cfi_startproc
 276 0198 130101FF 		addi	sp,sp,-16
 277              		.cfi_def_cfa_offset 16
 278 019c 23341100 		sd	ra,8(sp)
 279 01a0 23308100 		sd	s0,0(sp)
 280              		.cfi_offset 1, -8
 281              		.cfi_offset 8, -16
 282 01a4 13040101 		addi	s0,sp,16
 283              		.cfi_def_cfa 8, 0
 284              		.loc 1 17 1 is_stmt 0
 285 01a8 B7050100 		li	a1,65536
 286 01ac 9385F5FF 		addi	a1,a1,-1
 287 01b0 13051000 		li	a0,1
 288 01b4 97000000 		call	_Z41__static_initialization_and_destruction_0ii
 288      E7800000 
 289              	.LVL28:
 290 01bc 83308100 		ld	ra,8(sp)
 291              		.cfi_restore 1
 292 01c0 03340100 		ld	s0,0(sp)
 293              		.cfi_restore 8
 294              		.cfi_def_cfa 2, 16
 295 01c4 13010101 		addi	sp,sp,16
 296              		.cfi_def_cfa_offset 0
 297 01c8 67800000 		jr	ra
 298              		.cfi_endproc
 299              	.LFE35:
 301              		.section	.init_array,"aw"
 302              		.align	3
 303 0000 00000000 		.dword	_GLOBAL__sub_I__ZN9Scheduler16readyThreadQueueE
GAS LISTING /tmp/cc4oluDf.s 			page 10


 303      00000000 
 304              		.globl	_ZN9Scheduler16readyThreadQueueE
 305              		.bss
 306              		.align	3
 307              		.set	.LANCHOR0,. + 0
 310              	_ZN9Scheduler16readyThreadQueueE:
 311 0000 00000000 		.zero	16
 311      00000000 
 311      00000000 
 311      00000000 
 312              		.text
 313              	.Letext0:
 314              		.file 3 "src/../h/../test/../h/../lib/hw.h"
 315              		.file 4 "src/../h/../test/../h/../h/thread.hpp"
 316              		.file 5 "src/../h/../test/../h/../h/sem.hpp"
 317              		.file 6 "src/../h/MemoryAllocator.hpp"
 318              		.file 7 "src/../h/scheduler.hpp"
 319              		.file 8 "src/../h/../test/printing.hpp"
 320              		.file 9 "src/../h/../test/../h/syscall_c.hpp"
GAS LISTING /tmp/cc4oluDf.s 			page 11


DEFINED SYMBOLS
                            *ABS*:0000000000000000 scheduler.cpp
     /tmp/cc4oluDf.s:8      .text:0000000000000000 _Z41__static_initialization_and_destruction_0ii
     /tmp/cc4oluDf.s:12     .text:0000000000000000 .L0 
     /tmp/cc4oluDf.s:14     .text:0000000000000000 .L0 
     /tmp/cc4oluDf.s:15     .text:0000000000000004 .L0 
     /tmp/cc4oluDf.s:17     .text:0000000000000008 .L0 
     /tmp/cc4oluDf.s:19     .text:000000000000000c .L0 
     /tmp/cc4oluDf.s:21     .text:000000000000000c .L0 
     /tmp/cc4oluDf.s:25     .text:0000000000000018 .L0 
     /tmp/cc4oluDf.s:26     .text:0000000000000018 .L0 
     /tmp/cc4oluDf.s:27     .text:0000000000000018 .L0 
     /tmp/cc4oluDf.s:29     .text:000000000000001c .L0 
     /tmp/cc4oluDf.s:32     .text:0000000000000020 .L0 
     /tmp/cc4oluDf.s:34     .text:0000000000000020 .L0 
     /tmp/cc4oluDf.s:43     .text:000000000000002c .L0 
     /tmp/cc4oluDf.s:51     .text:000000000000003c .L0 
     /tmp/cc4oluDf.s:52     .text:0000000000000040 .L0 
     /tmp/cc4oluDf.s:69     .text:0000000000000040 _ZN9Scheduler3getEv
     /tmp/cc4oluDf.s:72     .text:0000000000000040 .L0 
     /tmp/cc4oluDf.s:73     .text:0000000000000040 .L0 
     /tmp/cc4oluDf.s:74     .text:0000000000000044 .L0 
     /tmp/cc4oluDf.s:78     .text:0000000000000050 .L0 
     /tmp/cc4oluDf.s:79     .text:0000000000000050 .L0 
     /tmp/cc4oluDf.s:80     .text:0000000000000050 .L0 
     /tmp/cc4oluDf.s:82     .text:0000000000000054 .L0 
     /tmp/cc4oluDf.s:87     .text:0000000000000054 .L0 
     /tmp/cc4oluDf.s:88     .text:0000000000000054 .L0 
     /tmp/cc4oluDf.s:90     .text:000000000000005c .L0 
     /tmp/cc4oluDf.s:92     .text:0000000000000060 .L0 
     /tmp/cc4oluDf.s:97     .text:0000000000000064 .L0 
     /tmp/cc4oluDf.s:104    .text:0000000000000068 .L0 
     /tmp/cc4oluDf.s:105    .text:0000000000000068 .L0 
     /tmp/cc4oluDf.s:108    .text:0000000000000070 .L0 
     /tmp/cc4oluDf.s:112    .text:0000000000000080 .L0 
     /tmp/cc4oluDf.s:118    .text:0000000000000094 .L0 
     /tmp/cc4oluDf.s:124    .text:00000000000000a8 .L0 
     /tmp/cc4oluDf.s:128    .text:00000000000000b8 .L0 
     /tmp/cc4oluDf.s:132    .text:00000000000000bc .L0 
     /tmp/cc4oluDf.s:134    .text:00000000000000c0 .L0 
     /tmp/cc4oluDf.s:140    .text:00000000000000d0 .L0 
     /tmp/cc4oluDf.s:142    .text:00000000000000d8 .L0 
     /tmp/cc4oluDf.s:145    .text:00000000000000dc .L0 
     /tmp/cc4oluDf.s:147    .text:00000000000000e0 .L0 
     /tmp/cc4oluDf.s:149    .text:00000000000000e8 .L0 
     /tmp/cc4oluDf.s:152    .text:00000000000000ec .L0 
     /tmp/cc4oluDf.s:155    .text:00000000000000f0 .L0 
     /tmp/cc4oluDf.s:161    .text:00000000000000f8 .L0 
     /tmp/cc4oluDf.s:163    .text:0000000000000100 .L0 
     /tmp/cc4oluDf.s:164    .text:0000000000000100 .L0 
     /tmp/cc4oluDf.s:166    .text:0000000000000104 .L0 
     /tmp/cc4oluDf.s:167    .text:0000000000000104 .L0 
     /tmp/cc4oluDf.s:169    .text:0000000000000108 .L0 
     /tmp/cc4oluDf.s:171    .text:000000000000010c .L0 
     /tmp/cc4oluDf.s:175    .text:0000000000000110 .L0 
     /tmp/cc4oluDf.s:179    .text:0000000000000110 .L0 
     /tmp/cc4oluDf.s:184    .text:000000000000011c .L0 
GAS LISTING /tmp/cc4oluDf.s 			page 12


     /tmp/cc4oluDf.s:189    .text:0000000000000120 .L0 
     /tmp/cc4oluDf.s:190    .text:0000000000000124 .L0 
     /tmp/cc4oluDf.s:196    .text:0000000000000124 _ZN9Scheduler3putEP7_thread
     /tmp/cc4oluDf.s:199    .text:0000000000000124 .L0 
     /tmp/cc4oluDf.s:201    .text:0000000000000124 .L0 
     /tmp/cc4oluDf.s:202    .text:0000000000000128 .L0 
     /tmp/cc4oluDf.s:206    .text:0000000000000134 .L0 
     /tmp/cc4oluDf.s:207    .text:0000000000000134 .L0 
     /tmp/cc4oluDf.s:208    .text:0000000000000134 .L0 
     /tmp/cc4oluDf.s:210    .text:0000000000000138 .L0 
     /tmp/cc4oluDf.s:216    .text:000000000000013c .L0 
     /tmp/cc4oluDf.s:217    .text:000000000000013c .L0 
     /tmp/cc4oluDf.s:222    .text:0000000000000148 .L0 
     /tmp/cc4oluDf.s:225    .text:0000000000000150 .L0 
     /tmp/cc4oluDf.s:227    .text:0000000000000154 .L0 
     /tmp/cc4oluDf.s:229    .text:0000000000000158 .L0 
     /tmp/cc4oluDf.s:231    .text:0000000000000160 .L0 
     /tmp/cc4oluDf.s:233    .text:0000000000000164 .L0 
     /tmp/cc4oluDf.s:235    .text:0000000000000168 .L0 
     /tmp/cc4oluDf.s:241    .text:0000000000000170 .L0 
     /tmp/cc4oluDf.s:242    .text:0000000000000174 .L0 
     /tmp/cc4oluDf.s:243    .text:0000000000000174 .L0 
     /tmp/cc4oluDf.s:245    .text:0000000000000178 .L0 
     /tmp/cc4oluDf.s:246    .text:0000000000000178 .L0 
     /tmp/cc4oluDf.s:248    .text:000000000000017c .L0 
     /tmp/cc4oluDf.s:251    .text:0000000000000180 .L0 
     /tmp/cc4oluDf.s:255    .text:0000000000000184 .L0 
     /tmp/cc4oluDf.s:259    .text:0000000000000184 .L0 
     /tmp/cc4oluDf.s:266    .text:0000000000000194 .L0 
     /tmp/cc4oluDf.s:267    .text:0000000000000198 .L0 
     /tmp/cc4oluDf.s:272    .text:0000000000000198 _GLOBAL__sub_I__ZN9Scheduler16readyThreadQueueE
     /tmp/cc4oluDf.s:275    .text:0000000000000198 .L0 
     /tmp/cc4oluDf.s:276    .text:0000000000000198 .L0 
     /tmp/cc4oluDf.s:277    .text:000000000000019c .L0 
     /tmp/cc4oluDf.s:280    .text:00000000000001a4 .L0 
     /tmp/cc4oluDf.s:281    .text:00000000000001a4 .L0 
     /tmp/cc4oluDf.s:283    .text:00000000000001a8 .L0 
     /tmp/cc4oluDf.s:285    .text:00000000000001a8 .L0 
     /tmp/cc4oluDf.s:291    .text:00000000000001c0 .L0 
     /tmp/cc4oluDf.s:293    .text:00000000000001c4 .L0 
     /tmp/cc4oluDf.s:294    .text:00000000000001c4 .L0 
     /tmp/cc4oluDf.s:296    .text:00000000000001c8 .L0 
     /tmp/cc4oluDf.s:298    .text:00000000000001cc .L0 
     /tmp/cc4oluDf.s:310    .bss:0000000000000000 _ZN9Scheduler16readyThreadQueueE
     /tmp/cc4oluDf.s:307    .bss:0000000000000000 .LANCHOR0
     /tmp/cc4oluDf.s:321    .text:00000000000001cc .L0 
     /tmp/cc4oluDf.s:43     .text:000000000000002c .L0 
     /tmp/cc4oluDf.s:88     .text:0000000000000054 .L0 
     /tmp/cc4oluDf.s:105    .text:0000000000000068 .L0 
     /tmp/cc4oluDf.s:57     .rodata.str1.8:0000000000000000 .LC0
     /tmp/cc4oluDf.s:108    .text:0000000000000070 .L0 
     /tmp/cc4oluDf.s:60     .rodata.str1.8:0000000000000030 .LC1
     /tmp/cc4oluDf.s:112    .text:0000000000000080 .L0 
     /tmp/cc4oluDf.s:63     .rodata.str1.8:0000000000000050 .LC2
     /tmp/cc4oluDf.s:124    .text:00000000000000a8 .L0 
     /tmp/cc4oluDf.s:134    .text:00000000000000c0 .L0 
     /tmp/cc4oluDf.s:140    .text:00000000000000d0 .L0 
GAS LISTING /tmp/cc4oluDf.s 			page 13


     /tmp/cc4oluDf.s:147    .text:00000000000000e0 .L0 
     /tmp/cc4oluDf.s:179    .text:0000000000000110 .L0 
     /tmp/cc4oluDf.s:229    .text:0000000000000158 .L0 
     /tmp/cc4oluDf.s:235    .text:0000000000000168 .L0 
     /tmp/cc4oluDf.s:259    .text:0000000000000184 .L0 
     /tmp/cc4oluDf.s:31     .text:0000000000000020 .L4
     /tmp/cc4oluDf.s:23     .text:0000000000000014 .L1
     /tmp/cc4oluDf.s:157    .text:00000000000000f8 .L5
     /tmp/cc4oluDf.s:130    .text:00000000000000bc .L8
     /tmp/cc4oluDf.s:116    .text:0000000000000094 .L13
     /tmp/cc4oluDf.s:182    .text:000000000000011c .L11
     /tmp/cc4oluDf.s:174    .text:0000000000000110 .L14
     /tmp/cc4oluDf.s:150    .text:00000000000000ec .L10
     /tmp/cc4oluDf.s:254    .text:0000000000000184 .L16
     /tmp/cc4oluDf.s:237    .text:0000000000000170 .L15
     /tmp/cc4oluDf.s:1463   .debug_abbrev:0000000000000000 .Ldebug_abbrev0
     /tmp/cc4oluDf.s:2803   .debug_str:00000000000005ab .LASF98
     /tmp/cc4oluDf.s:2825   .debug_str:0000000000000725 .LASF99
     /tmp/cc4oluDf.s:2683   .debug_str:00000000000001e7 .LASF100
     /tmp/cc4oluDf.s:5      .text:0000000000000000 .Ltext0
     /tmp/cc4oluDf.s:313    .text:00000000000001cc .Letext0
     /tmp/cc4oluDf.s:2621   .debug_line:0000000000000000 .Ldebug_line0
     /tmp/cc4oluDf.s:2741   .debug_str:00000000000003b1 .LASF0
     /tmp/cc4oluDf.s:2757   .debug_str:0000000000000420 .LASF1
     /tmp/cc4oluDf.s:2727   .debug_str:000000000000034e .LASF2
     /tmp/cc4oluDf.s:2705   .debug_str:00000000000002ac .LASF4
     /tmp/cc4oluDf.s:2791   .debug_str:000000000000054c .LASF3
     /tmp/cc4oluDf.s:2641   .debug_str:0000000000000095 .LASF5
     /tmp/cc4oluDf.s:2761   .debug_str:000000000000043e .LASF6
     /tmp/cc4oluDf.s:2739   .debug_str:000000000000039e .LASF7
     /tmp/cc4oluDf.s:2817   .debug_str:00000000000006e4 .LASF8
     /tmp/cc4oluDf.s:2695   .debug_str:0000000000000260 .LASF9
     /tmp/cc4oluDf.s:2771   .debug_str:0000000000000497 .LASF10
     /tmp/cc4oluDf.s:2807   .debug_str:000000000000067b .LASF11
     /tmp/cc4oluDf.s:2645   .debug_str:00000000000000a7 .LASF12
     /tmp/cc4oluDf.s:2627   .debug_str:0000000000000016 .LASF13
     /tmp/cc4oluDf.s:2655   .debug_str:000000000000010f .LASF14
     /tmp/cc4oluDf.s:2783   .debug_str:00000000000004fa .LASF15
     /tmp/cc4oluDf.s:2661   .debug_str:0000000000000138 .LASF16
     /tmp/cc4oluDf.s:2701   .debug_str:000000000000029f .LASF17
     /tmp/cc4oluDf.s:2635   .debug_str:0000000000000071 .LASF18
     /tmp/cc4oluDf.s:2711   .debug_str:00000000000002dd .LASF19
     /tmp/cc4oluDf.s:2755   .debug_str:0000000000000418 .LASF20
     /tmp/cc4oluDf.s:2709   .debug_str:00000000000002d4 .LASF21
     /tmp/cc4oluDf.s:2745   .debug_str:00000000000003cd .LASF22
     /tmp/cc4oluDf.s:2713   .debug_str:00000000000002e2 .LASF23
     /tmp/cc4oluDf.s:2751   .debug_str:00000000000003fe .LASF24
     /tmp/cc4oluDf.s:2797   .debug_str:0000000000000589 .LASF25
     /tmp/cc4oluDf.s:2653   .debug_str:0000000000000105 .LASF26
     /tmp/cc4oluDf.s:2675   .debug_str:00000000000001b6 .LASF55
     /tmp/cc4oluDf.s:2633   .debug_str:0000000000000064 .LASF38
     /tmp/cc4oluDf.s:2835   .debug_str:0000000000000789 .LASF40
     /tmp/cc4oluDf.s:2723   .debug_str:0000000000000325 .LASF27
     /tmp/cc4oluDf.s:2697   .debug_str:000000000000026e .LASF29
     /tmp/cc4oluDf.s:2625   .debug_str:0000000000000007 .LASF28
     /tmp/cc4oluDf.s:2815   .debug_str:00000000000006c6 .LASF30
     /tmp/cc4oluDf.s:2679   .debug_str:00000000000001c7 .LASF31
GAS LISTING /tmp/cc4oluDf.s 			page 14


     /tmp/cc4oluDf.s:2703   .debug_str:00000000000002a7 .LASF32
     /tmp/cc4oluDf.s:2721   .debug_str:0000000000000320 .LASF33
     /tmp/cc4oluDf.s:2779   .debug_str:00000000000004cb .LASF34
     /tmp/cc4oluDf.s:2837   .debug_str:00000000000007b4 .LASF35
     /tmp/cc4oluDf.s:2667   .debug_str:0000000000000169 .LASF36
     /tmp/cc4oluDf.s:2731   .debug_str:0000000000000365 .LASF37
     /tmp/cc4oluDf.s:2693   .debug_str:0000000000000258 .LASF39
     /tmp/cc4oluDf.s:2681   .debug_str:00000000000001cc .LASF41
     /tmp/cc4oluDf.s:2805   .debug_str:000000000000066f .LASF42
     /tmp/cc4oluDf.s:2811   .debug_str:0000000000000692 .LASF44
     /tmp/cc4oluDf.s:2651   .debug_str:00000000000000fb .LASF43
     /tmp/cc4oluDf.s:2785   .debug_str:0000000000000510 .LASF45
     /tmp/cc4oluDf.s:2809   .debug_str:000000000000068a .LASF46
     /tmp/cc4oluDf.s:2773   .debug_str:00000000000004a6 .LASF47
     /tmp/cc4oluDf.s:2733   .debug_str:000000000000036a .LASF48
     /tmp/cc4oluDf.s:2657   .debug_str:000000000000011b .LASF49
     /tmp/cc4oluDf.s:2763   .debug_str:0000000000000451 .LASF50
     /tmp/cc4oluDf.s:2687   .debug_str:0000000000000216 .LASF51
     /tmp/cc4oluDf.s:2729   .debug_str:000000000000035c .LASF68
     /tmp/cc4oluDf.s:2663   .debug_str:000000000000014e .LASF72
     /tmp/cc4oluDf.s:2659   .debug_str:0000000000000130 .LASF52
     /tmp/cc4oluDf.s:2823   .debug_str:0000000000000720 .LASF53
     /tmp/cc4oluDf.s:2735   .debug_str:0000000000000372 .LASF54
     /tmp/cc4oluDf.s:2753   .debug_str:0000000000000408 .LASF66
     /tmp/cc4oluDf.s:2775   .debug_str:00000000000004bd .LASF56
     /tmp/cc4oluDf.s:2623   .debug_str:0000000000000000 .LASF57
     /tmp/cc4oluDf.s:2821   .debug_str:0000000000000716 .LASF58
     /tmp/cc4oluDf.s:2765   .debug_str:000000000000045b .LASF59
     /tmp/cc4oluDf.s:2759   .debug_str:0000000000000433 .LASF101
     /tmp/cc4oluDf.s:2649   .debug_str:00000000000000d8 .LASF102
     /tmp/cc4oluDf.s:2793   .debug_str:000000000000055e .LASF60
     /tmp/cc4oluDf.s:2795   .debug_str:0000000000000568 .LASF61
     /tmp/cc4oluDf.s:2671   .debug_str:000000000000019e .LASF62
     /tmp/cc4oluDf.s:2707   .debug_str:00000000000002b3 .LASF63
     /tmp/cc4oluDf.s:2743   .debug_str:00000000000003be .LASF64
     /tmp/cc4oluDf.s:2737   .debug_str:0000000000000377 .LASF65
     /tmp/cc4oluDf.s:2767   .debug_str:0000000000000484 .LASF67
     /tmp/cc4oluDf.s:2685   .debug_str:0000000000000205 .LASF103
     /tmp/cc4oluDf.s:2699   .debug_str:000000000000028b .LASF104
     /tmp/cc4oluDf.s:2813   .debug_str:00000000000006aa .LASF105
     /tmp/cc4oluDf.s:2799   .debug_str:0000000000000594 .LASF69
     /tmp/cc4oluDf.s:2665   .debug_str:0000000000000164 .LASF70
     /tmp/cc4oluDf.s:2833   .debug_str:0000000000000772 .LASF71
     /tmp/cc4oluDf.s:2725   .debug_str:0000000000000333 .LASF77
     /tmp/cc4oluDf.s:2829   .debug_str:000000000000074a .LASF106
     /tmp/cc4oluDf.s:2631   .debug_str:0000000000000049 .LASF107
     /tmp/cc4oluDf.s:2629   .debug_str:0000000000000026 .LASF73
     /tmp/cc4oluDf.s:2801   .debug_str:00000000000005a2 .LASF74
     /tmp/cc4oluDf.s:2839   .debug_str:00000000000007b9 .LASF75
     /tmp/cc4oluDf.s:2747   .debug_str:00000000000003d3 .LASF76
     /tmp/cc4oluDf.s:2819   .debug_str:00000000000006f4 .LASF78
     /tmp/cc4oluDf.s:2689   .debug_str:000000000000022d .LASF79
     /tmp/cc4oluDf.s:2749   .debug_str:00000000000003f3 .LASF80
     /tmp/cc4oluDf.s:2787   .debug_str:0000000000000526 .LASF81
     /tmp/cc4oluDf.s:2717   .debug_str:0000000000000308 .LASF82
     /tmp/cc4oluDf.s:2715   .debug_str:00000000000002ea .LASF83
     /tmp/cc4oluDf.s:2769   .debug_str:000000000000048e .LASF84
GAS LISTING /tmp/cc4oluDf.s 			page 15


     /tmp/cc4oluDf.s:2831   .debug_str:0000000000000754 .LASF85
     /tmp/cc4oluDf.s:2647   .debug_str:00000000000000b7 .LASF108
     /tmp/cc4oluDf.s:2669   .debug_str:000000000000016e .LASF86
     /tmp/cc4oluDf.s:273    .text:0000000000000198 .LFB35
     /tmp/cc4oluDf.s:299    .text:00000000000001cc .LFE35
     /tmp/cc4oluDf.s:289    .text:00000000000001bc .LVL28
     /tmp/cc4oluDf.s:2781   .debug_str:00000000000004d0 .LASF87
     /tmp/cc4oluDf.s:9      .text:0000000000000000 .LFB34
     /tmp/cc4oluDf.s:53     .text:0000000000000040 .LFE34
     /tmp/cc4oluDf.s:2719   .debug_str:0000000000000311 .LASF88
     /tmp/cc4oluDf.s:2643   .debug_str:000000000000009c .LASF89
     /tmp/cc4oluDf.s:38     .text:000000000000002c .LBB7
     /tmp/cc4oluDf.s:49     .text:000000000000003c .LBE7
     /tmp/cc4oluDf.s:2468   .debug_loc:0000000000000000 .LLST0
     /tmp/cc4oluDf.s:2777   .debug_str:00000000000004c6 .LASF90
     /tmp/cc4oluDf.s:2639   .debug_str:0000000000000090 .LASF91
     /tmp/cc4oluDf.s:2677   .debug_str:00000000000001be .LASF92
     /tmp/cc4oluDf.s:2789   .debug_str:0000000000000547 .LASF93
     /tmp/cc4oluDf.s:2637   .debug_str:0000000000000079 .LASF109
     /tmp/cc4oluDf.s:197    .text:0000000000000124 .LFB26
     /tmp/cc4oluDf.s:268    .text:0000000000000198 .LFE26
     /tmp/cc4oluDf.s:2477   .debug_loc:000000000000002c .LLST7
     /tmp/cc4oluDf.s:214    .text:000000000000013c .LBB26
     /tmp/cc4oluDf.s:2607   .debug_ranges:0000000000000000 .Ldebug_ranges0
     /tmp/cc4oluDf.s:2499   .debug_loc:000000000000008b .LLST8
     /tmp/cc4oluDf.s:2514   .debug_loc:00000000000000d4 .LLST9
     /tmp/cc4oluDf.s:2529   .debug_loc:000000000000011c .LLST10
     /tmp/cc4oluDf.s:220    .text:0000000000000148 .LVL22
     /tmp/cc4oluDf.s:223    .text:0000000000000150 .LVL23
     /tmp/cc4oluDf.s:70     .text:0000000000000040 .LFB25
     /tmp/cc4oluDf.s:191    .text:0000000000000124 .LFE25
     /tmp/cc4oluDf.s:85     .text:0000000000000054 .LBB16
     /tmp/cc4oluDf.s:95     .text:0000000000000064 .LBE16
     /tmp/cc4oluDf.s:2536   .debug_loc:000000000000013f .LLST1
     /tmp/cc4oluDf.s:100    .text:0000000000000068 .LBB18
     /tmp/cc4oluDf.s:2545   .debug_loc:000000000000016b .LLST2
     /tmp/cc4oluDf.s:2560   .debug_loc:00000000000001b3 .LLST3
     /tmp/cc4oluDf.s:2571   .debug_loc:00000000000001e9 .LLST4
     /tmp/cc4oluDf.s:102    .text:0000000000000068 .LBB20
     /tmp/cc4oluDf.s:138    .text:00000000000000d0 .LBE20
     /tmp/cc4oluDf.s:2578   .debug_loc:000000000000020c .LLST5
     /tmp/cc4oluDf.s:2587   .debug_loc:0000000000000238 .LLST6
     /tmp/cc4oluDf.s:110    .text:0000000000000080 .LVL7
     /tmp/cc4oluDf.s:114    .text:0000000000000090 .LVL8
     /tmp/cc4oluDf.s:122    .text:00000000000000a8 .LVL9
     /tmp/cc4oluDf.s:126    .text:00000000000000b8 .LVL10
     /tmp/cc4oluDf.s:136    .text:00000000000000d0 .LVL12
     /tmp/cc4oluDf.s:156    .text:00000000000000f8 .LVL15
     /tmp/cc4oluDf.s:2827   .debug_str:0000000000000737 .LASF94
     /tmp/cc4oluDf.s:2691   .debug_str:000000000000024c .LASF96
     /tmp/cc4oluDf.s:2673   .debug_str:00000000000001a7 .LASF95
     /tmp/cc4oluDf.s:2841   .debug_str:00000000000007da .LASF97
     /tmp/cc4oluDf.s:37     .text:000000000000002c .LVL1
     /tmp/cc4oluDf.s:46     .text:000000000000003c .LVL2
     /tmp/cc4oluDf.s:200    .text:0000000000000124 .LVL19
     /tmp/cc4oluDf.s:218    .text:0000000000000140 .LVL21
     /tmp/cc4oluDf.s:249    .text:000000000000017c .LVL25
GAS LISTING /tmp/cc4oluDf.s 			page 16


     /tmp/cc4oluDf.s:253    .text:0000000000000184 .LVL26
     /tmp/cc4oluDf.s:213    .text:000000000000013c .LVL20
     /tmp/cc4oluDf.s:236    .text:0000000000000170 .LVL24
     /tmp/cc4oluDf.s:262    .text:0000000000000194 .LVL27
     /tmp/cc4oluDf.s:84     .text:0000000000000054 .LVL3
     /tmp/cc4oluDf.s:93     .text:0000000000000064 .LVL4
     /tmp/cc4oluDf.s:99     .text:0000000000000068 .LVL5
     /tmp/cc4oluDf.s:173    .text:0000000000000110 .LVL16
     /tmp/cc4oluDf.s:185    .text:0000000000000120 .LVL18
     /tmp/cc4oluDf.s:143    .text:00000000000000dc .LVL13
     /tmp/cc4oluDf.s:181    .text:000000000000011c .LVL17
     /tmp/cc4oluDf.s:153    .text:00000000000000f0 .LVL14
     /tmp/cc4oluDf.s:106    .text:0000000000000070 .LVL6
     /tmp/cc4oluDf.s:322    .debug_info:0000000000000000 .Ldebug_info0
     /tmp/cc4oluDf.s:159    .text:00000000000000f8 .LBE18
     /tmp/cc4oluDf.s:176    .text:0000000000000110 .LBB23
     /tmp/cc4oluDf.s:187    .text:0000000000000120 .LBE23
     /tmp/cc4oluDf.s:239    .text:0000000000000170 .LBE26
     /tmp/cc4oluDf.s:256    .text:0000000000000184 .LBB29
     /tmp/cc4oluDf.s:264    .text:0000000000000194 .LBE29

UNDEFINED SYMBOLS
_Z11printStringPKc
_Z8printIntiii
_ZN15MemoryAllocator8mem_freeEPv
_ZN15MemoryAllocator14convert2BlocksEm
_ZN15MemoryAllocator9mem_allocEm
