GAS LISTING /tmp/ccELPuCj.s 			page 1


   1              		.file	"scheduler.cpp"
   2              		.option pic
   3              		.option norelax
   4              		.text
   5              	.Ltext0:
   6              		.align	2
   8              	_Z41__static_initialization_and_destruction_0ii:
   9              	.LFB33:
  10              		.file 1 "src/scheduler.cpp"
   1:src/scheduler.cpp **** 
   2:src/scheduler.cpp **** #include "../h/scheduler.hpp"
   3:src/scheduler.cpp **** 
   4:src/scheduler.cpp **** List<_thread> Scheduler::readyThreadQueue;
   5:src/scheduler.cpp **** 
   6:src/scheduler.cpp **** _thread* Scheduler::get()
   7:src/scheduler.cpp **** {
   8:src/scheduler.cpp ****     if (readyThreadQueue.peekFirst() != 0)
   9:src/scheduler.cpp ****         return readyThreadQueue.removeFirst();
  10:src/scheduler.cpp **** 
  11:src/scheduler.cpp ****     return nullptr;
  12:src/scheduler.cpp **** }
  13:src/scheduler.cpp **** 
  14:src/scheduler.cpp **** void Scheduler::put(_thread *ccb)
  15:src/scheduler.cpp **** {
  16:src/scheduler.cpp ****     readyThreadQueue.addLast(ccb);
  17:src/scheduler.cpp **** }
  11              		.loc 1 17 1
  12              		.cfi_startproc
  13              	.LVL0:
  14 0000 130101FF 		addi	sp,sp,-16
  15              		.cfi_def_cfa_offset 16
  16 0004 23348100 		sd	s0,8(sp)
  17              		.cfi_offset 8, -8
  18 0008 13040101 		addi	s0,sp,16
  19              		.cfi_def_cfa 8, 0
  20              		.loc 1 17 1 is_stmt 0
  21 000c 93071000 		li	a5,1
  22 0010 6308F500 		beq	a0,a5,.L4
  23              	.L1:
  24 0014 03348100 		ld	s0,8(sp)
  25              		.cfi_remember_state
  26              		.cfi_restore 8
  27              		.cfi_def_cfa 2, 16
  28 0018 13010101 		addi	sp,sp,16
  29              		.cfi_def_cfa_offset 0
  30 001c 67800000 		jr	ra
  31              	.L4:
  32              		.cfi_restore_state
  33              		.loc 1 17 1 discriminator 1
  34 0020 B7070100 		li	a5,65536
  35 0024 9387F7FF 		addi	a5,a5,-1
  36 0028 E396F5FE 		bne	a1,a5,.L1
  37              	.LVL1:
  38              	.LBB9:
  39              	.LBB10:
  40              	.LBB11:
  41              		.file 2 "src/../h/list.hpp"
GAS LISTING /tmp/ccELPuCj.s 			page 2


   1:src/../h/list.hpp **** 
   2:src/../h/list.hpp **** 
   3:src/../h/list.hpp **** #ifndef OS1_VEZBE07_RISCV_CONTEXT_SWITCH_2_INTERRUPT_LIST_HPP
   4:src/../h/list.hpp **** #define OS1_VEZBE07_RISCV_CONTEXT_SWITCH_2_INTERRUPT_LIST_HPP
   5:src/../h/list.hpp **** 
   6:src/../h/list.hpp **** #include "MemoryAllocator.hpp"
   7:src/../h/list.hpp **** #include "../test/printing.hpp"
   8:src/../h/list.hpp **** 
   9:src/../h/list.hpp **** 
  10:src/../h/list.hpp **** template<typename T>
  11:src/../h/list.hpp **** class List
  12:src/../h/list.hpp **** {
  13:src/../h/list.hpp **** private:
  14:src/../h/list.hpp ****     struct Elem
  15:src/../h/list.hpp ****     {
  16:src/../h/list.hpp ****         T *data;
  17:src/../h/list.hpp ****         Elem *next;
  18:src/../h/list.hpp **** 
  19:src/../h/list.hpp ****         Elem(T *data, Elem *next) : data(data), next(next) {}
  20:src/../h/list.hpp ****     };
  21:src/../h/list.hpp **** 
  22:src/../h/list.hpp **** public:
  23:src/../h/list.hpp ****     List() : head(0), tail(0) {}
  42              		.loc 2 23 29
  43 002c 97070000 		lla	a5,.LANCHOR0
  43      93870700 
  44 0034 23B00700 		sd	zero,0(a5)
  45 0038 23B40700 		sd	zero,8(a5)
  46              	.LVL2:
  47              	.LBE11:
  48              	.LBE10:
  49              	.LBE9:
  50              		.loc 1 17 1
  51 003c 6FF09FFD 		j	.L1
  52              		.cfi_endproc
  53              	.LFE33:
  55              		.align	2
  56              		.globl	_ZN9Scheduler3getEv
  58              	_ZN9Scheduler3getEv:
  59              	.LFB25:
   7:src/scheduler.cpp ****     if (readyThreadQueue.peekFirst() != 0)
  60              		.loc 1 7 1 is_stmt 1
  61              		.cfi_startproc
  62 0040 130101FE 		addi	sp,sp,-32
  63              		.cfi_def_cfa_offset 32
  64 0044 233C1100 		sd	ra,24(sp)
  65 0048 23388100 		sd	s0,16(sp)
  66 004c 23349100 		sd	s1,8(sp)
  67              		.cfi_offset 1, -8
  68              		.cfi_offset 8, -16
  69              		.cfi_offset 9, -24
  70 0050 13040102 		addi	s0,sp,32
  71              		.cfi_def_cfa 8, 0
   8:src/scheduler.cpp ****         return readyThreadQueue.removeFirst();
  72              		.loc 1 8 5
  73              	.LVL3:
  74              	.LBB12:
GAS LISTING /tmp/ccELPuCj.s 			page 3


  75              	.LBB13:
  24:src/../h/list.hpp **** 
  25:src/../h/list.hpp ****     List(const List<T> &) = delete;
  26:src/../h/list.hpp **** 
  27:src/../h/list.hpp ****     List<T> &operator=(const List<T> &) = delete;
  28:src/../h/list.hpp **** 
  29:src/../h/list.hpp ****     Elem *head = nullptr, *tail = nullptr;
  30:src/../h/list.hpp **** 
  31:src/../h/list.hpp ****     void addFirst(T *data)
  32:src/../h/list.hpp ****     {
  33:src/../h/list.hpp ****         Elem *elem = new Elem(data, head);
  34:src/../h/list.hpp ****         head = elem;
  35:src/../h/list.hpp ****         if (!tail) { tail = head; }
  36:src/../h/list.hpp ****     }
  37:src/../h/list.hpp **** 
  38:src/../h/list.hpp ****     void addLast(T *data)
  39:src/../h/list.hpp ****     {
  40:src/../h/list.hpp ****         // Elem *elem = new Elem(data, 0);
  41:src/../h/list.hpp ****         size_t blockNum = MemoryAllocator::convert2Blocks(sizeof(List<T>::Elem));
  42:src/../h/list.hpp ****         Elem *elem = (Elem*)MemoryAllocator::mem_alloc(blockNum);
  43:src/../h/list.hpp **** 
  44:src/../h/list.hpp ****         elem->data = data;
  45:src/../h/list.hpp ****         elem->next = nullptr;
  46:src/../h/list.hpp **** 
  47:src/../h/list.hpp ****         if (tail != 0)
  48:src/../h/list.hpp ****         {
  49:src/../h/list.hpp **** //            printInteger((size_t)tail->data);
  50:src/../h/list.hpp **** //            printString("\n");
  51:src/../h/list.hpp ****             tail->next = elem;
  52:src/../h/list.hpp ****             tail = elem;
  53:src/../h/list.hpp ****         } else
  54:src/../h/list.hpp ****         {
  55:src/../h/list.hpp ****             head = tail = elem;
  56:src/../h/list.hpp ****         }
  57:src/../h/list.hpp **** 
  58:src/../h/list.hpp **** //        printString("\nMemory address thread: ");
  59:src/../h/list.hpp **** //        printString("\n");
  60:src/../h/list.hpp **** //        printInteger((size_t)(&tail->data));
  61:src/../h/list.hpp **** 
  62:src/../h/list.hpp **** //        printString("\nSheduler.put(): ");
  63:src/../h/list.hpp **** //        printInteger((uint64) *elem->data);
  64:src/../h/list.hpp **** //        printString("\n");
  65:src/../h/list.hpp ****     }
  66:src/../h/list.hpp **** 
  67:src/../h/list.hpp ****     T *removeFirst()
  68:src/../h/list.hpp ****     {
  69:src/../h/list.hpp ****         // printAll();
  70:src/../h/list.hpp ****         if (!head) { return 0; }
  71:src/../h/list.hpp **** 
  72:src/../h/list.hpp ****         Elem *elem = head;
  73:src/../h/list.hpp ****         head = head->next;
  74:src/../h/list.hpp ****         if (!head) { tail = 0; }
  75:src/../h/list.hpp **** 
  76:src/../h/list.hpp ****         T *ret = elem->data;
  77:src/../h/list.hpp ****         // delete elem;
  78:src/../h/list.hpp ****         MemoryAllocator::mem_free(elem);
  79:src/../h/list.hpp **** 
GAS LISTING /tmp/ccELPuCj.s 			page 4


  80:src/../h/list.hpp **** //        printString("\nSheduler.get(): ");
  81:src/../h/list.hpp **** //        printInteger((uint64) *ret);
  82:src/../h/list.hpp **** //        printString("\n");
  83:src/../h/list.hpp **** 
  84:src/../h/list.hpp ****         return ret;
  85:src/../h/list.hpp ****     }
  86:src/../h/list.hpp **** 
  87:src/../h/list.hpp ****     T *peekFirst()
  88:src/../h/list.hpp ****     {
  89:src/../h/list.hpp ****         if (!head) { return 0; }
  76              		.loc 2 89 14 is_stmt 0
  77 0054 17050000 		ld	a0,.LANCHOR0
  77      03350500 
  78              		.loc 2 89 9
  79 005c 63060504 		beqz	a0,.L8
  90:src/../h/list.hpp **** //        printString("\n\nMemory:\n");
  91:src/../h/list.hpp **** //        for(int i = 0; i < 10; i++)
  92:src/../h/list.hpp **** //        {
  93:src/../h/list.hpp **** //            printInteger((size_t)head->data);
  94:src/../h/list.hpp **** //            printString("\n");
  95:src/../h/list.hpp **** //            printInteger((size_t)((uint8*)head)[i]);
  96:src/../h/list.hpp **** //            printString(" ");
  97:src/../h/list.hpp **** //        }
  98:src/../h/list.hpp **** //        printString("\n");
  99:src/../h/list.hpp ****         return head->data;
  80              		.loc 2 99 22
  81 0060 83340500 		ld	s1,0(a0)
  82              	.LVL4:
  83              	.LBE13:
  84              	.LBE12:
   8:src/scheduler.cpp ****         return readyThreadQueue.removeFirst();
  85              		.loc 1 8 5
  86 0064 63800402 		beqz	s1,.L5
   9:src/scheduler.cpp **** 
  87              		.loc 1 9 9 is_stmt 1
  88              	.LVL5:
  89              	.LBB14:
  90              	.LBB15:
  73:src/../h/list.hpp ****         if (!head) { tail = 0; }
  91              		.loc 2 73 22 is_stmt 0
  92 0068 83378500 		ld	a5,8(a0)
  73:src/../h/list.hpp ****         if (!head) { tail = 0; }
  93              		.loc 2 73 9
  94 006c 17070000 		sd	a5,.LANCHOR0,a4
  94      2330F700 
  74:src/../h/list.hpp **** 
  95              		.loc 2 74 9
  96 0074 63840702 		beqz	a5,.L10
  97              	.L7:
  76:src/../h/list.hpp ****         // delete elem;
  98              		.loc 2 76 12
  99 0078 83340500 		ld	s1,0(a0)
 100              	.LVL6:
  78:src/../h/list.hpp **** 
 101              		.loc 2 78 34
 102 007c 97000000 		call	_ZN15MemoryAllocator8mem_freeEPv@plt
 102      E7800000 
GAS LISTING /tmp/ccELPuCj.s 			page 5


 103              	.LVL7:
 104              	.L5:
 105              	.LBE15:
 106              	.LBE14:
  12:src/scheduler.cpp **** 
 107              		.loc 1 12 1
 108 0084 13850400 		mv	a0,s1
 109 0088 83308101 		ld	ra,24(sp)
 110              		.cfi_remember_state
 111              		.cfi_restore 1
 112 008c 03340101 		ld	s0,16(sp)
 113              		.cfi_restore 8
 114              		.cfi_def_cfa 2, 32
 115 0090 83348100 		ld	s1,8(sp)
 116              		.cfi_restore 9
 117 0094 13010102 		addi	sp,sp,32
 118              		.cfi_def_cfa_offset 0
 119 0098 67800000 		jr	ra
 120              	.LVL8:
 121              	.L10:
 122              		.cfi_restore_state
 123              	.LBB17:
 124              	.LBB16:
  74:src/../h/list.hpp **** 
 125              		.loc 2 74 22
 126 009c 97070000 		sd	zero,.LANCHOR0+8,a5
 126      23B00700 
 127 00a4 6FF05FFD 		j	.L7
 128              	.LVL9:
 129              	.L8:
 130              	.LBE16:
 131              	.LBE17:
  11:src/scheduler.cpp **** }
 132              		.loc 1 11 12
 133 00a8 93040500 		mv	s1,a0
 134              	.LVL10:
 135 00ac 6FF09FFD 		j	.L5
 136              		.cfi_endproc
 137              	.LFE25:
 139              		.align	2
 140              		.globl	_ZN9Scheduler3putEP7_thread
 142              	_ZN9Scheduler3putEP7_thread:
 143              	.LFB26:
  15:src/scheduler.cpp ****     readyThreadQueue.addLast(ccb);
 144              		.loc 1 15 1 is_stmt 1
 145              		.cfi_startproc
 146              	.LVL11:
 147 00b0 130101FE 		addi	sp,sp,-32
 148              		.cfi_def_cfa_offset 32
 149 00b4 233C1100 		sd	ra,24(sp)
 150 00b8 23388100 		sd	s0,16(sp)
 151 00bc 23349100 		sd	s1,8(sp)
 152              		.cfi_offset 1, -8
 153              		.cfi_offset 8, -16
 154              		.cfi_offset 9, -24
 155 00c0 13040102 		addi	s0,sp,32
 156              		.cfi_def_cfa 8, 0
GAS LISTING /tmp/ccELPuCj.s 			page 6


 157 00c4 93040500 		mv	s1,a0
  16:src/scheduler.cpp **** }
 158              		.loc 1 16 5
 159              	.LVL12:
 160              	.LBB20:
 161              	.LBB21:
  41:src/../h/list.hpp ****         Elem *elem = (Elem*)MemoryAllocator::mem_alloc(blockNum);
 162              		.loc 2 41 58 is_stmt 0
 163 00c8 13050001 		li	a0,16
 164              	.LVL13:
 165 00cc 97000000 		call	_ZN15MemoryAllocator14convert2BlocksEm@plt
 165      E7800000 
 166              	.LVL14:
  42:src/../h/list.hpp **** 
 167              		.loc 2 42 55
 168 00d4 97000000 		call	_ZN15MemoryAllocator9mem_allocEm@plt
 168      E7800000 
 169              	.LVL15:
  44:src/../h/list.hpp ****         elem->next = nullptr;
 170              		.loc 2 44 9
 171 00dc 23309500 		sd	s1,0(a0)
  45:src/../h/list.hpp **** 
 172              		.loc 2 45 9
 173 00e0 23340500 		sd	zero,8(a0)
  47:src/../h/list.hpp ****         {
 174              		.loc 2 47 13
 175 00e4 97070000 		ld	a5,.LANCHOR0+8
 175      83B70700 
  47:src/../h/list.hpp ****         {
 176              		.loc 2 47 9
 177 00ec 63820702 		beqz	a5,.L12
  51:src/../h/list.hpp ****             tail = elem;
 178              		.loc 2 51 13
 179 00f0 23B4A700 		sd	a0,8(a5)
  52:src/../h/list.hpp ****         } else
 180              		.loc 2 52 13
 181 00f4 97070000 		sd	a0,.LANCHOR0+8,a5
 181      23B0A700 
 182              	.LVL16:
 183              	.L11:
 184              	.LBE21:
 185              	.LBE20:
 186              		.loc 1 17 1
 187 00fc 83308101 		ld	ra,24(sp)
 188              		.cfi_remember_state
 189              		.cfi_restore 1
 190 0100 03340101 		ld	s0,16(sp)
 191              		.cfi_restore 8
 192              		.cfi_def_cfa 2, 32
 193 0104 83348100 		ld	s1,8(sp)
 194              		.cfi_restore 9
 195              	.LVL17:
 196 0108 13010102 		addi	sp,sp,32
 197              		.cfi_def_cfa_offset 0
 198 010c 67800000 		jr	ra
 199              	.LVL18:
 200              	.L12:
GAS LISTING /tmp/ccELPuCj.s 			page 7


 201              		.cfi_restore_state
 202              	.LBB23:
 203              	.LBB22:
  55:src/../h/list.hpp ****         }
 204              		.loc 2 55 13
 205 0110 97070000 		lla	a5,.LANCHOR0
 205      93870700 
 206 0118 23B4A700 		sd	a0,8(a5)
 207 011c 23B0A700 		sd	a0,0(a5)
 208              	.LVL19:
 209              	.LBE22:
 210              	.LBE23:
 211              		.loc 1 17 1
 212 0120 6FF0DFFD 		j	.L11
 213              		.cfi_endproc
 214              	.LFE26:
 216              		.align	2
 218              	_GLOBAL__sub_I__ZN9Scheduler16readyThreadQueueE:
 219              	.LFB34:
 220              		.loc 1 17 1 is_stmt 1
 221              		.cfi_startproc
 222 0124 130101FF 		addi	sp,sp,-16
 223              		.cfi_def_cfa_offset 16
 224 0128 23341100 		sd	ra,8(sp)
 225 012c 23308100 		sd	s0,0(sp)
 226              		.cfi_offset 1, -8
 227              		.cfi_offset 8, -16
 228 0130 13040101 		addi	s0,sp,16
 229              		.cfi_def_cfa 8, 0
 230              		.loc 1 17 1 is_stmt 0
 231 0134 B7050100 		li	a1,65536
 232 0138 9385F5FF 		addi	a1,a1,-1
 233 013c 13051000 		li	a0,1
 234 0140 97000000 		call	_Z41__static_initialization_and_destruction_0ii
 234      E7800000 
 235              	.LVL20:
 236 0148 83308100 		ld	ra,8(sp)
 237              		.cfi_restore 1
 238 014c 03340100 		ld	s0,0(sp)
 239              		.cfi_restore 8
 240              		.cfi_def_cfa 2, 16
 241 0150 13010101 		addi	sp,sp,16
 242              		.cfi_def_cfa_offset 0
 243 0154 67800000 		jr	ra
 244              		.cfi_endproc
 245              	.LFE34:
 247              		.section	.init_array,"aw"
 248              		.align	3
 249 0000 00000000 		.dword	_GLOBAL__sub_I__ZN9Scheduler16readyThreadQueueE
 249      00000000 
 250              		.globl	_ZN9Scheduler16readyThreadQueueE
 251              		.bss
 252              		.align	3
 253              		.set	.LANCHOR0,. + 0
 256              	_ZN9Scheduler16readyThreadQueueE:
 257 0000 00000000 		.zero	16
 257      00000000 
GAS LISTING /tmp/ccELPuCj.s 			page 8


 257      00000000 
 257      00000000 
 258              		.text
 259              	.Letext0:
 260              		.file 3 "src/../h/../test/../h/../lib/hw.h"
 261              		.file 4 "src/../h/../test/../h/../h/thread.hpp"
 262              		.file 5 "src/../h/../test/../h/../h/sem.hpp"
 263              		.file 6 "src/../h/MemoryAllocator.hpp"
 264              		.file 7 "src/../h/scheduler.hpp"
 265              		.file 8 "src/../h/../test/../h/syscall_c.hpp"
GAS LISTING /tmp/ccELPuCj.s 			page 9


DEFINED SYMBOLS
                            *ABS*:0000000000000000 scheduler.cpp
     /tmp/ccELPuCj.s:8      .text:0000000000000000 _Z41__static_initialization_and_destruction_0ii
     /tmp/ccELPuCj.s:12     .text:0000000000000000 .L0 
     /tmp/ccELPuCj.s:14     .text:0000000000000000 .L0 
     /tmp/ccELPuCj.s:15     .text:0000000000000004 .L0 
     /tmp/ccELPuCj.s:17     .text:0000000000000008 .L0 
     /tmp/ccELPuCj.s:19     .text:000000000000000c .L0 
     /tmp/ccELPuCj.s:21     .text:000000000000000c .L0 
     /tmp/ccELPuCj.s:25     .text:0000000000000018 .L0 
     /tmp/ccELPuCj.s:26     .text:0000000000000018 .L0 
     /tmp/ccELPuCj.s:27     .text:0000000000000018 .L0 
     /tmp/ccELPuCj.s:29     .text:000000000000001c .L0 
     /tmp/ccELPuCj.s:32     .text:0000000000000020 .L0 
     /tmp/ccELPuCj.s:34     .text:0000000000000020 .L0 
     /tmp/ccELPuCj.s:43     .text:000000000000002c .L0 
     /tmp/ccELPuCj.s:51     .text:000000000000003c .L0 
     /tmp/ccELPuCj.s:52     .text:0000000000000040 .L0 
     /tmp/ccELPuCj.s:58     .text:0000000000000040 _ZN9Scheduler3getEv
     /tmp/ccELPuCj.s:61     .text:0000000000000040 .L0 
     /tmp/ccELPuCj.s:62     .text:0000000000000040 .L0 
     /tmp/ccELPuCj.s:63     .text:0000000000000044 .L0 
     /tmp/ccELPuCj.s:67     .text:0000000000000050 .L0 
     /tmp/ccELPuCj.s:68     .text:0000000000000050 .L0 
     /tmp/ccELPuCj.s:69     .text:0000000000000050 .L0 
     /tmp/ccELPuCj.s:71     .text:0000000000000054 .L0 
     /tmp/ccELPuCj.s:76     .text:0000000000000054 .L0 
     /tmp/ccELPuCj.s:77     .text:0000000000000054 .L0 
     /tmp/ccELPuCj.s:79     .text:000000000000005c .L0 
     /tmp/ccELPuCj.s:81     .text:0000000000000060 .L0 
     /tmp/ccELPuCj.s:86     .text:0000000000000064 .L0 
     /tmp/ccELPuCj.s:91     .text:0000000000000068 .L0 
     /tmp/ccELPuCj.s:92     .text:0000000000000068 .L0 
     /tmp/ccELPuCj.s:94     .text:000000000000006c .L0 
     /tmp/ccELPuCj.s:96     .text:0000000000000074 .L0 
     /tmp/ccELPuCj.s:99     .text:0000000000000078 .L0 
     /tmp/ccELPuCj.s:102    .text:000000000000007c .L0 
     /tmp/ccELPuCj.s:108    .text:0000000000000084 .L0 
     /tmp/ccELPuCj.s:110    .text:000000000000008c .L0 
     /tmp/ccELPuCj.s:111    .text:000000000000008c .L0 
     /tmp/ccELPuCj.s:113    .text:0000000000000090 .L0 
     /tmp/ccELPuCj.s:114    .text:0000000000000090 .L0 
     /tmp/ccELPuCj.s:116    .text:0000000000000094 .L0 
     /tmp/ccELPuCj.s:118    .text:0000000000000098 .L0 
     /tmp/ccELPuCj.s:122    .text:000000000000009c .L0 
     /tmp/ccELPuCj.s:126    .text:000000000000009c .L0 
     /tmp/ccELPuCj.s:133    .text:00000000000000a8 .L0 
     /tmp/ccELPuCj.s:136    .text:00000000000000b0 .L0 
     /tmp/ccELPuCj.s:142    .text:00000000000000b0 _ZN9Scheduler3putEP7_thread
     /tmp/ccELPuCj.s:145    .text:00000000000000b0 .L0 
     /tmp/ccELPuCj.s:147    .text:00000000000000b0 .L0 
     /tmp/ccELPuCj.s:148    .text:00000000000000b4 .L0 
     /tmp/ccELPuCj.s:152    .text:00000000000000c0 .L0 
     /tmp/ccELPuCj.s:153    .text:00000000000000c0 .L0 
     /tmp/ccELPuCj.s:154    .text:00000000000000c0 .L0 
     /tmp/ccELPuCj.s:156    .text:00000000000000c4 .L0 
     /tmp/ccELPuCj.s:162    .text:00000000000000c8 .L0 
GAS LISTING /tmp/ccELPuCj.s 			page 10


     /tmp/ccELPuCj.s:163    .text:00000000000000c8 .L0 
     /tmp/ccELPuCj.s:168    .text:00000000000000d4 .L0 
     /tmp/ccELPuCj.s:171    .text:00000000000000dc .L0 
     /tmp/ccELPuCj.s:173    .text:00000000000000e0 .L0 
     /tmp/ccELPuCj.s:175    .text:00000000000000e4 .L0 
     /tmp/ccELPuCj.s:177    .text:00000000000000ec .L0 
     /tmp/ccELPuCj.s:179    .text:00000000000000f0 .L0 
     /tmp/ccELPuCj.s:181    .text:00000000000000f4 .L0 
     /tmp/ccELPuCj.s:187    .text:00000000000000fc .L0 
     /tmp/ccELPuCj.s:188    .text:0000000000000100 .L0 
     /tmp/ccELPuCj.s:189    .text:0000000000000100 .L0 
     /tmp/ccELPuCj.s:191    .text:0000000000000104 .L0 
     /tmp/ccELPuCj.s:192    .text:0000000000000104 .L0 
     /tmp/ccELPuCj.s:194    .text:0000000000000108 .L0 
     /tmp/ccELPuCj.s:197    .text:000000000000010c .L0 
     /tmp/ccELPuCj.s:201    .text:0000000000000110 .L0 
     /tmp/ccELPuCj.s:205    .text:0000000000000110 .L0 
     /tmp/ccELPuCj.s:212    .text:0000000000000120 .L0 
     /tmp/ccELPuCj.s:213    .text:0000000000000124 .L0 
     /tmp/ccELPuCj.s:218    .text:0000000000000124 _GLOBAL__sub_I__ZN9Scheduler16readyThreadQueueE
     /tmp/ccELPuCj.s:221    .text:0000000000000124 .L0 
     /tmp/ccELPuCj.s:222    .text:0000000000000124 .L0 
     /tmp/ccELPuCj.s:223    .text:0000000000000128 .L0 
     /tmp/ccELPuCj.s:226    .text:0000000000000130 .L0 
     /tmp/ccELPuCj.s:227    .text:0000000000000130 .L0 
     /tmp/ccELPuCj.s:229    .text:0000000000000134 .L0 
     /tmp/ccELPuCj.s:231    .text:0000000000000134 .L0 
     /tmp/ccELPuCj.s:237    .text:000000000000014c .L0 
     /tmp/ccELPuCj.s:239    .text:0000000000000150 .L0 
     /tmp/ccELPuCj.s:240    .text:0000000000000150 .L0 
     /tmp/ccELPuCj.s:242    .text:0000000000000154 .L0 
     /tmp/ccELPuCj.s:244    .text:0000000000000158 .L0 
     /tmp/ccELPuCj.s:256    .bss:0000000000000000 _ZN9Scheduler16readyThreadQueueE
     /tmp/ccELPuCj.s:253    .bss:0000000000000000 .LANCHOR0
     /tmp/ccELPuCj.s:266    .text:0000000000000158 .L0 
     /tmp/ccELPuCj.s:43     .text:000000000000002c .L0 
     /tmp/ccELPuCj.s:77     .text:0000000000000054 .L0 
     /tmp/ccELPuCj.s:94     .text:000000000000006c .L0 
     /tmp/ccELPuCj.s:126    .text:000000000000009c .L0 
     /tmp/ccELPuCj.s:175    .text:00000000000000e4 .L0 
     /tmp/ccELPuCj.s:181    .text:00000000000000f4 .L0 
     /tmp/ccELPuCj.s:205    .text:0000000000000110 .L0 
     /tmp/ccELPuCj.s:31     .text:0000000000000020 .L4
     /tmp/ccELPuCj.s:23     .text:0000000000000014 .L1
     /tmp/ccELPuCj.s:129    .text:00000000000000a8 .L8
     /tmp/ccELPuCj.s:104    .text:0000000000000084 .L5
     /tmp/ccELPuCj.s:121    .text:000000000000009c .L10
     /tmp/ccELPuCj.s:97     .text:0000000000000078 .L7
     /tmp/ccELPuCj.s:200    .text:0000000000000110 .L12
     /tmp/ccELPuCj.s:183    .text:00000000000000fc .L11
     /tmp/ccELPuCj.s:1402   .debug_abbrev:0000000000000000 .Ldebug_abbrev0
     /tmp/ccELPuCj.s:2784   .debug_str:000000000000060e .LASF102
     /tmp/ccELPuCj.s:2806   .debug_str:0000000000000788 .LASF103
     /tmp/ccELPuCj.s:2654   .debug_str:0000000000000205 .LASF104
     /tmp/ccELPuCj.s:5      .text:0000000000000000 .Ltext0
     /tmp/ccELPuCj.s:259    .text:0000000000000158 .Letext0
     /tmp/ccELPuCj.s:2592   .debug_line:0000000000000000 .Ldebug_line0
GAS LISTING /tmp/ccELPuCj.s 			page 11


     /tmp/ccELPuCj.s:2714   .debug_str:00000000000003dd .LASF0
     /tmp/ccELPuCj.s:2734   .debug_str:0000000000000471 .LASF1
     /tmp/ccELPuCj.s:2702   .debug_str:000000000000037f .LASF2
     /tmp/ccELPuCj.s:2678   .debug_str:00000000000002d8 .LASF4
     /tmp/ccELPuCj.s:2770   .debug_str:00000000000005aa .LASF3
     /tmp/ccELPuCj.s:2610   .debug_str:0000000000000090 .LASF5
     /tmp/ccELPuCj.s:2738   .debug_str:000000000000048f .LASF6
     /tmp/ccELPuCj.s:2712   .debug_str:00000000000003ca .LASF7
     /tmp/ccELPuCj.s:2798   .debug_str:0000000000000747 .LASF8
     /tmp/ccELPuCj.s:2666   .debug_str:0000000000000287 .LASF9
     /tmp/ccELPuCj.s:2748   .debug_str:00000000000004e8 .LASF10
     /tmp/ccELPuCj.s:2788   .debug_str:00000000000006de .LASF11
     /tmp/ccELPuCj.s:2614   .debug_str:00000000000000a2 .LASF12
     /tmp/ccELPuCj.s:2598   .debug_str:0000000000000016 .LASF13
     /tmp/ccELPuCj.s:2624   .debug_str:000000000000010a .LASF14
     /tmp/ccELPuCj.s:2762   .debug_str:0000000000000556 .LASF15
     /tmp/ccELPuCj.s:2630   .debug_str:0000000000000133 .LASF16
     /tmp/ccELPuCj.s:2674   .debug_str:00000000000002cb .LASF17
     /tmp/ccELPuCj.s:2606   .debug_str:0000000000000071 .LASF18
     /tmp/ccELPuCj.s:2696   .debug_str:000000000000035a .LASF19
     /tmp/ccELPuCj.s:2758   .debug_str:0000000000000527 .LASF20
     /tmp/ccELPuCj.s:2816   .debug_str:0000000000000804 .LASF21
     /tmp/ccELPuCj.s:2684   .debug_str:0000000000000309 .LASF22
     /tmp/ccELPuCj.s:2730   .debug_str:000000000000045e .LASF23
     /tmp/ccELPuCj.s:2682   .debug_str:0000000000000300 .LASF24
     /tmp/ccELPuCj.s:2718   .debug_str:00000000000003f9 .LASF25
     /tmp/ccELPuCj.s:2686   .debug_str:000000000000030e .LASF26
     /tmp/ccELPuCj.s:2724   .debug_str:000000000000042a .LASF27
     /tmp/ccELPuCj.s:2776   .debug_str:00000000000005e7 .LASF28
     /tmp/ccELPuCj.s:2622   .debug_str:0000000000000100 .LASF29
     /tmp/ccELPuCj.s:2756   .debug_str:000000000000051c .LASF30
     /tmp/ccELPuCj.s:2732   .debug_str:0000000000000466 .LASF41
     /tmp/ccELPuCj.s:2726   .debug_str:0000000000000434 .LASF43
     /tmp/ccELPuCj.s:2778   .debug_str:00000000000005f2 .LASF31
     /tmp/ccELPuCj.s:2638   .debug_str:000000000000017c .LASF32
     /tmp/ccELPuCj.s:2698   .debug_str:000000000000035f .LASF33
     /tmp/ccELPuCj.s:2664   .debug_str:000000000000027f .LASF49
     /tmp/ccELPuCj.s:2636   .debug_str:0000000000000164 .LASF62
     /tmp/ccELPuCj.s:2768   .debug_str:00000000000005a3 .LASF34
     /tmp/ccELPuCj.s:2662   .debug_str:000000000000026a .LASF36
     /tmp/ccELPuCj.s:2820   .debug_str:000000000000082a .LASF35
     /tmp/ccELPuCj.s:2642   .debug_str:00000000000001b1 .LASF37
     /tmp/ccELPuCj.s:2646   .debug_str:00000000000001d4 .LASF38
     /tmp/ccELPuCj.s:2604   .debug_str:0000000000000064 .LASF39
     /tmp/ccELPuCj.s:2814   .debug_str:00000000000007d9 .LASF40
     /tmp/ccELPuCj.s:2692   .debug_str:000000000000033d .LASF42
     /tmp/ccELPuCj.s:2668   .debug_str:0000000000000295 .LASF44
     /tmp/ccELPuCj.s:2596   .debug_str:0000000000000007 .LASF45
     /tmp/ccELPuCj.s:2796   .debug_str:0000000000000729 .LASF46
     /tmp/ccELPuCj.s:2650   .debug_str:00000000000001e5 .LASF47
     /tmp/ccELPuCj.s:2676   .debug_str:00000000000002d3 .LASF48
     /tmp/ccELPuCj.s:2652   .debug_str:00000000000001ea .LASF50
     /tmp/ccELPuCj.s:2786   .debug_str:00000000000006d2 .LASF51
     /tmp/ccELPuCj.s:2792   .debug_str:00000000000006f5 .LASF53
     /tmp/ccELPuCj.s:2620   .debug_str:00000000000000f6 .LASF52
     /tmp/ccELPuCj.s:2764   .debug_str:000000000000056c .LASF54
     /tmp/ccELPuCj.s:2790   .debug_str:00000000000006ed .LASF55
GAS LISTING /tmp/ccELPuCj.s 			page 12


     /tmp/ccELPuCj.s:2750   .debug_str:00000000000004f7 .LASF56
     /tmp/ccELPuCj.s:2706   .debug_str:0000000000000396 .LASF57
     /tmp/ccELPuCj.s:2626   .debug_str:0000000000000116 .LASF58
     /tmp/ccELPuCj.s:2740   .debug_str:00000000000004a2 .LASF59
     /tmp/ccELPuCj.s:2658   .debug_str:0000000000000234 .LASF60
     /tmp/ccELPuCj.s:2704   .debug_str:000000000000038d .LASF61
     /tmp/ccELPuCj.s:2632   .debug_str:0000000000000149 .LASF63
     /tmp/ccELPuCj.s:2628   .debug_str:000000000000012b .LASF64
     /tmp/ccELPuCj.s:2804   .debug_str:0000000000000783 .LASF65
     /tmp/ccELPuCj.s:2708   .debug_str:000000000000039e .LASF66
     /tmp/ccELPuCj.s:2728   .debug_str:000000000000044e .LASF77
     /tmp/ccELPuCj.s:2752   .debug_str:000000000000050e .LASF67
     /tmp/ccELPuCj.s:2594   .debug_str:0000000000000000 .LASF68
     /tmp/ccELPuCj.s:2802   .debug_str:0000000000000779 .LASF69
     /tmp/ccELPuCj.s:2742   .debug_str:00000000000004ac .LASF70
     /tmp/ccELPuCj.s:2736   .debug_str:0000000000000484 .LASF105
     /tmp/ccELPuCj.s:2618   .debug_str:00000000000000d3 .LASF106
     /tmp/ccELPuCj.s:2772   .debug_str:00000000000005bc .LASF71
     /tmp/ccELPuCj.s:2774   .debug_str:00000000000005c6 .LASF72
     /tmp/ccELPuCj.s:2644   .debug_str:00000000000001cb .LASF73
     /tmp/ccELPuCj.s:2680   .debug_str:00000000000002df .LASF74
     /tmp/ccELPuCj.s:2716   .debug_str:00000000000003ea .LASF75
     /tmp/ccELPuCj.s:2710   .debug_str:00000000000003a3 .LASF76
     /tmp/ccELPuCj.s:2744   .debug_str:00000000000004d5 .LASF78
     /tmp/ccELPuCj.s:2656   .debug_str:0000000000000223 .LASF107
     /tmp/ccELPuCj.s:2672   .debug_str:00000000000002b7 .LASF108
     /tmp/ccELPuCj.s:2794   .debug_str:000000000000070d .LASF109
     /tmp/ccELPuCj.s:2780   .debug_str:00000000000005f7 .LASF79
     /tmp/ccELPuCj.s:2634   .debug_str:000000000000015f .LASF80
     /tmp/ccELPuCj.s:2812   .debug_str:00000000000007c2 .LASF81
     /tmp/ccELPuCj.s:2700   .debug_str:0000000000000364 .LASF86
     /tmp/ccELPuCj.s:2808   .debug_str:000000000000079a .LASF110
     /tmp/ccELPuCj.s:2602   .debug_str:0000000000000049 .LASF111
     /tmp/ccELPuCj.s:2600   .debug_str:0000000000000026 .LASF82
     /tmp/ccELPuCj.s:2782   .debug_str:0000000000000605 .LASF83
     /tmp/ccELPuCj.s:2818   .debug_str:0000000000000809 .LASF84
     /tmp/ccELPuCj.s:2720   .debug_str:00000000000003ff .LASF85
     /tmp/ccELPuCj.s:2800   .debug_str:0000000000000757 .LASF87
     /tmp/ccELPuCj.s:2660   .debug_str:000000000000024b .LASF88
     /tmp/ccELPuCj.s:2722   .debug_str:000000000000041f .LASF89
     /tmp/ccELPuCj.s:2766   .debug_str:0000000000000582 .LASF90
     /tmp/ccELPuCj.s:2690   .debug_str:0000000000000334 .LASF91
     /tmp/ccELPuCj.s:2688   .debug_str:0000000000000316 .LASF92
     /tmp/ccELPuCj.s:2746   .debug_str:00000000000004df .LASF93
     /tmp/ccELPuCj.s:2810   .debug_str:00000000000007a4 .LASF94
     /tmp/ccELPuCj.s:2616   .debug_str:00000000000000b2 .LASF112
     /tmp/ccELPuCj.s:2640   .debug_str:0000000000000181 .LASF95
     /tmp/ccELPuCj.s:219    .text:0000000000000124 .LFB34
     /tmp/ccELPuCj.s:245    .text:0000000000000158 .LFE34
     /tmp/ccELPuCj.s:235    .text:0000000000000148 .LVL20
     /tmp/ccELPuCj.s:2760   .debug_str:000000000000052c .LASF96
     /tmp/ccELPuCj.s:9      .text:0000000000000000 .LFB33
     /tmp/ccELPuCj.s:53     .text:0000000000000040 .LFE33
     /tmp/ccELPuCj.s:2694   .debug_str:000000000000034b .LASF97
     /tmp/ccELPuCj.s:2612   .debug_str:0000000000000097 .LASF98
     /tmp/ccELPuCj.s:38     .text:000000000000002c .LBB9
     /tmp/ccELPuCj.s:49     .text:000000000000003c .LBE9
GAS LISTING /tmp/ccELPuCj.s 			page 13


     /tmp/ccELPuCj.s:2449   .debug_loc:0000000000000000 .LLST0
     /tmp/ccELPuCj.s:2754   .debug_str:0000000000000517 .LASF101
     /tmp/ccELPuCj.s:2648   .debug_str:00000000000001dc .LASF99
     /tmp/ccELPuCj.s:2670   .debug_str:00000000000002b2 .LASF100
     /tmp/ccELPuCj.s:2608   .debug_str:0000000000000079 .LASF113
     /tmp/ccELPuCj.s:143    .text:00000000000000b0 .LFB26
     /tmp/ccELPuCj.s:214    .text:0000000000000124 .LFE26
     /tmp/ccELPuCj.s:2458   .debug_loc:000000000000002c .LLST5
     /tmp/ccELPuCj.s:160    .text:00000000000000c8 .LBB20
     /tmp/ccELPuCj.s:2578   .debug_ranges:0000000000000000 .Ldebug_ranges0
     /tmp/ccELPuCj.s:2480   .debug_loc:000000000000008b .LLST6
     /tmp/ccELPuCj.s:2495   .debug_loc:00000000000000d4 .LLST7
     /tmp/ccELPuCj.s:2510   .debug_loc:000000000000011c .LLST8
     /tmp/ccELPuCj.s:166    .text:00000000000000d4 .LVL14
     /tmp/ccELPuCj.s:169    .text:00000000000000dc .LVL15
     /tmp/ccELPuCj.s:59     .text:0000000000000040 .LFB25
     /tmp/ccELPuCj.s:137    .text:00000000000000b0 .LFE25
     /tmp/ccELPuCj.s:74     .text:0000000000000054 .LBB12
     /tmp/ccELPuCj.s:84     .text:0000000000000064 .LBE12
     /tmp/ccELPuCj.s:2517   .debug_loc:000000000000013f .LLST1
     /tmp/ccELPuCj.s:89     .text:0000000000000068 .LBB14
     /tmp/ccELPuCj.s:2532   .debug_loc:0000000000000187 .LLST2
     /tmp/ccELPuCj.s:2547   .debug_loc:00000000000001cf .LLST3
     /tmp/ccELPuCj.s:2558   .debug_loc:0000000000000205 .LLST4
     /tmp/ccELPuCj.s:103    .text:0000000000000084 .LVL7
     /tmp/ccELPuCj.s:37     .text:000000000000002c .LVL1
     /tmp/ccELPuCj.s:46     .text:000000000000003c .LVL2
     /tmp/ccELPuCj.s:146    .text:00000000000000b0 .LVL11
     /tmp/ccELPuCj.s:164    .text:00000000000000cc .LVL13
     /tmp/ccELPuCj.s:195    .text:0000000000000108 .LVL17
     /tmp/ccELPuCj.s:199    .text:0000000000000110 .LVL18
     /tmp/ccELPuCj.s:159    .text:00000000000000c8 .LVL12
     /tmp/ccELPuCj.s:182    .text:00000000000000fc .LVL16
     /tmp/ccELPuCj.s:208    .text:0000000000000120 .LVL19
     /tmp/ccELPuCj.s:73     .text:0000000000000054 .LVL3
     /tmp/ccELPuCj.s:82     .text:0000000000000064 .LVL4
     /tmp/ccELPuCj.s:128    .text:00000000000000a8 .LVL9
     /tmp/ccELPuCj.s:134    .text:00000000000000ac .LVL10
     /tmp/ccELPuCj.s:88     .text:0000000000000068 .LVL5
     /tmp/ccELPuCj.s:120    .text:000000000000009c .LVL8
     /tmp/ccELPuCj.s:100    .text:000000000000007c .LVL6
     /tmp/ccELPuCj.s:267    .debug_info:0000000000000000 .Ldebug_info0
     /tmp/ccELPuCj.s:106    .text:0000000000000084 .LBE14
     /tmp/ccELPuCj.s:123    .text:000000000000009c .LBB17
     /tmp/ccELPuCj.s:131    .text:00000000000000a8 .LBE17
     /tmp/ccELPuCj.s:185    .text:00000000000000fc .LBE20
     /tmp/ccELPuCj.s:202    .text:0000000000000110 .LBB23
     /tmp/ccELPuCj.s:210    .text:0000000000000120 .LBE23

UNDEFINED SYMBOLS
_ZN15MemoryAllocator8mem_freeEPv
_ZN15MemoryAllocator14convert2BlocksEm
_ZN15MemoryAllocator9mem_allocEm
