GAS LISTING /tmp/ccLoyEFa.s 			page 1


   1              		.file	"scheduler.cpp"
   2              		.option pic
   3              		.option norelax
   4              		.text
   5              	.Ltext0:
   6              		.align	2
   8              	_Z41__static_initialization_and_destruction_0ii:
   9              	.LFB33:
  10              		.file 1 "src/scheduler.cpp"
   1:src/scheduler.cpp **** 
   2:src/scheduler.cpp **** #include "../h/scheduler.hpp"
   3:src/scheduler.cpp **** 
   4:src/scheduler.cpp **** List<_thread> Scheduler::readyThreadQueue;
   5:src/scheduler.cpp **** int Scheduler::threadNum = 0;
   6:src/scheduler.cpp **** 
   7:src/scheduler.cpp **** _thread* Scheduler::get()
   8:src/scheduler.cpp **** {
   9:src/scheduler.cpp ****     if (readyThreadQueue.peekFirst() != 0) {
  10:src/scheduler.cpp ****         threadNum--;
  11:src/scheduler.cpp ****         return readyThreadQueue.removeFirst();
  12:src/scheduler.cpp ****     }
  13:src/scheduler.cpp **** 
  14:src/scheduler.cpp ****     return nullptr;
  15:src/scheduler.cpp **** }
  16:src/scheduler.cpp **** 
  17:src/scheduler.cpp **** void Scheduler::put(_thread *ccb)
  18:src/scheduler.cpp **** {
  19:src/scheduler.cpp ****     threadNum++;
  20:src/scheduler.cpp ****     readyThreadQueue.addLast(ccb);
  21:src/scheduler.cpp **** }
  11              		.loc 1 21 1
  12              		.cfi_startproc
  13              	.LVL0:
  14 0000 130101FF 		addi	sp,sp,-16
  15              		.cfi_def_cfa_offset 16
  16 0004 23348100 		sd	s0,8(sp)
  17              		.cfi_offset 8, -8
  18 0008 13040101 		addi	s0,sp,16
  19              		.cfi_def_cfa 8, 0
  20              		.loc 1 21 1 is_stmt 0
  21 000c 93071000 		li	a5,1
  22 0010 6308F500 		beq	a0,a5,.L4
  23              	.L1:
  24 0014 03348100 		ld	s0,8(sp)
  25              		.cfi_remember_state
  26              		.cfi_restore 8
  27              		.cfi_def_cfa 2, 16
  28 0018 13010101 		addi	sp,sp,16
  29              		.cfi_def_cfa_offset 0
  30 001c 67800000 		jr	ra
  31              	.L4:
  32              		.cfi_restore_state
  33              		.loc 1 21 1 discriminator 1
  34 0020 B7070100 		li	a5,65536
  35 0024 9387F7FF 		addi	a5,a5,-1
  36 0028 E396F5FE 		bne	a1,a5,.L1
  37              	.LVL1:
GAS LISTING /tmp/ccLoyEFa.s 			page 2


  38              	.LBB9:
  39              	.LBB10:
  40              	.LBB11:
  41              		.file 2 "src/../h/list.hpp"
   1:src/../h/list.hpp **** 
   2:src/../h/list.hpp **** 
   3:src/../h/list.hpp **** #ifndef OS1_VEZBE07_RISCV_CONTEXT_SWITCH_2_INTERRUPT_LIST_HPP
   4:src/../h/list.hpp **** #define OS1_VEZBE07_RISCV_CONTEXT_SWITCH_2_INTERRUPT_LIST_HPP
   5:src/../h/list.hpp **** 
   6:src/../h/list.hpp **** #include "MemoryAllocator.hpp"
   7:src/../h/list.hpp **** #include "../test/printing.hpp"
   8:src/../h/list.hpp **** 
   9:src/../h/list.hpp **** 
  10:src/../h/list.hpp **** template<typename T>
  11:src/../h/list.hpp **** class List
  12:src/../h/list.hpp **** {
  13:src/../h/list.hpp **** private:
  14:src/../h/list.hpp ****     struct Elem
  15:src/../h/list.hpp ****     {
  16:src/../h/list.hpp ****         T *data;
  17:src/../h/list.hpp ****         Elem *next;
  18:src/../h/list.hpp **** 
  19:src/../h/list.hpp ****         Elem(T *data, Elem *next) : data(data), next(next) {}
  20:src/../h/list.hpp ****     };
  21:src/../h/list.hpp **** 
  22:src/../h/list.hpp **** public:
  23:src/../h/list.hpp ****     List() : head(0), tail(0) {}
  42              		.loc 2 23 29
  43 002c 97070000 		lla	a5,.LANCHOR0
  43      93870700 
  44 0034 23B00700 		sd	zero,0(a5)
  45 0038 23B40700 		sd	zero,8(a5)
  46              	.LVL2:
  47              	.LBE11:
  48              	.LBE10:
  49              	.LBE9:
  50              		.loc 1 21 1
  51 003c 6FF09FFD 		j	.L1
  52              		.cfi_endproc
  53              	.LFE33:
  55              		.align	2
  56              		.globl	_ZN9Scheduler3getEv
  58              	_ZN9Scheduler3getEv:
  59              	.LFB25:
   8:src/scheduler.cpp ****     if (readyThreadQueue.peekFirst() != 0) {
  60              		.loc 1 8 1 is_stmt 1
  61              		.cfi_startproc
  62 0040 130101FE 		addi	sp,sp,-32
  63              		.cfi_def_cfa_offset 32
  64 0044 233C1100 		sd	ra,24(sp)
  65 0048 23388100 		sd	s0,16(sp)
  66 004c 23349100 		sd	s1,8(sp)
  67              		.cfi_offset 1, -8
  68              		.cfi_offset 8, -16
  69              		.cfi_offset 9, -24
  70 0050 13040102 		addi	s0,sp,32
  71              		.cfi_def_cfa 8, 0
GAS LISTING /tmp/ccLoyEFa.s 			page 3


   9:src/scheduler.cpp ****         threadNum--;
  72              		.loc 1 9 5
  73              	.LVL3:
  74              	.LBB12:
  75              	.LBB13:
  24:src/../h/list.hpp **** 
  25:src/../h/list.hpp ****     List(const List<T> &) = delete;
  26:src/../h/list.hpp **** 
  27:src/../h/list.hpp ****     List<T> &operator=(const List<T> &) = delete;
  28:src/../h/list.hpp **** 
  29:src/../h/list.hpp ****     Elem *head = nullptr, *tail = nullptr;
  30:src/../h/list.hpp **** 
  31:src/../h/list.hpp ****     void addFirst(T *data)
  32:src/../h/list.hpp ****     {
  33:src/../h/list.hpp ****         Elem *elem = new Elem(data, head);
  34:src/../h/list.hpp ****         head = elem;
  35:src/../h/list.hpp ****         if (!tail) { tail = head; }
  36:src/../h/list.hpp ****     }
  37:src/../h/list.hpp **** 
  38:src/../h/list.hpp ****     void addLast(T *data)
  39:src/../h/list.hpp ****     {
  40:src/../h/list.hpp ****         // Elem *elem = new Elem(data, 0);
  41:src/../h/list.hpp ****         size_t blockNum = MemoryAllocator::convert2Blocks(sizeof(List<T>::Elem));
  42:src/../h/list.hpp ****         Elem *elem = (Elem*)MemoryAllocator::mem_alloc(blockNum);
  43:src/../h/list.hpp **** 
  44:src/../h/list.hpp ****         elem->data = data;
  45:src/../h/list.hpp ****         elem->next = nullptr;
  46:src/../h/list.hpp **** 
  47:src/../h/list.hpp ****         if (tail != 0)
  48:src/../h/list.hpp ****         {
  49:src/../h/list.hpp **** //            printInteger((size_t)tail->data);
  50:src/../h/list.hpp **** //            printString("\n");
  51:src/../h/list.hpp ****             tail->next = elem;
  52:src/../h/list.hpp ****             tail = elem;
  53:src/../h/list.hpp ****         } else
  54:src/../h/list.hpp ****         {
  55:src/../h/list.hpp ****             head = tail = elem;
  56:src/../h/list.hpp ****         }
  57:src/../h/list.hpp **** 
  58:src/../h/list.hpp **** //        printString("\nMemory address thread: ");
  59:src/../h/list.hpp **** //        printString("\n");
  60:src/../h/list.hpp **** //        printInteger((size_t)(&tail->data));
  61:src/../h/list.hpp **** 
  62:src/../h/list.hpp **** //        printString("\nSheduler.put(): ");
  63:src/../h/list.hpp **** //        printInteger((uint64) *elem->data);
  64:src/../h/list.hpp **** //        printString("\n");
  65:src/../h/list.hpp ****     }
  66:src/../h/list.hpp **** 
  67:src/../h/list.hpp ****     T *removeFirst()
  68:src/../h/list.hpp ****     {
  69:src/../h/list.hpp ****         // printAll();
  70:src/../h/list.hpp ****         if (!head) { return 0; }
  71:src/../h/list.hpp **** 
  72:src/../h/list.hpp ****         Elem *elem = head;
  73:src/../h/list.hpp ****         head = head->next;
  74:src/../h/list.hpp ****         if (!head) { tail = 0; }
  75:src/../h/list.hpp **** 
GAS LISTING /tmp/ccLoyEFa.s 			page 4


  76:src/../h/list.hpp ****         T *ret = elem->data;
  77:src/../h/list.hpp ****         // delete elem;
  78:src/../h/list.hpp ****         MemoryAllocator::mem_free(elem);
  79:src/../h/list.hpp **** 
  80:src/../h/list.hpp **** //        printString("\nSheduler.get(): ");
  81:src/../h/list.hpp **** //        printInteger((uint64) *ret);
  82:src/../h/list.hpp **** //        printString("\n");
  83:src/../h/list.hpp **** 
  84:src/../h/list.hpp ****         return ret;
  85:src/../h/list.hpp ****     }
  86:src/../h/list.hpp **** 
  87:src/../h/list.hpp ****     T *peekFirst()
  88:src/../h/list.hpp ****     {
  89:src/../h/list.hpp ****         if (!head) { return 0; }
  76              		.loc 2 89 14 is_stmt 0
  77 0054 17050000 		ld	a0,.LANCHOR0
  77      03350500 
  78              		.loc 2 89 9
  79 005c 630E0504 		beqz	a0,.L8
  90:src/../h/list.hpp **** //        printString("\n\nMemory:\n");
  91:src/../h/list.hpp **** //        for(int i = 0; i < 10; i++)
  92:src/../h/list.hpp **** //        {
  93:src/../h/list.hpp **** //            printInteger((size_t)head->data);
  94:src/../h/list.hpp **** //            printString("\n");
  95:src/../h/list.hpp **** //            printInteger((size_t)((uint8*)head)[i]);
  96:src/../h/list.hpp **** //            printString(" ");
  97:src/../h/list.hpp **** //        }
  98:src/../h/list.hpp **** //        printString("\n");
  99:src/../h/list.hpp ****         return head->data;
  80              		.loc 2 99 22
  81 0060 83340500 		ld	s1,0(a0)
  82              	.LVL4:
  83              	.LBE13:
  84              	.LBE12:
   9:src/scheduler.cpp ****         threadNum--;
  85              		.loc 1 9 5
  86 0064 63880402 		beqz	s1,.L5
  10:src/scheduler.cpp ****         return readyThreadQueue.removeFirst();
  87              		.loc 1 10 9 is_stmt 1
  10:src/scheduler.cpp ****         return readyThreadQueue.removeFirst();
  88              		.loc 1 10 18 is_stmt 0
  89 0068 97070000 		lla	a5,.LANCHOR0
  89      93870700 
  90 0070 03A70701 		lw	a4,16(a5)
  91 0074 1B07F7FF 		addiw	a4,a4,-1
  92 0078 23A8E700 		sw	a4,16(a5)
  11:src/scheduler.cpp ****     }
  93              		.loc 1 11 9 is_stmt 1
  94              	.LVL5:
  95              	.LBB14:
  96              	.LBB15:
  73:src/../h/list.hpp ****         if (!head) { tail = 0; }
  97              		.loc 2 73 22 is_stmt 0
  98 007c 03378500 		ld	a4,8(a0)
  73:src/../h/list.hpp ****         if (!head) { tail = 0; }
  99              		.loc 2 73 9
 100 0080 23B0E700 		sd	a4,0(a5)
GAS LISTING /tmp/ccLoyEFa.s 			page 5


  74:src/../h/list.hpp **** 
 101              		.loc 2 74 9
 102 0084 63040702 		beqz	a4,.L10
 103              	.L7:
  76:src/../h/list.hpp ****         // delete elem;
 104              		.loc 2 76 12
 105 0088 83340500 		ld	s1,0(a0)
 106              	.LVL6:
  78:src/../h/list.hpp **** 
 107              		.loc 2 78 34
 108 008c 97000000 		call	_ZN15MemoryAllocator8mem_freeEPv@plt
 108      E7800000 
 109              	.LVL7:
 110              	.L5:
 111              	.LBE15:
 112              	.LBE14:
  15:src/scheduler.cpp **** 
 113              		.loc 1 15 1
 114 0094 13850400 		mv	a0,s1
 115 0098 83308101 		ld	ra,24(sp)
 116              		.cfi_remember_state
 117              		.cfi_restore 1
 118 009c 03340101 		ld	s0,16(sp)
 119              		.cfi_restore 8
 120              		.cfi_def_cfa 2, 32
 121 00a0 83348100 		ld	s1,8(sp)
 122              		.cfi_restore 9
 123 00a4 13010102 		addi	sp,sp,32
 124              		.cfi_def_cfa_offset 0
 125 00a8 67800000 		jr	ra
 126              	.LVL8:
 127              	.L10:
 128              		.cfi_restore_state
 129              	.LBB17:
 130              	.LBB16:
  74:src/../h/list.hpp **** 
 131              		.loc 2 74 22
 132 00ac 97070000 		sd	zero,.LANCHOR0+8,a5
 132      23B00700 
 133 00b4 6FF05FFD 		j	.L7
 134              	.LVL9:
 135              	.L8:
 136              	.LBE16:
 137              	.LBE17:
  14:src/scheduler.cpp **** }
 138              		.loc 1 14 12
 139 00b8 93040500 		mv	s1,a0
 140              	.LVL10:
 141 00bc 6FF09FFD 		j	.L5
 142              		.cfi_endproc
 143              	.LFE25:
 145              		.align	2
 146              		.globl	_ZN9Scheduler3putEP7_thread
 148              	_ZN9Scheduler3putEP7_thread:
 149              	.LFB26:
  18:src/scheduler.cpp ****     threadNum++;
 150              		.loc 1 18 1 is_stmt 1
GAS LISTING /tmp/ccLoyEFa.s 			page 6


 151              		.cfi_startproc
 152              	.LVL11:
 153 00c0 130101FE 		addi	sp,sp,-32
 154              		.cfi_def_cfa_offset 32
 155 00c4 233C1100 		sd	ra,24(sp)
 156 00c8 23388100 		sd	s0,16(sp)
 157 00cc 23349100 		sd	s1,8(sp)
 158 00d0 23302101 		sd	s2,0(sp)
 159              		.cfi_offset 1, -8
 160              		.cfi_offset 8, -16
 161              		.cfi_offset 9, -24
 162              		.cfi_offset 18, -32
 163 00d4 13040102 		addi	s0,sp,32
 164              		.cfi_def_cfa 8, 0
 165 00d8 13090500 		mv	s2,a0
  19:src/scheduler.cpp ****     readyThreadQueue.addLast(ccb);
 166              		.loc 1 19 5
  19:src/scheduler.cpp ****     readyThreadQueue.addLast(ccb);
 167              		.loc 1 19 14 is_stmt 0
 168 00dc 97040000 		lla	s1,.LANCHOR0
 168      93840400 
 169 00e4 83A70401 		lw	a5,16(s1)
 170 00e8 9B871700 		addiw	a5,a5,1
 171 00ec 23A8F400 		sw	a5,16(s1)
  20:src/scheduler.cpp **** }
 172              		.loc 1 20 5 is_stmt 1
 173              	.LVL12:
 174              	.LBB20:
 175              	.LBB21:
  41:src/../h/list.hpp ****         Elem *elem = (Elem*)MemoryAllocator::mem_alloc(blockNum);
 176              		.loc 2 41 58 is_stmt 0
 177 00f0 13050001 		li	a0,16
 178              	.LVL13:
 179 00f4 97000000 		call	_ZN15MemoryAllocator14convert2BlocksEm@plt
 179      E7800000 
 180              	.LVL14:
  42:src/../h/list.hpp **** 
 181              		.loc 2 42 55
 182 00fc 97000000 		call	_ZN15MemoryAllocator9mem_allocEm@plt
 182      E7800000 
 183              	.LVL15:
  44:src/../h/list.hpp ****         elem->next = nullptr;
 184              		.loc 2 44 9
 185 0104 23302501 		sd	s2,0(a0)
  45:src/../h/list.hpp **** 
 186              		.loc 2 45 9
 187 0108 23340500 		sd	zero,8(a0)
  47:src/../h/list.hpp ****         {
 188              		.loc 2 47 13
 189 010c 83B78400 		ld	a5,8(s1)
  47:src/../h/list.hpp ****         {
 190              		.loc 2 47 9
 191 0110 63840702 		beqz	a5,.L12
  51:src/../h/list.hpp ****             tail = elem;
 192              		.loc 2 51 13
 193 0114 23B4A700 		sd	a0,8(a5)
  52:src/../h/list.hpp ****         } else
GAS LISTING /tmp/ccLoyEFa.s 			page 7


 194              		.loc 2 52 13
 195 0118 97070000 		sd	a0,.LANCHOR0+8,a5
 195      23B0A700 
 196              	.LVL16:
 197              	.L11:
 198              	.LBE21:
 199              	.LBE20:
 200              		.loc 1 21 1
 201 0120 83308101 		ld	ra,24(sp)
 202              		.cfi_remember_state
 203              		.cfi_restore 1
 204 0124 03340101 		ld	s0,16(sp)
 205              		.cfi_restore 8
 206              		.cfi_def_cfa 2, 32
 207 0128 83348100 		ld	s1,8(sp)
 208              		.cfi_restore 9
 209 012c 03390100 		ld	s2,0(sp)
 210              		.cfi_restore 18
 211              	.LVL17:
 212 0130 13010102 		addi	sp,sp,32
 213              		.cfi_def_cfa_offset 0
 214 0134 67800000 		jr	ra
 215              	.LVL18:
 216              	.L12:
 217              		.cfi_restore_state
 218              	.LBB23:
 219              	.LBB22:
  55:src/../h/list.hpp ****         }
 220              		.loc 2 55 13
 221 0138 97070000 		lla	a5,.LANCHOR0
 221      93870700 
 222 0140 23B4A700 		sd	a0,8(a5)
 223 0144 23B0A700 		sd	a0,0(a5)
 224              	.LVL19:
 225              	.LBE22:
 226              	.LBE23:
 227              		.loc 1 21 1
 228 0148 6FF09FFD 		j	.L11
 229              		.cfi_endproc
 230              	.LFE26:
 232              		.align	2
 234              	_GLOBAL__sub_I__ZN9Scheduler16readyThreadQueueE:
 235              	.LFB34:
 236              		.loc 1 21 1 is_stmt 1
 237              		.cfi_startproc
 238 014c 130101FF 		addi	sp,sp,-16
 239              		.cfi_def_cfa_offset 16
 240 0150 23341100 		sd	ra,8(sp)
 241 0154 23308100 		sd	s0,0(sp)
 242              		.cfi_offset 1, -8
 243              		.cfi_offset 8, -16
 244 0158 13040101 		addi	s0,sp,16
 245              		.cfi_def_cfa 8, 0
 246              		.loc 1 21 1 is_stmt 0
 247 015c B7050100 		li	a1,65536
 248 0160 9385F5FF 		addi	a1,a1,-1
 249 0164 13051000 		li	a0,1
GAS LISTING /tmp/ccLoyEFa.s 			page 8


 250 0168 97000000 		call	_Z41__static_initialization_and_destruction_0ii
 250      E7800000 
 251              	.LVL20:
 252 0170 83308100 		ld	ra,8(sp)
 253              		.cfi_restore 1
 254 0174 03340100 		ld	s0,0(sp)
 255              		.cfi_restore 8
 256              		.cfi_def_cfa 2, 16
 257 0178 13010101 		addi	sp,sp,16
 258              		.cfi_def_cfa_offset 0
 259 017c 67800000 		jr	ra
 260              		.cfi_endproc
 261              	.LFE34:
 263              		.section	.init_array,"aw"
 264              		.align	3
 265 0000 00000000 		.dword	_GLOBAL__sub_I__ZN9Scheduler16readyThreadQueueE
 265      00000000 
 266              		.globl	_ZN9Scheduler9threadNumE
 267              		.globl	_ZN9Scheduler16readyThreadQueueE
 268              		.bss
 269              		.align	3
 270              		.set	.LANCHOR0,. + 0
 273              	_ZN9Scheduler16readyThreadQueueE:
 274 0000 00000000 		.zero	16
 274      00000000 
 274      00000000 
 274      00000000 
 277              	_ZN9Scheduler9threadNumE:
 278 0010 00000000 		.zero	4
 279              		.text
 280              	.Letext0:
 281              		.file 3 "src/../h/../test/../h/../lib/hw.h"
 282              		.file 4 "src/../h/../test/../h/../h/thread.hpp"
 283              		.file 5 "src/../h/../test/../h/../h/sem.hpp"
 284              		.file 6 "src/../h/MemoryAllocator.hpp"
 285              		.file 7 "src/../h/scheduler.hpp"
 286              		.file 8 "src/../h/../test/../h/syscall_c.hpp"
GAS LISTING /tmp/ccLoyEFa.s 			page 9


DEFINED SYMBOLS
                            *ABS*:0000000000000000 scheduler.cpp
     /tmp/ccLoyEFa.s:8      .text:0000000000000000 _Z41__static_initialization_and_destruction_0ii
     /tmp/ccLoyEFa.s:12     .text:0000000000000000 .L0 
     /tmp/ccLoyEFa.s:14     .text:0000000000000000 .L0 
     /tmp/ccLoyEFa.s:15     .text:0000000000000004 .L0 
     /tmp/ccLoyEFa.s:17     .text:0000000000000008 .L0 
     /tmp/ccLoyEFa.s:19     .text:000000000000000c .L0 
     /tmp/ccLoyEFa.s:21     .text:000000000000000c .L0 
     /tmp/ccLoyEFa.s:25     .text:0000000000000018 .L0 
     /tmp/ccLoyEFa.s:26     .text:0000000000000018 .L0 
     /tmp/ccLoyEFa.s:27     .text:0000000000000018 .L0 
     /tmp/ccLoyEFa.s:29     .text:000000000000001c .L0 
     /tmp/ccLoyEFa.s:32     .text:0000000000000020 .L0 
     /tmp/ccLoyEFa.s:34     .text:0000000000000020 .L0 
     /tmp/ccLoyEFa.s:43     .text:000000000000002c .L0 
     /tmp/ccLoyEFa.s:51     .text:000000000000003c .L0 
     /tmp/ccLoyEFa.s:52     .text:0000000000000040 .L0 
     /tmp/ccLoyEFa.s:58     .text:0000000000000040 _ZN9Scheduler3getEv
     /tmp/ccLoyEFa.s:61     .text:0000000000000040 .L0 
     /tmp/ccLoyEFa.s:62     .text:0000000000000040 .L0 
     /tmp/ccLoyEFa.s:63     .text:0000000000000044 .L0 
     /tmp/ccLoyEFa.s:67     .text:0000000000000050 .L0 
     /tmp/ccLoyEFa.s:68     .text:0000000000000050 .L0 
     /tmp/ccLoyEFa.s:69     .text:0000000000000050 .L0 
     /tmp/ccLoyEFa.s:71     .text:0000000000000054 .L0 
     /tmp/ccLoyEFa.s:76     .text:0000000000000054 .L0 
     /tmp/ccLoyEFa.s:77     .text:0000000000000054 .L0 
     /tmp/ccLoyEFa.s:79     .text:000000000000005c .L0 
     /tmp/ccLoyEFa.s:81     .text:0000000000000060 .L0 
     /tmp/ccLoyEFa.s:86     .text:0000000000000064 .L0 
     /tmp/ccLoyEFa.s:88     .text:0000000000000068 .L0 
     /tmp/ccLoyEFa.s:89     .text:0000000000000068 .L0 
     /tmp/ccLoyEFa.s:97     .text:000000000000007c .L0 
     /tmp/ccLoyEFa.s:98     .text:000000000000007c .L0 
     /tmp/ccLoyEFa.s:100    .text:0000000000000080 .L0 
     /tmp/ccLoyEFa.s:102    .text:0000000000000084 .L0 
     /tmp/ccLoyEFa.s:105    .text:0000000000000088 .L0 
     /tmp/ccLoyEFa.s:108    .text:000000000000008c .L0 
     /tmp/ccLoyEFa.s:114    .text:0000000000000094 .L0 
     /tmp/ccLoyEFa.s:116    .text:000000000000009c .L0 
     /tmp/ccLoyEFa.s:117    .text:000000000000009c .L0 
     /tmp/ccLoyEFa.s:119    .text:00000000000000a0 .L0 
     /tmp/ccLoyEFa.s:120    .text:00000000000000a0 .L0 
     /tmp/ccLoyEFa.s:122    .text:00000000000000a4 .L0 
     /tmp/ccLoyEFa.s:124    .text:00000000000000a8 .L0 
     /tmp/ccLoyEFa.s:128    .text:00000000000000ac .L0 
     /tmp/ccLoyEFa.s:132    .text:00000000000000ac .L0 
     /tmp/ccLoyEFa.s:139    .text:00000000000000b8 .L0 
     /tmp/ccLoyEFa.s:142    .text:00000000000000c0 .L0 
     /tmp/ccLoyEFa.s:148    .text:00000000000000c0 _ZN9Scheduler3putEP7_thread
     /tmp/ccLoyEFa.s:151    .text:00000000000000c0 .L0 
     /tmp/ccLoyEFa.s:153    .text:00000000000000c0 .L0 
     /tmp/ccLoyEFa.s:154    .text:00000000000000c4 .L0 
     /tmp/ccLoyEFa.s:159    .text:00000000000000d4 .L0 
     /tmp/ccLoyEFa.s:160    .text:00000000000000d4 .L0 
     /tmp/ccLoyEFa.s:161    .text:00000000000000d4 .L0 
GAS LISTING /tmp/ccLoyEFa.s 			page 10


     /tmp/ccLoyEFa.s:162    .text:00000000000000d4 .L0 
     /tmp/ccLoyEFa.s:164    .text:00000000000000d8 .L0 
     /tmp/ccLoyEFa.s:167    .text:00000000000000dc .L0 
     /tmp/ccLoyEFa.s:168    .text:00000000000000dc .L0 
     /tmp/ccLoyEFa.s:176    .text:00000000000000f0 .L0 
     /tmp/ccLoyEFa.s:177    .text:00000000000000f0 .L0 
     /tmp/ccLoyEFa.s:182    .text:00000000000000fc .L0 
     /tmp/ccLoyEFa.s:185    .text:0000000000000104 .L0 
     /tmp/ccLoyEFa.s:187    .text:0000000000000108 .L0 
     /tmp/ccLoyEFa.s:189    .text:000000000000010c .L0 
     /tmp/ccLoyEFa.s:191    .text:0000000000000110 .L0 
     /tmp/ccLoyEFa.s:193    .text:0000000000000114 .L0 
     /tmp/ccLoyEFa.s:195    .text:0000000000000118 .L0 
     /tmp/ccLoyEFa.s:201    .text:0000000000000120 .L0 
     /tmp/ccLoyEFa.s:202    .text:0000000000000124 .L0 
     /tmp/ccLoyEFa.s:203    .text:0000000000000124 .L0 
     /tmp/ccLoyEFa.s:205    .text:0000000000000128 .L0 
     /tmp/ccLoyEFa.s:206    .text:0000000000000128 .L0 
     /tmp/ccLoyEFa.s:208    .text:000000000000012c .L0 
     /tmp/ccLoyEFa.s:210    .text:0000000000000130 .L0 
     /tmp/ccLoyEFa.s:213    .text:0000000000000134 .L0 
     /tmp/ccLoyEFa.s:217    .text:0000000000000138 .L0 
     /tmp/ccLoyEFa.s:221    .text:0000000000000138 .L0 
     /tmp/ccLoyEFa.s:228    .text:0000000000000148 .L0 
     /tmp/ccLoyEFa.s:229    .text:000000000000014c .L0 
     /tmp/ccLoyEFa.s:234    .text:000000000000014c _GLOBAL__sub_I__ZN9Scheduler16readyThreadQueueE
     /tmp/ccLoyEFa.s:237    .text:000000000000014c .L0 
     /tmp/ccLoyEFa.s:238    .text:000000000000014c .L0 
     /tmp/ccLoyEFa.s:239    .text:0000000000000150 .L0 
     /tmp/ccLoyEFa.s:242    .text:0000000000000158 .L0 
     /tmp/ccLoyEFa.s:243    .text:0000000000000158 .L0 
     /tmp/ccLoyEFa.s:245    .text:000000000000015c .L0 
     /tmp/ccLoyEFa.s:247    .text:000000000000015c .L0 
     /tmp/ccLoyEFa.s:253    .text:0000000000000174 .L0 
     /tmp/ccLoyEFa.s:255    .text:0000000000000178 .L0 
     /tmp/ccLoyEFa.s:256    .text:0000000000000178 .L0 
     /tmp/ccLoyEFa.s:258    .text:000000000000017c .L0 
     /tmp/ccLoyEFa.s:260    .text:0000000000000180 .L0 
     /tmp/ccLoyEFa.s:277    .bss:0000000000000010 _ZN9Scheduler9threadNumE
     /tmp/ccLoyEFa.s:273    .bss:0000000000000000 _ZN9Scheduler16readyThreadQueueE
     /tmp/ccLoyEFa.s:270    .bss:0000000000000000 .LANCHOR0
     /tmp/ccLoyEFa.s:287    .text:0000000000000180 .L0 
     /tmp/ccLoyEFa.s:43     .text:000000000000002c .L0 
     /tmp/ccLoyEFa.s:77     .text:0000000000000054 .L0 
     /tmp/ccLoyEFa.s:89     .text:0000000000000068 .L0 
     /tmp/ccLoyEFa.s:132    .text:00000000000000ac .L0 
     /tmp/ccLoyEFa.s:168    .text:00000000000000dc .L0 
     /tmp/ccLoyEFa.s:195    .text:0000000000000118 .L0 
     /tmp/ccLoyEFa.s:221    .text:0000000000000138 .L0 
     /tmp/ccLoyEFa.s:31     .text:0000000000000020 .L4
     /tmp/ccLoyEFa.s:23     .text:0000000000000014 .L1
     /tmp/ccLoyEFa.s:135    .text:00000000000000b8 .L8
     /tmp/ccLoyEFa.s:110    .text:0000000000000094 .L5
     /tmp/ccLoyEFa.s:127    .text:00000000000000ac .L10
     /tmp/ccLoyEFa.s:103    .text:0000000000000088 .L7
     /tmp/ccLoyEFa.s:216    .text:0000000000000138 .L12
     /tmp/ccLoyEFa.s:197    .text:0000000000000120 .L11
GAS LISTING /tmp/ccLoyEFa.s 			page 11


     /tmp/ccLoyEFa.s:1465   .debug_abbrev:0000000000000000 .Ldebug_abbrev0
     /tmp/ccLoyEFa.s:2859   .debug_str:0000000000000659 .LASF112
     /tmp/ccLoyEFa.s:2803   .debug_str:00000000000004a8 .LASF113
     /tmp/ccLoyEFa.s:2717   .debug_str:00000000000001f2 .LASF114
     /tmp/ccLoyEFa.s:5      .text:0000000000000000 .Ltext0
     /tmp/ccLoyEFa.s:280    .text:0000000000000180 .Letext0
     /tmp/ccLoyEFa.s:2655   .debug_line:0000000000000000 .Ldebug_line0
     /tmp/ccLoyEFa.s:2733   .debug_str:000000000000029d .LASF0
     /tmp/ccLoyEFa.s:2759   .debug_str:000000000000036a .LASF1
     /tmp/ccLoyEFa.s:2817   .debug_str:0000000000000525 .LASF2
     /tmp/ccLoyEFa.s:2821   .debug_str:000000000000053d .LASF4
     /tmp/ccLoyEFa.s:2741   .debug_str:00000000000002c0 .LASF3
     /tmp/ccLoyEFa.s:2661   .debug_str:0000000000000026 .LASF5
     /tmp/ccLoyEFa.s:2801   .debug_str:0000000000000495 .LASF6
     /tmp/ccLoyEFa.s:2751   .debug_str:000000000000032b .LASF7
     /tmp/ccLoyEFa.s:2715   .debug_str:00000000000001e2 .LASF8
     /tmp/ccLoyEFa.s:2719   .debug_str:0000000000000210 .LASF9
     /tmp/ccLoyEFa.s:2681   .debug_str:00000000000000bc .LASF10
     /tmp/ccLoyEFa.s:2707   .debug_str:00000000000001a3 .LASF11
     /tmp/ccLoyEFa.s:2691   .debug_str:0000000000000107 .LASF12
     /tmp/ccLoyEFa.s:2679   .debug_str:00000000000000ac .LASF13
     /tmp/ccLoyEFa.s:2845   .debug_str:00000000000005ec .LASF14
     /tmp/ccLoyEFa.s:2699   .debug_str:0000000000000160 .LASF15
     /tmp/ccLoyEFa.s:2835   .debug_str:00000000000005bb .LASF16
     /tmp/ccLoyEFa.s:2669   .debug_str:000000000000006c .LASF17
     /tmp/ccLoyEFa.s:2851   .debug_str:000000000000061e .LASF18
     /tmp/ccLoyEFa.s:2867   .debug_str:000000000000074a .LASF19
     /tmp/ccLoyEFa.s:2755   .debug_str:0000000000000360 .LASF20
     /tmp/ccLoyEFa.s:2683   .debug_str:00000000000000cb .LASF21
     /tmp/ccLoyEFa.s:2659   .debug_str:0000000000000021 .LASF22
     /tmp/ccLoyEFa.s:2671   .debug_str:0000000000000074 .LASF23
     /tmp/ccLoyEFa.s:2833   .debug_str:00000000000005b2 .LASF24
     /tmp/ccLoyEFa.s:2889   .debug_str:000000000000085d .LASF25
     /tmp/ccLoyEFa.s:2865   .debug_str:0000000000000742 .LASF26
     /tmp/ccLoyEFa.s:2863   .debug_str:0000000000000738 .LASF27
     /tmp/ccLoyEFa.s:2777   .debug_str:00000000000003e4 .LASF28
     /tmp/ccLoyEFa.s:2813   .debug_str:0000000000000512 .LASF29
     /tmp/ccLoyEFa.s:2743   .debug_str:00000000000002d2 .LASF30
     /tmp/ccLoyEFa.s:2779   .debug_str:00000000000003ef .LASF31
     /tmp/ccLoyEFa.s:2797   .debug_str:000000000000046f .LASF33
     /tmp/ccLoyEFa.s:2703   .debug_str:0000000000000181 .LASF32
     /tmp/ccLoyEFa.s:2887   .debug_str:0000000000000843 .LASF34
     /tmp/ccLoyEFa.s:2847   .debug_str:00000000000005f8 .LASF35
     /tmp/ccLoyEFa.s:2875   .debug_str:0000000000000798 .LASF36
     /tmp/ccLoyEFa.s:2765   .debug_str:00000000000003a2 .LASF37
     /tmp/ccLoyEFa.s:2689   .debug_str:00000000000000fd .LASF38
     /tmp/ccLoyEFa.s:2837   .debug_str:00000000000005d1 .LASF39
     /tmp/ccLoyEFa.s:2791   .debug_str:0000000000000456 .LASF40
     /tmp/ccLoyEFa.s:2771   .debug_str:00000000000003bd .LASF55
     /tmp/ccLoyEFa.s:2673   .debug_str:000000000000007c .LASF68
     /tmp/ccLoyEFa.s:2767   .debug_str:00000000000003a7 .LASF41
     /tmp/ccLoyEFa.s:2823   .debug_str:0000000000000544 .LASF43
     /tmp/ccLoyEFa.s:2701   .debug_str:0000000000000176 .LASF42
     /tmp/ccLoyEFa.s:2775   .debug_str:00000000000003ca .LASF44
     /tmp/ccLoyEFa.s:2763   .debug_str:0000000000000395 .LASF45
     /tmp/ccLoyEFa.s:2855   .debug_str:000000000000062e .LASF46
     /tmp/ccLoyEFa.s:2827   .debug_str:0000000000000589 .LASF47
GAS LISTING /tmp/ccLoyEFa.s 			page 12


     /tmp/ccLoyEFa.s:2879   .debug_str:00000000000007d9 .LASF48
     /tmp/ccLoyEFa.s:2677   .debug_str:000000000000009e .LASF49
     /tmp/ccLoyEFa.s:2809   .debug_str:00000000000004de .LASF50
     /tmp/ccLoyEFa.s:2687   .debug_str:00000000000000ee .LASF51
     /tmp/ccLoyEFa.s:2729   .debug_str:0000000000000276 .LASF52
     /tmp/ccLoyEFa.s:2773   .debug_str:00000000000003c5 .LASF53
     /tmp/ccLoyEFa.s:2841   .debug_str:00000000000005df .LASF54
     /tmp/ccLoyEFa.s:2861   .debug_str:000000000000071d .LASF56
     /tmp/ccLoyEFa.s:2799   .debug_str:0000000000000489 .LASF57
     /tmp/ccLoyEFa.s:2761   .debug_str:000000000000037d .LASF59
     /tmp/ccLoyEFa.s:2899   .debug_str:00000000000008bd .LASF58
     /tmp/ccLoyEFa.s:2891   .debug_str:0000000000000863 .LASF60
     /tmp/ccLoyEFa.s:2695   .debug_str:000000000000012e .LASF61
     /tmp/ccLoyEFa.s:2811   .debug_str:00000000000004fb .LASF62
     /tmp/ccLoyEFa.s:2843   .debug_str:00000000000005e4 .LASF63
     /tmp/ccLoyEFa.s:2895   .debug_str:000000000000089a .LASF64
     /tmp/ccLoyEFa.s:2675   .debug_str:0000000000000094 .LASF65
     /tmp/ccLoyEFa.s:2693   .debug_str:0000000000000117 .LASF66
     /tmp/ccLoyEFa.s:2745   .debug_str:00000000000002dd .LASF67
     /tmp/ccLoyEFa.s:2883   .debug_str:000000000000080e .LASF69
     /tmp/ccLoyEFa.s:2853   .debug_str:0000000000000626 .LASF70
     /tmp/ccLoyEFa.s:2665   .debug_str:000000000000004e .LASF71
     /tmp/ccLoyEFa.s:2757   .debug_str:0000000000000365 .LASF72
     /tmp/ccLoyEFa.s:2721   .debug_str:000000000000021e .LASF83
     /tmp/ccLoyEFa.s:2785   .debug_str:0000000000000425 .LASF73
     /tmp/ccLoyEFa.s:2737   .debug_str:00000000000002af .LASF74
     /tmp/ccLoyEFa.s:2739   .debug_str:00000000000002b6 .LASF75
     /tmp/ccLoyEFa.s:2749   .debug_str:0000000000000302 .LASF76
     /tmp/ccLoyEFa.s:2869   .debug_str:000000000000074f .LASF115
     /tmp/ccLoyEFa.s:2789   .debug_str:0000000000000433 .LASF116
     /tmp/ccLoyEFa.s:2781   .debug_str:00000000000003fa .LASF77
     /tmp/ccLoyEFa.s:2663   .debug_str:000000000000002d .LASF78
     /tmp/ccLoyEFa.s:2731   .debug_str:0000000000000294 .LASF79
     /tmp/ccLoyEFa.s:2783   .debug_str:0000000000000404 .LASF80
     /tmp/ccLoyEFa.s:2769   .debug_str:00000000000003ae .LASF81
     /tmp/ccLoyEFa.s:2871   .debug_str:000000000000075a .LASF82
     /tmp/ccLoyEFa.s:2713   .debug_str:00000000000001d8 .LASF84
     /tmp/ccLoyEFa.s:2831   .debug_str:00000000000005a1 .LASF85
     /tmp/ccLoyEFa.s:2881   .debug_str:0000000000000804 .LASF86
     /tmp/ccLoyEFa.s:2849   .debug_str:000000000000060a .LASF117
     /tmp/ccLoyEFa.s:2747   .debug_str:00000000000002e6 .LASF118
     /tmp/ccLoyEFa.s:2897   .debug_str:00000000000008af .LASF87
     /tmp/ccLoyEFa.s:2787   .debug_str:000000000000042e .LASF88
     /tmp/ccLoyEFa.s:2873   .debug_str:0000000000000781 .LASF89
     /tmp/ccLoyEFa.s:2805   .debug_str:00000000000004ba .LASF94
     /tmp/ccLoyEFa.s:2819   .debug_str:0000000000000533 .LASF119
     /tmp/ccLoyEFa.s:2725   .debug_str:000000000000023d .LASF120
     /tmp/ccLoyEFa.s:2857   .debug_str:0000000000000636 .LASF90
     /tmp/ccLoyEFa.s:2815   .debug_str:000000000000051c .LASF91
     /tmp/ccLoyEFa.s:2893   .debug_str:0000000000000879 .LASF92
     /tmp/ccLoyEFa.s:2877   .debug_str:00000000000007b9 .LASF93
     /tmp/ccLoyEFa.s:2753   .debug_str:000000000000033e .LASF95
     /tmp/ccLoyEFa.s:2885   .debug_str:0000000000000824 .LASF96
     /tmp/ccLoyEFa.s:2829   .debug_str:0000000000000596 .LASF97
     /tmp/ccLoyEFa.s:2709   .debug_str:00000000000001b2 .LASF98
     /tmp/ccLoyEFa.s:2807   .debug_str:00000000000004d5 .LASF99
     /tmp/ccLoyEFa.s:2685   .debug_str:00000000000000d0 .LASF100
GAS LISTING /tmp/ccLoyEFa.s 			page 13


     /tmp/ccLoyEFa.s:2839   .debug_str:00000000000005d6 .LASF101
     /tmp/ccLoyEFa.s:2727   .debug_str:0000000000000258 .LASF102
     /tmp/ccLoyEFa.s:2657   .debug_str:0000000000000000 .LASF103
     /tmp/ccLoyEFa.s:2667   .debug_str:0000000000000053 .LASF104
     /tmp/ccLoyEFa.s:2825   .debug_str:0000000000000559 .LASF105
     /tmp/ccLoyEFa.s:235    .text:000000000000014c .LFB34
     /tmp/ccLoyEFa.s:261    .text:0000000000000180 .LFE34
     /tmp/ccLoyEFa.s:251    .text:0000000000000170 .LVL20
     /tmp/ccLoyEFa.s:2697   .debug_str:0000000000000136 .LASF106
     /tmp/ccLoyEFa.s:9      .text:0000000000000000 .LFB33
     /tmp/ccLoyEFa.s:53     .text:0000000000000040 .LFE33
     /tmp/ccLoyEFa.s:2723   .debug_str:000000000000022e .LASF107
     /tmp/ccLoyEFa.s:2795   .debug_str:0000000000000464 .LASF108
     /tmp/ccLoyEFa.s:38     .text:000000000000002c .LBB9
     /tmp/ccLoyEFa.s:49     .text:000000000000003c .LBE9
     /tmp/ccLoyEFa.s:2512   .debug_loc:0000000000000000 .LLST0
     /tmp/ccLoyEFa.s:2711   .debug_str:00000000000001d3 .LASF111
     /tmp/ccLoyEFa.s:2793   .debug_str:000000000000045b .LASF109
     /tmp/ccLoyEFa.s:2735   .debug_str:00000000000002aa .LASF110
     /tmp/ccLoyEFa.s:2705   .debug_str:000000000000018c .LASF121
     /tmp/ccLoyEFa.s:149    .text:00000000000000c0 .LFB26
     /tmp/ccLoyEFa.s:230    .text:000000000000014c .LFE26
     /tmp/ccLoyEFa.s:2521   .debug_loc:000000000000002c .LLST5
     /tmp/ccLoyEFa.s:174    .text:00000000000000f0 .LBB20
     /tmp/ccLoyEFa.s:2641   .debug_ranges:0000000000000000 .Ldebug_ranges0
     /tmp/ccLoyEFa.s:2543   .debug_loc:000000000000008b .LLST6
     /tmp/ccLoyEFa.s:2558   .debug_loc:00000000000000d4 .LLST7
     /tmp/ccLoyEFa.s:2573   .debug_loc:000000000000011c .LLST8
     /tmp/ccLoyEFa.s:180    .text:00000000000000fc .LVL14
     /tmp/ccLoyEFa.s:183    .text:0000000000000104 .LVL15
     /tmp/ccLoyEFa.s:59     .text:0000000000000040 .LFB25
     /tmp/ccLoyEFa.s:143    .text:00000000000000c0 .LFE25
     /tmp/ccLoyEFa.s:74     .text:0000000000000054 .LBB12
     /tmp/ccLoyEFa.s:84     .text:0000000000000064 .LBE12
     /tmp/ccLoyEFa.s:2580   .debug_loc:000000000000013f .LLST1
     /tmp/ccLoyEFa.s:95     .text:000000000000007c .LBB14
     /tmp/ccLoyEFa.s:2595   .debug_loc:0000000000000187 .LLST2
     /tmp/ccLoyEFa.s:2610   .debug_loc:00000000000001cf .LLST3
     /tmp/ccLoyEFa.s:2621   .debug_loc:0000000000000205 .LLST4
     /tmp/ccLoyEFa.s:109    .text:0000000000000094 .LVL7
     /tmp/ccLoyEFa.s:37     .text:000000000000002c .LVL1
     /tmp/ccLoyEFa.s:46     .text:000000000000003c .LVL2
     /tmp/ccLoyEFa.s:152    .text:00000000000000c0 .LVL11
     /tmp/ccLoyEFa.s:178    .text:00000000000000f4 .LVL13
     /tmp/ccLoyEFa.s:211    .text:0000000000000130 .LVL17
     /tmp/ccLoyEFa.s:215    .text:0000000000000138 .LVL18
     /tmp/ccLoyEFa.s:173    .text:00000000000000f0 .LVL12
     /tmp/ccLoyEFa.s:196    .text:0000000000000120 .LVL16
     /tmp/ccLoyEFa.s:224    .text:0000000000000148 .LVL19
     /tmp/ccLoyEFa.s:73     .text:0000000000000054 .LVL3
     /tmp/ccLoyEFa.s:82     .text:0000000000000064 .LVL4
     /tmp/ccLoyEFa.s:134    .text:00000000000000b8 .LVL9
     /tmp/ccLoyEFa.s:140    .text:00000000000000bc .LVL10
     /tmp/ccLoyEFa.s:94     .text:000000000000007c .LVL5
     /tmp/ccLoyEFa.s:126    .text:00000000000000ac .LVL8
     /tmp/ccLoyEFa.s:106    .text:000000000000008c .LVL6
     /tmp/ccLoyEFa.s:288    .debug_info:0000000000000000 .Ldebug_info0
GAS LISTING /tmp/ccLoyEFa.s 			page 14


     /tmp/ccLoyEFa.s:112    .text:0000000000000094 .LBE14
     /tmp/ccLoyEFa.s:129    .text:00000000000000ac .LBB17
     /tmp/ccLoyEFa.s:137    .text:00000000000000b8 .LBE17
     /tmp/ccLoyEFa.s:199    .text:0000000000000120 .LBE20
     /tmp/ccLoyEFa.s:218    .text:0000000000000138 .LBB23
     /tmp/ccLoyEFa.s:226    .text:0000000000000148 .LBE23

UNDEFINED SYMBOLS
_ZN15MemoryAllocator8mem_freeEPv
_ZN15MemoryAllocator14convert2BlocksEm
_ZN15MemoryAllocator9mem_allocEm
