GAS LISTING /tmp/ccOMJVhy.s 			page 1


   1              		.file	"sem.cpp"
   2              		.option pic
   3              		.option norelax
   4              		.text
   5              	.Ltext0:
   6              		.align	2
   7              		.globl	_ZN4_sem7semOpenEPPS_j
   9              	_ZN4_sem7semOpenEPPS_j:
  10              	.LFB25:
  11              		.file 1 "src/sem.cpp"
   1:src/sem.cpp   **** //
   2:src/sem.cpp   **** // Created by os on 8/17/23.
   3:src/sem.cpp   **** //
   4:src/sem.cpp   **** 
   5:src/sem.cpp   **** #include "../h/sem.hpp"
   6:src/sem.cpp   **** #include "../h/scheduler.hpp"
   7:src/sem.cpp   **** #include "../test/printing.hpp"
   8:src/sem.cpp   **** #include "../h/thread.hpp"
   9:src/sem.cpp   **** 
  10:src/sem.cpp   **** int _sem::semOpen(_sem **handle, unsigned init)
  11:src/sem.cpp   **** {
  12              		.loc 1 11 1
  13              		.cfi_startproc
  14              	.LVL0:
  15 0000 130101FE 		addi	sp,sp,-32
  16              		.cfi_def_cfa_offset 32
  17 0004 233C1100 		sd	ra,24(sp)
  18 0008 23388100 		sd	s0,16(sp)
  19 000c 23349100 		sd	s1,8(sp)
  20 0010 23302101 		sd	s2,0(sp)
  21              		.cfi_offset 1, -8
  22              		.cfi_offset 8, -16
  23              		.cfi_offset 9, -24
  24              		.cfi_offset 18, -32
  25 0014 13040102 		addi	s0,sp,32
  26              		.cfi_def_cfa 8, 0
  27 0018 93040500 		mv	s1,a0
  28 001c 13890500 		mv	s2,a1
  12:src/sem.cpp   ****     *handle = (_sem*)MemoryAllocator::mem_alloc(sizeof(_sem));
  29              		.loc 1 12 5
  30              		.loc 1 12 48 is_stmt 0
  31 0020 13058001 		li	a0,24
  32              	.LVL1:
  33 0024 97000000 		call	_ZN15MemoryAllocator9mem_allocEm@plt
  33      E7800000 
  34              	.LVL2:
  35              		.loc 1 12 13
  36 002c 23B0A400 		sd	a0,0(s1)
  13:src/sem.cpp   **** 
  14:src/sem.cpp   ****     if (*handle == nullptr)
  37              		.loc 1 14 5 is_stmt 1
  38 0030 630A0502 		beqz	a0,.L3
  15:src/sem.cpp   ****         return -1;
  16:src/sem.cpp   **** 
  17:src/sem.cpp   ****     (*handle)->val = (int)init;
  39              		.loc 1 17 5
  40              		.loc 1 17 20 is_stmt 0
GAS LISTING /tmp/ccOMJVhy.s 			page 2


  41 0034 23282501 		sw	s2,16(a0)
  18:src/sem.cpp   ****     (*handle)->head = nullptr;
  42              		.loc 1 18 5 is_stmt 1
  43              		.loc 1 18 6 is_stmt 0
  44 0038 83B70400 		ld	a5,0(s1)
  45              		.loc 1 18 21
  46 003c 23B00700 		sd	zero,0(a5)
  19:src/sem.cpp   ****     (*handle)->tail = nullptr;
  47              		.loc 1 19 5 is_stmt 1
  48              		.loc 1 19 6 is_stmt 0
  49 0040 83B70400 		ld	a5,0(s1)
  50              		.loc 1 19 21
  51 0044 23B40700 		sd	zero,8(a5)
  20:src/sem.cpp   **** 
  21:src/sem.cpp   ****     return 0;
  52              		.loc 1 21 5 is_stmt 1
  53              		.loc 1 21 12 is_stmt 0
  54 0048 13050000 		li	a0,0
  55              	.L2:
  22:src/sem.cpp   **** }
  56              		.loc 1 22 1
  57 004c 83308101 		ld	ra,24(sp)
  58              		.cfi_remember_state
  59              		.cfi_restore 1
  60 0050 03340101 		ld	s0,16(sp)
  61              		.cfi_restore 8
  62              		.cfi_def_cfa 2, 32
  63 0054 83348100 		ld	s1,8(sp)
  64              		.cfi_restore 9
  65              	.LVL3:
  66 0058 03390100 		ld	s2,0(sp)
  67              		.cfi_restore 18
  68 005c 13010102 		addi	sp,sp,32
  69              		.cfi_def_cfa_offset 0
  70 0060 67800000 		jr	ra
  71              	.LVL4:
  72              	.L3:
  73              		.cfi_restore_state
  15:src/sem.cpp   **** 
  74              		.loc 1 15 17
  75 0064 1305F0FF 		li	a0,-1
  76 0068 6FF05FFE 		j	.L2
  77              		.cfi_endproc
  78              	.LFE25:
  80              		.align	2
  81              		.globl	_ZN4_sem7addLastEP7_thread
  83              	_ZN4_sem7addLastEP7_thread:
  84              	.LFB29:
  23:src/sem.cpp   **** 
  24:src/sem.cpp   **** 
  25:src/sem.cpp   **** int _sem::semClose(_sem *handle)
  26:src/sem.cpp   **** {
  27:src/sem.cpp   ****     if (handle == nullptr) // error: sem is nullptr
  28:src/sem.cpp   ****         return -1;
  29:src/sem.cpp   **** 
  30:src/sem.cpp   **** //    printString("\n****************\nSem Close - Closing sem!\n");
  31:src/sem.cpp   ****     // remove all threads that are blocked
GAS LISTING /tmp/ccOMJVhy.s 			page 3


  32:src/sem.cpp   ****     while (handle->peekFirst())
  33:src/sem.cpp   ****     {
  34:src/sem.cpp   **** //        printString("Removing thread!\n");
  35:src/sem.cpp   ****         handle->peekFirst()->semWaitVal = -1;
  36:src/sem.cpp   ****         Scheduler::put(handle->removeFirst());
  37:src/sem.cpp   ****     }
  38:src/sem.cpp   **** //    printString("\n****************\n");
  39:src/sem.cpp   **** 
  40:src/sem.cpp   ****     MemoryAllocator::mem_free(handle);
  41:src/sem.cpp   **** 
  42:src/sem.cpp   ****     return 0;
  43:src/sem.cpp   **** }
  44:src/sem.cpp   **** 
  45:src/sem.cpp   **** 
  46:src/sem.cpp   **** int _sem::semWait(_sem* id) {
  47:src/sem.cpp   ****     if (id == nullptr)
  48:src/sem.cpp   ****         return -1; // invalid id
  49:src/sem.cpp   **** 
  50:src/sem.cpp   ****     id->val--;
  51:src/sem.cpp   **** 
  52:src/sem.cpp   ****     _thread *old = _thread::running;
  53:src/sem.cpp   **** 
  54:src/sem.cpp   ****     if (id->val < 0)
  55:src/sem.cpp   ****     {
  56:src/sem.cpp   ****         // printString("\nSem Wait - Waiting on sem!\n");
  57:src/sem.cpp   ****         _thread::running->blockedOn = id;
  58:src/sem.cpp   ****         id->addLast(_thread::running);
  59:src/sem.cpp   ****     }
  60:src/sem.cpp   ****     else
  61:src/sem.cpp   ****         return 0;
  62:src/sem.cpp   **** 
  63:src/sem.cpp   ****      _thread::running = Scheduler::get();
  64:src/sem.cpp   **** 
  65:src/sem.cpp   **** //    if (!_thread::running)
  66:src/sem.cpp   **** //        printString("\n********************\nThread running is nullptr!\n");
  67:src/sem.cpp   **** 
  68:src/sem.cpp   ****     if (old != _thread::running)
  69:src/sem.cpp   ****         contextSwitch(&old->context, &_thread::running->context);
  70:src/sem.cpp   **** 
  71:src/sem.cpp   ****     return 0;
  72:src/sem.cpp   **** }
  73:src/sem.cpp   **** 
  74:src/sem.cpp   **** int _sem::semSignal(sem_t id)
  75:src/sem.cpp   **** {
  76:src/sem.cpp   ****     if (id == nullptr) // id is nullptr
  77:src/sem.cpp   ****         return -1;
  78:src/sem.cpp   **** 
  79:src/sem.cpp   ****     id->val++;
  80:src/sem.cpp   ****     // remove first if exists
  81:src/sem.cpp   ****     if (id->peekFirst())
  82:src/sem.cpp   ****     {
  83:src/sem.cpp   **** //        printString("\nSem signal!\n");
  84:src/sem.cpp   ****         id->peekFirst()->semWaitVal = 0;
  85:src/sem.cpp   ****         id->peekFirst()->blockedOn = nullptr;
  86:src/sem.cpp   ****         Scheduler::put(id->removeFirst());
  87:src/sem.cpp   ****     }
  88:src/sem.cpp   **** 
GAS LISTING /tmp/ccOMJVhy.s 			page 4


  89:src/sem.cpp   ****     return 0;
  90:src/sem.cpp   **** }
  91:src/sem.cpp   **** 
  92:src/sem.cpp   **** void _sem::addLast(_thread *t) {
  85              		.loc 1 92 32 is_stmt 1
  86              		.cfi_startproc
  87              	.LVL5:
  93:src/sem.cpp   ****     if (t == nullptr)
  88              		.loc 1 93 5
  89 006c 638A0506 		beqz	a1,.L9
  92:src/sem.cpp   ****     if (t == nullptr)
  90              		.loc 1 92 32 is_stmt 0
  91 0070 130101FE 		addi	sp,sp,-32
  92              		.cfi_def_cfa_offset 32
  93 0074 233C1100 		sd	ra,24(sp)
  94 0078 23388100 		sd	s0,16(sp)
  95 007c 23349100 		sd	s1,8(sp)
  96 0080 23302101 		sd	s2,0(sp)
  97              		.cfi_offset 1, -8
  98              		.cfi_offset 8, -16
  99              		.cfi_offset 9, -24
 100              		.cfi_offset 18, -32
 101 0084 13040102 		addi	s0,sp,32
 102              		.cfi_def_cfa 8, 0
 103 0088 13090500 		mv	s2,a0
 104 008c 93840500 		mv	s1,a1
  94:src/sem.cpp   ****         return;
  95:src/sem.cpp   **** 
  96:src/sem.cpp   ****     size_t blockNum = MemoryAllocator::convert2Blocks(sizeof(Elem));
 105              		.loc 1 96 5 is_stmt 1
 106              		.loc 1 96 54 is_stmt 0
 107 0090 13050001 		li	a0,16
 108              	.LVL6:
 109 0094 97000000 		call	_ZN15MemoryAllocator14convert2BlocksEm@plt
 109      E7800000 
 110              	.LVL7:
  97:src/sem.cpp   ****     Elem *elem = (Elem*)MemoryAllocator::mem_alloc(blockNum);
 111              		.loc 1 97 5 is_stmt 1
 112              		.loc 1 97 51 is_stmt 0
 113 009c 97000000 		call	_ZN15MemoryAllocator9mem_allocEm@plt
 113      E7800000 
 114              	.LVL8:
  98:src/sem.cpp   **** 
  99:src/sem.cpp   ****     elem->data = t;
 115              		.loc 1 99 5 is_stmt 1
 116              		.loc 1 99 16 is_stmt 0
 117 00a4 23309500 		sd	s1,0(a0)
 100:src/sem.cpp   ****     elem->next = nullptr;
 118              		.loc 1 100 5 is_stmt 1
 119              		.loc 1 100 16 is_stmt 0
 120 00a8 23340500 		sd	zero,8(a0)
 101:src/sem.cpp   **** 
 102:src/sem.cpp   ****     //Elem *elem = new Elem(t, nullptr);
 103:src/sem.cpp   **** 
 104:src/sem.cpp   ****     if (tail)
 121              		.loc 1 104 5 is_stmt 1
 122              		.loc 1 104 9 is_stmt 0
GAS LISTING /tmp/ccOMJVhy.s 			page 5


 123 00ac 83378900 		ld	a5,8(s2)
 124              		.loc 1 104 5
 125 00b0 63820702 		beqz	a5,.L7
 105:src/sem.cpp   ****     {
 106:src/sem.cpp   ****         tail->next = elem;
 126              		.loc 1 106 9 is_stmt 1
 127              		.loc 1 106 20 is_stmt 0
 128 00b4 23B4A700 		sd	a0,8(a5)
 107:src/sem.cpp   ****         tail = elem;
 129              		.loc 1 107 9 is_stmt 1
 130              		.loc 1 107 14 is_stmt 0
 131 00b8 2334A900 		sd	a0,8(s2)
 132              	.L5:
 108:src/sem.cpp   ****     }
 109:src/sem.cpp   ****     else
 110:src/sem.cpp   ****     {
 111:src/sem.cpp   ****         head = tail = elem;
 112:src/sem.cpp   ****     }
 113:src/sem.cpp   **** }
 133              		.loc 1 113 1
 134 00bc 83308101 		ld	ra,24(sp)
 135              		.cfi_remember_state
 136              		.cfi_restore 1
 137 00c0 03340101 		ld	s0,16(sp)
 138              		.cfi_restore 8
 139              		.cfi_def_cfa 2, 32
 140 00c4 83348100 		ld	s1,8(sp)
 141              		.cfi_restore 9
 142              	.LVL9:
 143 00c8 03390100 		ld	s2,0(sp)
 144              		.cfi_restore 18
 145              	.LVL10:
 146 00cc 13010102 		addi	sp,sp,32
 147              		.cfi_def_cfa_offset 0
 148 00d0 67800000 		jr	ra
 149              	.LVL11:
 150              	.L7:
 151              		.cfi_restore_state
 111:src/sem.cpp   ****     }
 152              		.loc 1 111 9 is_stmt 1
 111:src/sem.cpp   ****     }
 153              		.loc 1 111 21 is_stmt 0
 154 00d4 2334A900 		sd	a0,8(s2)
 111:src/sem.cpp   ****     }
 155              		.loc 1 111 14
 156 00d8 2330A900 		sd	a0,0(s2)
 157 00dc 6FF01FFE 		j	.L5
 158              	.LVL12:
 159              	.L9:
 160              		.cfi_def_cfa_register 2
 161              		.cfi_restore 1
 162              		.cfi_restore 8
 163              		.cfi_restore 9
 164              		.cfi_restore 18
 165 00e0 67800000 		ret
 166              		.cfi_endproc
 167              	.LFE29:
GAS LISTING /tmp/ccOMJVhy.s 			page 6


 169              		.align	2
 170              		.globl	_ZN4_sem7semWaitEPS_
 172              	_ZN4_sem7semWaitEPS_:
 173              	.LFB27:
  46:src/sem.cpp   ****     if (id == nullptr)
 174              		.loc 1 46 29 is_stmt 1
 175              		.cfi_startproc
 176              	.LVL13:
  47:src/sem.cpp   ****         return -1; // invalid id
 177              		.loc 1 47 5
 178 00e4 63080508 		beqz	a0,.L14
  46:src/sem.cpp   ****     if (id == nullptr)
 179              		.loc 1 46 29 is_stmt 0
 180 00e8 130101FE 		addi	sp,sp,-32
 181              		.cfi_def_cfa_offset 32
 182 00ec 233C1100 		sd	ra,24(sp)
 183 00f0 23388100 		sd	s0,16(sp)
 184 00f4 23349100 		sd	s1,8(sp)
 185              		.cfi_offset 1, -8
 186              		.cfi_offset 8, -16
 187              		.cfi_offset 9, -24
 188 00f8 13040102 		addi	s0,sp,32
 189              		.cfi_def_cfa 8, 0
  50:src/sem.cpp   **** 
 190              		.loc 1 50 5 is_stmt 1
  50:src/sem.cpp   **** 
 191              		.loc 1 50 9 is_stmt 0
 192 00fc 83270501 		lw	a5,16(a0)
  50:src/sem.cpp   **** 
 193              		.loc 1 50 12
 194 0100 9B87F7FF 		addiw	a5,a5,-1
 195 0104 2328F500 		sw	a5,16(a0)
  52:src/sem.cpp   **** 
 196              		.loc 1 52 5 is_stmt 1
  52:src/sem.cpp   **** 
 197              		.loc 1 52 14 is_stmt 0
 198 0108 17070000 		la	a4,_ZN7_thread7runningE
 198      03370700 
 199 0110 83340700 		ld	s1,0(a4)
 200              	.LVL14:
  54:src/sem.cpp   ****     {
 201              		.loc 1 54 5 is_stmt 1
 202 0114 13970702 		slli	a4,a5,32
 203 0118 634E0700 		bltz	a4,.L21
  61:src/sem.cpp   **** 
 204              		.loc 1 61 16 is_stmt 0
 205 011c 13050000 		li	a0,0
 206              	.LVL15:
 207              	.L13:
  72:src/sem.cpp   **** 
 208              		.loc 1 72 1
 209 0120 83308101 		ld	ra,24(sp)
 210              		.cfi_remember_state
 211              		.cfi_restore 1
 212 0124 03340101 		ld	s0,16(sp)
 213              		.cfi_restore 8
 214              		.cfi_def_cfa 2, 32
GAS LISTING /tmp/ccOMJVhy.s 			page 7


 215 0128 83348100 		ld	s1,8(sp)
 216              		.cfi_restore 9
 217              	.LVL16:
 218 012c 13010102 		addi	sp,sp,32
 219              		.cfi_def_cfa_offset 0
 220 0130 67800000 		jr	ra
 221              	.LVL17:
 222              	.L21:
 223              		.cfi_restore_state
  57:src/sem.cpp   ****         id->addLast(_thread::running);
 224              		.loc 1 57 9 is_stmt 1
  57:src/sem.cpp   ****         id->addLast(_thread::running);
 225              		.loc 1 57 37 is_stmt 0
 226 0134 23B8A404 		sd	a0,80(s1)
  58:src/sem.cpp   ****     }
 227              		.loc 1 58 9 is_stmt 1
  58:src/sem.cpp   ****     }
 228              		.loc 1 58 20 is_stmt 0
 229 0138 93850400 		mv	a1,s1
 230 013c 97000000 		call	_ZN4_sem7addLastEP7_thread
 230      E7800000 
 231              	.LVL18:
  63:src/sem.cpp   **** 
 232              		.loc 1 63 6 is_stmt 1
  63:src/sem.cpp   **** 
 233              		.loc 1 63 39 is_stmt 0
 234 0144 97000000 		call	_ZN9Scheduler3getEv@plt
 234      E7800000 
 235              	.LVL19:
  63:src/sem.cpp   **** 
 236              		.loc 1 63 23
 237 014c 97070000 		la	a5,_ZN7_thread7runningE
 237      83B70700 
 238 0154 23B0A700 		sd	a0,0(a5)
  68:src/sem.cpp   ****         contextSwitch(&old->context, &_thread::running->context);
 239              		.loc 1 68 5 is_stmt 1
 240 0158 6382A402 		beq	s1,a0,.L16
  69:src/sem.cpp   **** 
 241              		.loc 1 69 9
  69:src/sem.cpp   **** 
 242              		.loc 1 69 22 is_stmt 0
 243 015c 93058501 		addi	a1,a0,24
 244 0160 13858401 		addi	a0,s1,24
 245 0164 97000000 		call	contextSwitch@plt
 245      E7800000 
 246              	.LVL20:
  71:src/sem.cpp   **** }
 247              		.loc 1 71 12
 248 016c 13050000 		li	a0,0
 249 0170 6FF01FFB 		j	.L13
 250              	.LVL21:
 251              	.L14:
 252              		.cfi_def_cfa_register 2
 253              		.cfi_restore 1
 254              		.cfi_restore 8
 255              		.cfi_restore 9
  48:src/sem.cpp   **** 
GAS LISTING /tmp/ccOMJVhy.s 			page 8


 256              		.loc 1 48 17
 257 0174 1305F0FF 		li	a0,-1
 258              	.LVL22:
  72:src/sem.cpp   **** 
 259              		.loc 1 72 1
 260 0178 67800000 		ret
 261              	.LVL23:
 262              	.L16:
 263              		.cfi_def_cfa_register 8
 264              		.cfi_offset 1, -8
 265              		.cfi_offset 8, -16
 266              		.cfi_offset 9, -24
  71:src/sem.cpp   **** }
 267              		.loc 1 71 12
 268 017c 13050000 		li	a0,0
 269 0180 6FF01FFA 		j	.L13
 270              		.cfi_endproc
 271              	.LFE27:
 273              		.align	2
 274              		.globl	_ZN4_sem11removeFirstEv
 276              	_ZN4_sem11removeFirstEv:
 277              	.LFB30:
 114:src/sem.cpp   **** 
 115:src/sem.cpp   **** _thread *_sem::removeFirst() {
 278              		.loc 1 115 30 is_stmt 1
 279              		.cfi_startproc
 280              	.LVL24:
 281 0184 130101FE 		addi	sp,sp,-32
 282              		.cfi_def_cfa_offset 32
 283 0188 233C1100 		sd	ra,24(sp)
 284 018c 23388100 		sd	s0,16(sp)
 285 0190 23349100 		sd	s1,8(sp)
 286              		.cfi_offset 1, -8
 287              		.cfi_offset 8, -16
 288              		.cfi_offset 9, -24
 289 0194 13040102 		addi	s0,sp,32
 290              		.cfi_def_cfa 8, 0
 291 0198 93070500 		mv	a5,a0
 116:src/sem.cpp   ****     if (head == nullptr) { return 0; }
 292              		.loc 1 116 5
 293              		.loc 1 116 9 is_stmt 0
 294 019c 03350500 		ld	a0,0(a0)
 295              	.LVL25:
 296              		.loc 1 116 5
 297 01a0 630E0502 		beqz	a0,.L25
 117:src/sem.cpp   **** 
 118:src/sem.cpp   ****     Elem *elem = head;
 298              		.loc 1 118 5 is_stmt 1
 299              	.LVL26:
 119:src/sem.cpp   ****     head = head->next;
 300              		.loc 1 119 5
 301              		.loc 1 119 18 is_stmt 0
 302 01a4 03378500 		ld	a4,8(a0)
 303              		.loc 1 119 10
 304 01a8 23B0E700 		sd	a4,0(a5)
 120:src/sem.cpp   ****     if (head == nullptr) { tail = nullptr; }
 305              		.loc 1 120 5 is_stmt 1
GAS LISTING /tmp/ccOMJVhy.s 			page 9


 306 01ac 63040702 		beqz	a4,.L27
 307              	.L24:
 121:src/sem.cpp   **** 
 122:src/sem.cpp   ****     _thread* ret = elem->data;
 308              		.loc 1 122 5
 309              		.loc 1 122 14 is_stmt 0
 310 01b0 83340500 		ld	s1,0(a0)
 311              	.LVL27:
 123:src/sem.cpp   ****     //delete elem;
 124:src/sem.cpp   ****     MemoryAllocator::mem_free(elem);
 312              		.loc 1 124 5 is_stmt 1
 313              		.loc 1 124 30 is_stmt 0
 314 01b4 97000000 		call	_ZN15MemoryAllocator8mem_freeEPv@plt
 314      E7800000 
 315              	.LVL28:
 125:src/sem.cpp   **** 
 126:src/sem.cpp   ****     return ret;
 316              		.loc 1 126 5 is_stmt 1
 317              	.L22:
 127:src/sem.cpp   **** }
 318              		.loc 1 127 1 is_stmt 0
 319 01bc 13850400 		mv	a0,s1
 320 01c0 83308101 		ld	ra,24(sp)
 321              		.cfi_remember_state
 322              		.cfi_restore 1
 323 01c4 03340101 		ld	s0,16(sp)
 324              		.cfi_restore 8
 325              		.cfi_def_cfa 2, 32
 326 01c8 83348100 		ld	s1,8(sp)
 327              		.cfi_restore 9
 328 01cc 13010102 		addi	sp,sp,32
 329              		.cfi_def_cfa_offset 0
 330 01d0 67800000 		jr	ra
 331              	.LVL29:
 332              	.L27:
 333              		.cfi_restore_state
 120:src/sem.cpp   **** 
 334              		.loc 1 120 28 is_stmt 1 discriminator 1
 120:src/sem.cpp   **** 
 335              		.loc 1 120 33 is_stmt 0 discriminator 1
 336 01d4 23B40700 		sd	zero,8(a5)
 337 01d8 6FF09FFD 		j	.L24
 338              	.LVL30:
 339              	.L25:
 116:src/sem.cpp   **** 
 340              		.loc 1 116 35
 341 01dc 93040500 		mv	s1,a0
 342 01e0 6FF0DFFD 		j	.L22
 343              		.cfi_endproc
 344              	.LFE30:
 346              		.align	2
 347              		.globl	_ZNK4_sem9peekFirstEv
 349              	_ZNK4_sem9peekFirstEv:
 350              	.LFB31:
 128:src/sem.cpp   **** 
 129:src/sem.cpp   **** _thread* _sem::peekFirst() const {
 351              		.loc 1 129 34 is_stmt 1
GAS LISTING /tmp/ccOMJVhy.s 			page 10


 352              		.cfi_startproc
 353              	.LVL31:
 354 01e4 130101FF 		addi	sp,sp,-16
 355              		.cfi_def_cfa_offset 16
 356 01e8 23348100 		sd	s0,8(sp)
 357              		.cfi_offset 8, -8
 358 01ec 13040101 		addi	s0,sp,16
 359              		.cfi_def_cfa 8, 0
 130:src/sem.cpp   ****     if (head == nullptr)
 360              		.loc 1 130 5
 361              		.loc 1 130 9 is_stmt 0
 362 01f0 03350500 		ld	a0,0(a0)
 363              	.LVL32:
 364              		.loc 1 130 5
 365 01f4 63040500 		beqz	a0,.L28
 131:src/sem.cpp   ****         return nullptr;
 132:src/sem.cpp   **** 
 133:src/sem.cpp   ****     return head->data;
 366              		.loc 1 133 5 is_stmt 1
 367              		.loc 1 133 18 is_stmt 0
 368 01f8 03350500 		ld	a0,0(a0)
 369              	.L28:
 134:src/sem.cpp   **** }
 370              		.loc 1 134 1
 371 01fc 03348100 		ld	s0,8(sp)
 372              		.cfi_restore 8
 373              		.cfi_def_cfa 2, 16
 374 0200 13010101 		addi	sp,sp,16
 375              		.cfi_def_cfa_offset 0
 376 0204 67800000 		jr	ra
 377              		.cfi_endproc
 378              	.LFE31:
 380              		.align	2
 381              		.globl	_ZN4_sem8semCloseEPS_
 383              	_ZN4_sem8semCloseEPS_:
 384              	.LFB26:
  26:src/sem.cpp   ****     if (handle == nullptr) // error: sem is nullptr
 385              		.loc 1 26 1 is_stmt 1
 386              		.cfi_startproc
 387              	.LVL33:
 388 0208 130101FE 		addi	sp,sp,-32
 389              		.cfi_def_cfa_offset 32
 390 020c 233C1100 		sd	ra,24(sp)
 391 0210 23388100 		sd	s0,16(sp)
 392 0214 23349100 		sd	s1,8(sp)
 393              		.cfi_offset 1, -8
 394              		.cfi_offset 8, -16
 395              		.cfi_offset 9, -24
 396 0218 13040102 		addi	s0,sp,32
 397              		.cfi_def_cfa 8, 0
 398 021c 93040500 		mv	s1,a0
  27:src/sem.cpp   ****         return -1;
 399              		.loc 1 27 5
 400 0220 630C0504 		beqz	a0,.L35
 401              	.LVL34:
 402              	.L34:
  32:src/sem.cpp   ****     {
GAS LISTING /tmp/ccOMJVhy.s 			page 11


 403              		.loc 1 32 5
  32:src/sem.cpp   ****     {
 404              		.loc 1 32 30
  32:src/sem.cpp   ****     {
 405              		.loc 1 32 29 is_stmt 0
 406 0224 13850400 		mv	a0,s1
 407 0228 97000000 		call	_ZNK4_sem9peekFirstEv
 407      E7800000 
 408              	.LVL35:
  32:src/sem.cpp   ****     {
 409              		.loc 1 32 30
 410 0230 63020502 		beqz	a0,.L33
  35:src/sem.cpp   ****         Scheduler::put(handle->removeFirst());
 411              		.loc 1 35 9 is_stmt 1
  35:src/sem.cpp   ****         Scheduler::put(handle->removeFirst());
 412              		.loc 1 35 41 is_stmt 0
 413 0234 9307F0FF 		li	a5,-1
 414 0238 232CF502 		sw	a5,56(a0)
  36:src/sem.cpp   ****     }
 415              		.loc 1 36 9 is_stmt 1
  36:src/sem.cpp   ****     }
 416              		.loc 1 36 23 is_stmt 0
 417 023c 13850400 		mv	a0,s1
 418 0240 97000000 		call	_ZN4_sem11removeFirstEv
 418      E7800000 
 419              	.LVL36:
 420 0248 97000000 		call	_ZN9Scheduler3putEP7_thread@plt
 420      E7800000 
 421              	.LVL37:
  32:src/sem.cpp   ****     {
 422              		.loc 1 32 5
 423 0250 6FF05FFD 		j	.L34
 424              	.L33:
  40:src/sem.cpp   **** 
 425              		.loc 1 40 5 is_stmt 1
  40:src/sem.cpp   **** 
 426              		.loc 1 40 30 is_stmt 0
 427 0254 13850400 		mv	a0,s1
 428 0258 97000000 		call	_ZN15MemoryAllocator8mem_freeEPv@plt
 428      E7800000 
 429              	.LVL38:
  42:src/sem.cpp   **** }
 430              		.loc 1 42 5 is_stmt 1
  42:src/sem.cpp   **** }
 431              		.loc 1 42 12 is_stmt 0
 432 0260 13050000 		li	a0,0
 433              	.L32:
  43:src/sem.cpp   **** 
 434              		.loc 1 43 1
 435 0264 83308101 		ld	ra,24(sp)
 436              		.cfi_remember_state
 437              		.cfi_restore 1
 438 0268 03340101 		ld	s0,16(sp)
 439              		.cfi_restore 8
 440              		.cfi_def_cfa 2, 32
 441 026c 83348100 		ld	s1,8(sp)
 442              		.cfi_restore 9
GAS LISTING /tmp/ccOMJVhy.s 			page 12


 443              	.LVL39:
 444 0270 13010102 		addi	sp,sp,32
 445              		.cfi_def_cfa_offset 0
 446 0274 67800000 		jr	ra
 447              	.LVL40:
 448              	.L35:
 449              		.cfi_restore_state
  28:src/sem.cpp   **** 
 450              		.loc 1 28 17
 451 0278 1305F0FF 		li	a0,-1
 452 027c 6FF09FFE 		j	.L32
 453              		.cfi_endproc
 454              	.LFE26:
 456              		.align	2
 457              		.globl	_ZN4_sem9semSignalEPS_
 459              	_ZN4_sem9semSignalEPS_:
 460              	.LFB28:
  75:src/sem.cpp   ****     if (id == nullptr) // id is nullptr
 461              		.loc 1 75 1 is_stmt 1
 462              		.cfi_startproc
 463              	.LVL41:
  76:src/sem.cpp   ****         return -1;
 464              		.loc 1 76 5
 465 0280 630A0506 		beqz	a0,.L39
  75:src/sem.cpp   ****     if (id == nullptr) // id is nullptr
 466              		.loc 1 75 1 is_stmt 0
 467 0284 130101FE 		addi	sp,sp,-32
 468              		.cfi_def_cfa_offset 32
 469 0288 233C1100 		sd	ra,24(sp)
 470 028c 23388100 		sd	s0,16(sp)
 471 0290 23349100 		sd	s1,8(sp)
 472              		.cfi_offset 1, -8
 473              		.cfi_offset 8, -16
 474              		.cfi_offset 9, -24
 475 0294 13040102 		addi	s0,sp,32
 476              		.cfi_def_cfa 8, 0
 477 0298 93040500 		mv	s1,a0
  79:src/sem.cpp   ****     // remove first if exists
 478              		.loc 1 79 5 is_stmt 1
  79:src/sem.cpp   ****     // remove first if exists
 479              		.loc 1 79 9 is_stmt 0
 480 029c 83270501 		lw	a5,16(a0)
  79:src/sem.cpp   ****     // remove first if exists
 481              		.loc 1 79 12
 482 02a0 9B871700 		addiw	a5,a5,1
 483 02a4 2328F500 		sw	a5,16(a0)
  81:src/sem.cpp   ****     {
 484              		.loc 1 81 5 is_stmt 1
  81:src/sem.cpp   ****     {
 485              		.loc 1 81 22 is_stmt 0
 486 02a8 97000000 		call	_ZNK4_sem9peekFirstEv
 486      E7800000 
 487              	.LVL42:
  81:src/sem.cpp   ****     {
 488              		.loc 1 81 5
 489 02b0 63060504 		beqz	a0,.L40
  84:src/sem.cpp   ****         id->peekFirst()->blockedOn = nullptr;
GAS LISTING /tmp/ccOMJVhy.s 			page 13


 490              		.loc 1 84 9 is_stmt 1
  84:src/sem.cpp   ****         id->peekFirst()->blockedOn = nullptr;
 491              		.loc 1 84 37 is_stmt 0
 492 02b4 232C0502 		sw	zero,56(a0)
  85:src/sem.cpp   ****         Scheduler::put(id->removeFirst());
 493              		.loc 1 85 9 is_stmt 1
  85:src/sem.cpp   ****         Scheduler::put(id->removeFirst());
 494              		.loc 1 85 22 is_stmt 0
 495 02b8 13850400 		mv	a0,s1
 496 02bc 97000000 		call	_ZNK4_sem9peekFirstEv
 496      E7800000 
 497              	.LVL43:
  85:src/sem.cpp   ****         Scheduler::put(id->removeFirst());
 498              		.loc 1 85 36
 499 02c4 23380504 		sd	zero,80(a0)
  86:src/sem.cpp   ****     }
 500              		.loc 1 86 9 is_stmt 1
  86:src/sem.cpp   ****     }
 501              		.loc 1 86 23 is_stmt 0
 502 02c8 13850400 		mv	a0,s1
 503 02cc 97000000 		call	_ZN4_sem11removeFirstEv
 503      E7800000 
 504              	.LVL44:
 505 02d4 97000000 		call	_ZN9Scheduler3putEP7_thread@plt
 505      E7800000 
 506              	.LVL45:
  89:src/sem.cpp   **** }
 507              		.loc 1 89 12
 508 02dc 13050000 		li	a0,0
 509              	.L38:
  90:src/sem.cpp   **** 
 510              		.loc 1 90 1
 511 02e0 83308101 		ld	ra,24(sp)
 512              		.cfi_restore 1
 513 02e4 03340101 		ld	s0,16(sp)
 514              		.cfi_restore 8
 515              		.cfi_def_cfa 2, 32
 516 02e8 83348100 		ld	s1,8(sp)
 517              		.cfi_restore 9
 518              	.LVL46:
 519 02ec 13010102 		addi	sp,sp,32
 520              		.cfi_def_cfa_offset 0
 521 02f0 67800000 		jr	ra
 522              	.LVL47:
 523              	.L39:
  77:src/sem.cpp   **** 
 524              		.loc 1 77 17
 525 02f4 1305F0FF 		li	a0,-1
 526              	.LVL48:
  90:src/sem.cpp   **** 
 527              		.loc 1 90 1
 528 02f8 67800000 		ret
 529              	.LVL49:
 530              	.L40:
 531              		.cfi_def_cfa_register 8
 532              		.cfi_offset 1, -8
 533              		.cfi_offset 8, -16
GAS LISTING /tmp/ccOMJVhy.s 			page 14


 534              		.cfi_offset 9, -24
  89:src/sem.cpp   **** }
 535              		.loc 1 89 12
 536 02fc 13050000 		li	a0,0
 537 0300 6FF01FFE 		j	.L38
 538              		.cfi_endproc
 539              	.LFE28:
 541              	.Letext0:
 542              		.file 2 "src/../h/../lib/hw.h"
 543              		.file 3 "src/../h/thread.hpp"
 544              		.file 4 "src/../h/sem.hpp"
 545              		.file 5 "src/../h/../test/../h/syscall_c.hpp"
 546              		.file 6 "src/../h/MemoryAllocator.hpp"
 547              		.file 7 "src/../h/scheduler.hpp"
GAS LISTING /tmp/ccOMJVhy.s 			page 15

