GAS LISTING /tmp/cc08WeYu.s 			page 1


   1              		.file	"sem.cpp"
   2              		.option pic
   3              		.option norelax
   4              		.text
   5              	.Ltext0:
   6              		.align	2
   7              		.globl	_ZN4_sem7semOpenEPPS_j
   9              	_ZN4_sem7semOpenEPPS_j:
  10              	.LFB30:
  11              		.file 1 "src/sem.cpp"
   1:src/sem.cpp   **** //
   2:src/sem.cpp   **** // Created by os on 8/17/23.
   3:src/sem.cpp   **** //
   4:src/sem.cpp   **** 
   5:src/sem.cpp   **** #include "../h/sem.hpp"
   6:src/sem.cpp   **** #include "../h/scheduler.hpp"
   7:src/sem.cpp   **** 
   8:src/sem.cpp   **** 
   9:src/sem.cpp   **** int _sem::semOpen(_sem **handle, unsigned init)
  10:src/sem.cpp   **** {
  12              		.loc 1 10 1
  13              		.cfi_startproc
  14              	.LVL0:
  15 0000 130101FE 		addi	sp,sp,-32
  16              		.cfi_def_cfa_offset 32
  17 0004 233C1100 		sd	ra,24(sp)
  18 0008 23388100 		sd	s0,16(sp)
  19 000c 23349100 		sd	s1,8(sp)
  20 0010 23302101 		sd	s2,0(sp)
  21              		.cfi_offset 1, -8
  22              		.cfi_offset 8, -16
  23              		.cfi_offset 9, -24
  24              		.cfi_offset 18, -32
  25 0014 13040102 		addi	s0,sp,32
  26              		.cfi_def_cfa 8, 0
  27 0018 93040500 		mv	s1,a0
  28 001c 13890500 		mv	s2,a1
  11:src/sem.cpp   ****     *handle = (_sem*)MemoryAllocator::mem_alloc(sizeof(_sem));
  29              		.loc 1 11 5
  30              		.loc 1 11 48 is_stmt 0
  31 0020 13058001 		li	a0,24
  32              	.LVL1:
  33 0024 97000000 		call	_ZN15MemoryAllocator9mem_allocEm@plt
  33      E7800000 
  34              	.LVL2:
  35              		.loc 1 11 13
  36 002c 23B0A400 		sd	a0,0(s1)
  12:src/sem.cpp   **** 
  13:src/sem.cpp   ****     (*handle)->val = (int)init;
  37              		.loc 1 13 5 is_stmt 1
  38              		.loc 1 13 20 is_stmt 0
  39 0030 23282501 		sw	s2,16(a0)
  14:src/sem.cpp   ****     (*handle)->head = nullptr;
  40              		.loc 1 14 5 is_stmt 1
  41              		.loc 1 14 6 is_stmt 0
  42 0034 83B70400 		ld	a5,0(s1)
  43              		.loc 1 14 21
GAS LISTING /tmp/cc08WeYu.s 			page 2


  44 0038 23B00700 		sd	zero,0(a5)
  15:src/sem.cpp   ****     (*handle)->tail = nullptr;
  45              		.loc 1 15 5 is_stmt 1
  46              		.loc 1 15 6 is_stmt 0
  47 003c 83B70400 		ld	a5,0(s1)
  48              		.loc 1 15 21
  49 0040 23B40700 		sd	zero,8(a5)
  16:src/sem.cpp   **** 
  17:src/sem.cpp   ****     return 0;
  50              		.loc 1 17 5 is_stmt 1
  18:src/sem.cpp   **** }
  51              		.loc 1 18 1 is_stmt 0
  52 0044 13050000 		li	a0,0
  53 0048 83308101 		ld	ra,24(sp)
  54              		.cfi_restore 1
  55 004c 03340101 		ld	s0,16(sp)
  56              		.cfi_restore 8
  57              		.cfi_def_cfa 2, 32
  58 0050 83348100 		ld	s1,8(sp)
  59              		.cfi_restore 9
  60              	.LVL3:
  61 0054 03390100 		ld	s2,0(sp)
  62              		.cfi_restore 18
  63 0058 13010102 		addi	sp,sp,32
  64              		.cfi_def_cfa_offset 0
  65 005c 67800000 		jr	ra
  66              		.cfi_endproc
  67              	.LFE30:
  69              		.align	2
  70              		.globl	_ZN4_sem7addLastEP7_thread
  72              	_ZN4_sem7addLastEP7_thread:
  73              	.LFB34:
  19:src/sem.cpp   **** 
  20:src/sem.cpp   **** 
  21:src/sem.cpp   **** int _sem::semClose(_sem *handle)
  22:src/sem.cpp   **** {
  23:src/sem.cpp   ****     if (handle == nullptr) // error: sem is nullptr
  24:src/sem.cpp   ****         return -1;
  25:src/sem.cpp   **** 
  26:src/sem.cpp   ****     // remove all threads that are blocked
  27:src/sem.cpp   ****     while (handle->peekFirst())
  28:src/sem.cpp   ****     {
  29:src/sem.cpp   ****         handle->peekFirst()->semWaitVal = -1;
  30:src/sem.cpp   ****         Scheduler::put(handle->removeFirst());
  31:src/sem.cpp   ****     }
  32:src/sem.cpp   **** 
  33:src/sem.cpp   ****     MemoryAllocator::mem_free(handle);
  34:src/sem.cpp   **** 
  35:src/sem.cpp   ****     return 0;
  36:src/sem.cpp   **** }
  37:src/sem.cpp   **** 
  38:src/sem.cpp   **** 
  39:src/sem.cpp   **** int _sem::semWait(_sem* id)
  40:src/sem.cpp   **** {
  41:src/sem.cpp   ****     if (id == nullptr)
  42:src/sem.cpp   ****         return -1; // invalid id
  43:src/sem.cpp   **** 
GAS LISTING /tmp/cc08WeYu.s 			page 3


  44:src/sem.cpp   ****     id->val--;
  45:src/sem.cpp   **** 
  46:src/sem.cpp   ****     _thread* old = _thread::running;
  47:src/sem.cpp   **** 
  48:src/sem.cpp   ****     if (id->val < 0)
  49:src/sem.cpp   ****         id->addLast(_thread::running);
  50:src/sem.cpp   ****     else
  51:src/sem.cpp   ****         Scheduler::put(_thread::running);
  52:src/sem.cpp   **** 
  53:src/sem.cpp   ****     _thread::running = Scheduler::get();
  54:src/sem.cpp   **** 
  55:src/sem.cpp   ****     if (old != _thread::running)
  56:src/sem.cpp   ****         contextSwitch(&old->context, &_thread::running->context);
  57:src/sem.cpp   **** 
  58:src/sem.cpp   ****     return 0;
  59:src/sem.cpp   **** }
  60:src/sem.cpp   **** 
  61:src/sem.cpp   **** int _sem::semSignal(sem_t id)
  62:src/sem.cpp   **** {
  63:src/sem.cpp   ****     if (id == nullptr) // id is nullptr
  64:src/sem.cpp   ****         return -1;
  65:src/sem.cpp   **** 
  66:src/sem.cpp   ****     // remove first if exists or increment val
  67:src/sem.cpp   ****     if (id->peekFirst())
  68:src/sem.cpp   ****     {
  69:src/sem.cpp   ****         id->peekFirst()->semWaitVal = 0;
  70:src/sem.cpp   ****         Scheduler::put(id->removeFirst());
  71:src/sem.cpp   ****     }
  72:src/sem.cpp   ****     else
  73:src/sem.cpp   ****         id->val++;
  74:src/sem.cpp   **** 
  75:src/sem.cpp   ****     return 0;
  76:src/sem.cpp   **** }
  77:src/sem.cpp   **** 
  78:src/sem.cpp   **** void _sem::addLast(_thread *t) {
  74              		.loc 1 78 32 is_stmt 1
  75              		.cfi_startproc
  76              	.LVL4:
  79:src/sem.cpp   ****     if (t == nullptr)
  77              		.loc 1 79 5
  78 0060 638A0506 		beqz	a1,.L7
  78:src/sem.cpp   ****     if (t == nullptr)
  79              		.loc 1 78 32 is_stmt 0
  80 0064 130101FE 		addi	sp,sp,-32
  81              		.cfi_def_cfa_offset 32
  82 0068 233C1100 		sd	ra,24(sp)
  83 006c 23388100 		sd	s0,16(sp)
  84 0070 23349100 		sd	s1,8(sp)
  85 0074 23302101 		sd	s2,0(sp)
  86              		.cfi_offset 1, -8
  87              		.cfi_offset 8, -16
  88              		.cfi_offset 9, -24
  89              		.cfi_offset 18, -32
  90 0078 13040102 		addi	s0,sp,32
  91              		.cfi_def_cfa 8, 0
  92 007c 13090500 		mv	s2,a0
  93 0080 93840500 		mv	s1,a1
GAS LISTING /tmp/cc08WeYu.s 			page 4


  80:src/sem.cpp   ****         return;
  81:src/sem.cpp   **** 
  82:src/sem.cpp   ****     size_t blockNum = MemoryAllocator::convert2Blocks(sizeof(Elem));
  94              		.loc 1 82 5 is_stmt 1
  95              		.loc 1 82 54 is_stmt 0
  96 0084 13050001 		li	a0,16
  97              	.LVL5:
  98 0088 97000000 		call	_ZN15MemoryAllocator14convert2BlocksEm@plt
  98      E7800000 
  99              	.LVL6:
  83:src/sem.cpp   ****     Elem *elem = (Elem*)MemoryAllocator::mem_alloc(blockNum);
 100              		.loc 1 83 5 is_stmt 1
 101              		.loc 1 83 51 is_stmt 0
 102 0090 97000000 		call	_ZN15MemoryAllocator9mem_allocEm@plt
 102      E7800000 
 103              	.LVL7:
  84:src/sem.cpp   **** 
  85:src/sem.cpp   ****     elem->data = t;
 104              		.loc 1 85 5 is_stmt 1
 105              		.loc 1 85 16 is_stmt 0
 106 0098 23309500 		sd	s1,0(a0)
  86:src/sem.cpp   ****     elem->next = nullptr;
 107              		.loc 1 86 5 is_stmt 1
 108              		.loc 1 86 16 is_stmt 0
 109 009c 23340500 		sd	zero,8(a0)
  87:src/sem.cpp   **** 
  88:src/sem.cpp   ****     //Elem *elem = new Elem(t, nullptr);
  89:src/sem.cpp   **** 
  90:src/sem.cpp   ****     if (tail)
 110              		.loc 1 90 5 is_stmt 1
 111              		.loc 1 90 9 is_stmt 0
 112 00a0 83378900 		ld	a5,8(s2)
 113              		.loc 1 90 5
 114 00a4 63820702 		beqz	a5,.L5
  91:src/sem.cpp   ****     {
  92:src/sem.cpp   ****         tail->next = elem;
 115              		.loc 1 92 9 is_stmt 1
 116              		.loc 1 92 20 is_stmt 0
 117 00a8 23B4A700 		sd	a0,8(a5)
  93:src/sem.cpp   ****         tail = elem;
 118              		.loc 1 93 9 is_stmt 1
 119              		.loc 1 93 14 is_stmt 0
 120 00ac 2334A900 		sd	a0,8(s2)
 121              	.L3:
  94:src/sem.cpp   ****     }
  95:src/sem.cpp   ****     else
  96:src/sem.cpp   ****     {
  97:src/sem.cpp   ****         head = tail = elem;
  98:src/sem.cpp   ****     }
  99:src/sem.cpp   **** }
 122              		.loc 1 99 1
 123 00b0 83308101 		ld	ra,24(sp)
 124              		.cfi_remember_state
 125              		.cfi_restore 1
 126 00b4 03340101 		ld	s0,16(sp)
 127              		.cfi_restore 8
 128              		.cfi_def_cfa 2, 32
GAS LISTING /tmp/cc08WeYu.s 			page 5


 129 00b8 83348100 		ld	s1,8(sp)
 130              		.cfi_restore 9
 131              	.LVL8:
 132 00bc 03390100 		ld	s2,0(sp)
 133              		.cfi_restore 18
 134              	.LVL9:
 135 00c0 13010102 		addi	sp,sp,32
 136              		.cfi_def_cfa_offset 0
 137 00c4 67800000 		jr	ra
 138              	.LVL10:
 139              	.L5:
 140              		.cfi_restore_state
  97:src/sem.cpp   ****     }
 141              		.loc 1 97 9 is_stmt 1
  97:src/sem.cpp   ****     }
 142              		.loc 1 97 21 is_stmt 0
 143 00c8 2334A900 		sd	a0,8(s2)
  97:src/sem.cpp   ****     }
 144              		.loc 1 97 14
 145 00cc 2330A900 		sd	a0,0(s2)
 146 00d0 6FF01FFE 		j	.L3
 147              	.LVL11:
 148              	.L7:
 149              		.cfi_def_cfa_register 2
 150              		.cfi_restore 1
 151              		.cfi_restore 8
 152              		.cfi_restore 9
 153              		.cfi_restore 18
 154 00d4 67800000 		ret
 155              		.cfi_endproc
 156              	.LFE34:
 158              		.align	2
 159              		.globl	_ZN4_sem7semWaitEPS_
 161              	_ZN4_sem7semWaitEPS_:
 162              	.LFB32:
  40:src/sem.cpp   ****     if (id == nullptr)
 163              		.loc 1 40 1 is_stmt 1
 164              		.cfi_startproc
 165              	.LVL12:
  41:src/sem.cpp   ****         return -1; // invalid id
 166              		.loc 1 41 5
 167 00d8 630A0508 		beqz	a0,.L14
  40:src/sem.cpp   ****     if (id == nullptr)
 168              		.loc 1 40 1 is_stmt 0
 169 00dc 130101FE 		addi	sp,sp,-32
 170              		.cfi_def_cfa_offset 32
 171 00e0 233C1100 		sd	ra,24(sp)
 172 00e4 23388100 		sd	s0,16(sp)
 173 00e8 23349100 		sd	s1,8(sp)
 174              		.cfi_offset 1, -8
 175              		.cfi_offset 8, -16
 176              		.cfi_offset 9, -24
 177 00ec 13040102 		addi	s0,sp,32
 178              		.cfi_def_cfa 8, 0
  44:src/sem.cpp   **** 
 179              		.loc 1 44 5 is_stmt 1
  44:src/sem.cpp   **** 
GAS LISTING /tmp/cc08WeYu.s 			page 6


 180              		.loc 1 44 9 is_stmt 0
 181 00f0 83270501 		lw	a5,16(a0)
  44:src/sem.cpp   **** 
 182              		.loc 1 44 12
 183 00f4 9B87F7FF 		addiw	a5,a5,-1
 184 00f8 2328F500 		sw	a5,16(a0)
  46:src/sem.cpp   **** 
 185              		.loc 1 46 5 is_stmt 1
  46:src/sem.cpp   **** 
 186              		.loc 1 46 14 is_stmt 0
 187 00fc 17070000 		la	a4,_ZN7_thread7runningE
 187      03370700 
 188 0104 83340700 		ld	s1,0(a4)
 189              	.LVL13:
  48:src/sem.cpp   ****         id->addLast(_thread::running);
 190              		.loc 1 48 5 is_stmt 1
 191 0108 13970702 		slli	a4,a5,32
 192 010c 63480704 		bltz	a4,.L20
  51:src/sem.cpp   **** 
 193              		.loc 1 51 9
  51:src/sem.cpp   **** 
 194              		.loc 1 51 23 is_stmt 0
 195 0110 13850400 		mv	a0,s1
 196              	.LVL14:
 197 0114 97000000 		call	_ZN9Scheduler3putEP7_thread@plt
 197      E7800000 
 198              	.LVL15:
 199              	.L13:
  53:src/sem.cpp   **** 
 200              		.loc 1 53 5 is_stmt 1
  53:src/sem.cpp   **** 
 201              		.loc 1 53 38 is_stmt 0
 202 011c 97000000 		call	_ZN9Scheduler3getEv@plt
 202      E7800000 
 203              	.LVL16:
  53:src/sem.cpp   **** 
 204              		.loc 1 53 22
 205 0124 97070000 		la	a5,_ZN7_thread7runningE
 205      83B70700 
 206 012c 23B0A700 		sd	a0,0(a5)
  55:src/sem.cpp   ****         contextSwitch(&old->context, &_thread::running->context);
 207              		.loc 1 55 5 is_stmt 1
 208 0130 6382A404 		beq	s1,a0,.L15
  56:src/sem.cpp   **** 
 209              		.loc 1 56 9
  56:src/sem.cpp   **** 
 210              		.loc 1 56 22 is_stmt 0
 211 0134 93058501 		addi	a1,a0,24
 212 0138 13858401 		addi	a0,s1,24
 213 013c 97000000 		call	contextSwitch@plt
 213      E7800000 
 214              	.LVL17:
  58:src/sem.cpp   **** }
 215              		.loc 1 58 12
 216 0144 13050000 		li	a0,0
 217              	.L11:
  59:src/sem.cpp   **** 
GAS LISTING /tmp/cc08WeYu.s 			page 7


 218              		.loc 1 59 1
 219 0148 83308101 		ld	ra,24(sp)
 220              		.cfi_remember_state
 221              		.cfi_restore 1
 222 014c 03340101 		ld	s0,16(sp)
 223              		.cfi_restore 8
 224              		.cfi_def_cfa 2, 32
 225 0150 83348100 		ld	s1,8(sp)
 226              		.cfi_restore 9
 227              	.LVL18:
 228 0154 13010102 		addi	sp,sp,32
 229              		.cfi_def_cfa_offset 0
 230 0158 67800000 		jr	ra
 231              	.LVL19:
 232              	.L20:
 233              		.cfi_restore_state
  49:src/sem.cpp   ****     else
 234              		.loc 1 49 9 is_stmt 1
  49:src/sem.cpp   ****     else
 235              		.loc 1 49 20 is_stmt 0
 236 015c 93850400 		mv	a1,s1
 237 0160 97000000 		call	_ZN4_sem7addLastEP7_thread
 237      E7800000 
 238              	.LVL20:
 239 0168 6FF05FFB 		j	.L13
 240              	.LVL21:
 241              	.L14:
 242              		.cfi_def_cfa_register 2
 243              		.cfi_restore 1
 244              		.cfi_restore 8
 245              		.cfi_restore 9
  42:src/sem.cpp   **** 
 246              		.loc 1 42 17
 247 016c 1305F0FF 		li	a0,-1
 248              	.LVL22:
  59:src/sem.cpp   **** 
 249              		.loc 1 59 1
 250 0170 67800000 		ret
 251              	.LVL23:
 252              	.L15:
 253              		.cfi_def_cfa_register 8
 254              		.cfi_offset 1, -8
 255              		.cfi_offset 8, -16
 256              		.cfi_offset 9, -24
  58:src/sem.cpp   **** }
 257              		.loc 1 58 12
 258 0174 13050000 		li	a0,0
 259 0178 6FF01FFD 		j	.L11
 260              		.cfi_endproc
 261              	.LFE32:
 263              		.align	2
 264              		.globl	_ZN4_sem11removeFirstEv
 266              	_ZN4_sem11removeFirstEv:
 267              	.LFB35:
 100:src/sem.cpp   **** 
 101:src/sem.cpp   **** _thread *_sem::removeFirst() {
 268              		.loc 1 101 30 is_stmt 1
GAS LISTING /tmp/cc08WeYu.s 			page 8


 269              		.cfi_startproc
 270              	.LVL24:
 271 017c 130101FE 		addi	sp,sp,-32
 272              		.cfi_def_cfa_offset 32
 273 0180 233C1100 		sd	ra,24(sp)
 274 0184 23388100 		sd	s0,16(sp)
 275 0188 23349100 		sd	s1,8(sp)
 276              		.cfi_offset 1, -8
 277              		.cfi_offset 8, -16
 278              		.cfi_offset 9, -24
 279 018c 13040102 		addi	s0,sp,32
 280              		.cfi_def_cfa 8, 0
 281 0190 93070500 		mv	a5,a0
 102:src/sem.cpp   ****     if (head == nullptr) { return 0; }
 282              		.loc 1 102 5
 283              		.loc 1 102 9 is_stmt 0
 284 0194 03350500 		ld	a0,0(a0)
 285              	.LVL25:
 286              		.loc 1 102 5
 287 0198 630E0502 		beqz	a0,.L24
 103:src/sem.cpp   **** 
 104:src/sem.cpp   ****     Elem *elem = head;
 288              		.loc 1 104 5 is_stmt 1
 289              	.LVL26:
 105:src/sem.cpp   ****     head = head->next;
 290              		.loc 1 105 5
 291              		.loc 1 105 18 is_stmt 0
 292 019c 03378500 		ld	a4,8(a0)
 293              		.loc 1 105 10
 294 01a0 23B0E700 		sd	a4,0(a5)
 106:src/sem.cpp   ****     if (head == nullptr) { tail = nullptr; }
 295              		.loc 1 106 5 is_stmt 1
 296 01a4 63040702 		beqz	a4,.L26
 297              	.L23:
 107:src/sem.cpp   **** 
 108:src/sem.cpp   ****     _thread* ret = elem->data;
 298              		.loc 1 108 5
 299              		.loc 1 108 14 is_stmt 0
 300 01a8 83340500 		ld	s1,0(a0)
 301              	.LVL27:
 109:src/sem.cpp   ****      delete elem;
 302              		.loc 1 109 6 is_stmt 1
 303              	.LBB4:
 304              	.LBB5:
 305              		.file 2 "src/../h/sem.hpp"
   1:src/../h/sem.hpp **** //
   2:src/../h/sem.hpp **** // Created by os on 8/17/23.
   3:src/../h/sem.hpp **** //
   4:src/../h/sem.hpp **** 
   5:src/../h/sem.hpp **** #ifndef PROJECT_BASE_SEM_HPP
   6:src/../h/sem.hpp **** #define PROJECT_BASE_SEM_HPP
   7:src/../h/sem.hpp **** 
   8:src/../h/sem.hpp **** #include "list.hpp"
   9:src/../h/sem.hpp **** #include "thread.hpp"
  10:src/../h/sem.hpp **** 
  11:src/../h/sem.hpp **** struct _sem
  12:src/../h/sem.hpp **** {
GAS LISTING /tmp/cc08WeYu.s 			page 9


  13:src/../h/sem.hpp ****     // List<_thread> queue;
  14:src/../h/sem.hpp **** 
  15:src/../h/sem.hpp ****     struct Elem{
  16:src/../h/sem.hpp ****         _thread* data;
  17:src/../h/sem.hpp ****         Elem* next;
  18:src/../h/sem.hpp **** 
  19:src/../h/sem.hpp ****         void* operator new(size_t size) {
  20:src/../h/sem.hpp ****             size_t blockNum = MemoryAllocator::convert2Blocks(size);
  21:src/../h/sem.hpp ****             void* ptr = MemoryAllocator::mem_alloc(blockNum);
  22:src/../h/sem.hpp ****             return ptr;
  23:src/../h/sem.hpp ****         }
  24:src/../h/sem.hpp ****         void operator delete(void* ptr) {
  25:src/../h/sem.hpp ****             MemoryAllocator::mem_free(ptr);
 306              		.loc 2 25 13
 307              		.loc 2 25 38 is_stmt 0
 308 01ac 97000000 		call	_ZN15MemoryAllocator8mem_freeEPv@plt
 308      E7800000 
 309              	.LVL28:
 310              	.LBE5:
 311              	.LBE4:
 110:src/sem.cpp   ****     //MemoryAllocator::mem_free(elem);
 111:src/sem.cpp   **** 
 112:src/sem.cpp   ****     return ret;
 312              		.loc 1 112 5 is_stmt 1
 313              	.L21:
 113:src/sem.cpp   **** }
 314              		.loc 1 113 1 is_stmt 0
 315 01b4 13850400 		mv	a0,s1
 316 01b8 83308101 		ld	ra,24(sp)
 317              		.cfi_remember_state
 318              		.cfi_restore 1
 319 01bc 03340101 		ld	s0,16(sp)
 320              		.cfi_restore 8
 321              		.cfi_def_cfa 2, 32
 322 01c0 83348100 		ld	s1,8(sp)
 323              		.cfi_restore 9
 324 01c4 13010102 		addi	sp,sp,32
 325              		.cfi_def_cfa_offset 0
 326 01c8 67800000 		jr	ra
 327              	.LVL29:
 328              	.L26:
 329              		.cfi_restore_state
 106:src/sem.cpp   **** 
 330              		.loc 1 106 28 is_stmt 1 discriminator 1
 106:src/sem.cpp   **** 
 331              		.loc 1 106 33 is_stmt 0 discriminator 1
 332 01cc 23B40700 		sd	zero,8(a5)
 333 01d0 6FF09FFD 		j	.L23
 334              	.LVL30:
 335              	.L24:
 102:src/sem.cpp   **** 
 336              		.loc 1 102 35
 337 01d4 93040500 		mv	s1,a0
 338 01d8 6FF0DFFD 		j	.L21
 339              		.cfi_endproc
 340              	.LFE35:
 342              		.align	2
GAS LISTING /tmp/cc08WeYu.s 			page 10


 343              		.globl	_ZNK4_sem9peekFirstEv
 345              	_ZNK4_sem9peekFirstEv:
 346              	.LFB36:
 114:src/sem.cpp   **** 
 115:src/sem.cpp   **** _thread* _sem::peekFirst() const {
 347              		.loc 1 115 34 is_stmt 1
 348              		.cfi_startproc
 349              	.LVL31:
 350 01dc 130101FF 		addi	sp,sp,-16
 351              		.cfi_def_cfa_offset 16
 352 01e0 23348100 		sd	s0,8(sp)
 353              		.cfi_offset 8, -8
 354 01e4 13040101 		addi	s0,sp,16
 355              		.cfi_def_cfa 8, 0
 116:src/sem.cpp   ****     if (head == nullptr)
 356              		.loc 1 116 5
 357              		.loc 1 116 9 is_stmt 0
 358 01e8 03350500 		ld	a0,0(a0)
 359              	.LVL32:
 360              		.loc 1 116 5
 361 01ec 63040500 		beqz	a0,.L27
 117:src/sem.cpp   ****         return nullptr;
 118:src/sem.cpp   **** 
 119:src/sem.cpp   ****     return head->data;
 362              		.loc 1 119 5 is_stmt 1
 363              		.loc 1 119 18 is_stmt 0
 364 01f0 03350500 		ld	a0,0(a0)
 365              	.L27:
 120:src/sem.cpp   **** }
 366              		.loc 1 120 1
 367 01f4 03348100 		ld	s0,8(sp)
 368              		.cfi_restore 8
 369              		.cfi_def_cfa 2, 16
 370 01f8 13010101 		addi	sp,sp,16
 371              		.cfi_def_cfa_offset 0
 372 01fc 67800000 		jr	ra
 373              		.cfi_endproc
 374              	.LFE36:
 376              		.align	2
 377              		.globl	_ZN4_sem8semCloseEPS_
 379              	_ZN4_sem8semCloseEPS_:
 380              	.LFB31:
  22:src/sem.cpp   ****     if (handle == nullptr) // error: sem is nullptr
 381              		.loc 1 22 1 is_stmt 1
 382              		.cfi_startproc
 383              	.LVL33:
 384 0200 130101FE 		addi	sp,sp,-32
 385              		.cfi_def_cfa_offset 32
 386 0204 233C1100 		sd	ra,24(sp)
 387 0208 23388100 		sd	s0,16(sp)
 388 020c 23349100 		sd	s1,8(sp)
 389              		.cfi_offset 1, -8
 390              		.cfi_offset 8, -16
 391              		.cfi_offset 9, -24
 392 0210 13040102 		addi	s0,sp,32
 393              		.cfi_def_cfa 8, 0
 394 0214 93040500 		mv	s1,a0
GAS LISTING /tmp/cc08WeYu.s 			page 11


  23:src/sem.cpp   ****         return -1;
 395              		.loc 1 23 5
 396 0218 630C0504 		beqz	a0,.L34
 397              	.LVL34:
 398              	.L33:
  27:src/sem.cpp   ****     {
 399              		.loc 1 27 5
  27:src/sem.cpp   ****     {
 400              		.loc 1 27 30
  27:src/sem.cpp   ****     {
 401              		.loc 1 27 29 is_stmt 0
 402 021c 13850400 		mv	a0,s1
 403 0220 97000000 		call	_ZNK4_sem9peekFirstEv
 403      E7800000 
 404              	.LVL35:
  27:src/sem.cpp   ****     {
 405              		.loc 1 27 30
 406 0228 63020502 		beqz	a0,.L32
  29:src/sem.cpp   ****         Scheduler::put(handle->removeFirst());
 407              		.loc 1 29 9 is_stmt 1
  29:src/sem.cpp   ****         Scheduler::put(handle->removeFirst());
 408              		.loc 1 29 41 is_stmt 0
 409 022c 9307F0FF 		li	a5,-1
 410 0230 232CF502 		sw	a5,56(a0)
  30:src/sem.cpp   ****     }
 411              		.loc 1 30 9 is_stmt 1
  30:src/sem.cpp   ****     }
 412              		.loc 1 30 23 is_stmt 0
 413 0234 13850400 		mv	a0,s1
 414 0238 97000000 		call	_ZN4_sem11removeFirstEv
 414      E7800000 
 415              	.LVL36:
 416 0240 97000000 		call	_ZN9Scheduler3putEP7_thread@plt
 416      E7800000 
 417              	.LVL37:
  27:src/sem.cpp   ****     {
 418              		.loc 1 27 5
 419 0248 6FF05FFD 		j	.L33
 420              	.L32:
  33:src/sem.cpp   **** 
 421              		.loc 1 33 5 is_stmt 1
  33:src/sem.cpp   **** 
 422              		.loc 1 33 30 is_stmt 0
 423 024c 13850400 		mv	a0,s1
 424 0250 97000000 		call	_ZN15MemoryAllocator8mem_freeEPv@plt
 424      E7800000 
 425              	.LVL38:
  35:src/sem.cpp   **** }
 426              		.loc 1 35 5 is_stmt 1
  35:src/sem.cpp   **** }
 427              		.loc 1 35 12 is_stmt 0
 428 0258 13050000 		li	a0,0
 429              	.L31:
  36:src/sem.cpp   **** 
 430              		.loc 1 36 1
 431 025c 83308101 		ld	ra,24(sp)
 432              		.cfi_remember_state
GAS LISTING /tmp/cc08WeYu.s 			page 12


 433              		.cfi_restore 1
 434 0260 03340101 		ld	s0,16(sp)
 435              		.cfi_restore 8
 436              		.cfi_def_cfa 2, 32
 437 0264 83348100 		ld	s1,8(sp)
 438              		.cfi_restore 9
 439              	.LVL39:
 440 0268 13010102 		addi	sp,sp,32
 441              		.cfi_def_cfa_offset 0
 442 026c 67800000 		jr	ra
 443              	.LVL40:
 444              	.L34:
 445              		.cfi_restore_state
  24:src/sem.cpp   **** 
 446              		.loc 1 24 17
 447 0270 1305F0FF 		li	a0,-1
 448 0274 6FF09FFE 		j	.L31
 449              		.cfi_endproc
 450              	.LFE31:
 452              		.align	2
 453              		.globl	_ZN4_sem9semSignalEPS_
 455              	_ZN4_sem9semSignalEPS_:
 456              	.LFB33:
  62:src/sem.cpp   ****     if (id == nullptr) // id is nullptr
 457              		.loc 1 62 1 is_stmt 1
 458              		.cfi_startproc
 459              	.LVL41:
  63:src/sem.cpp   ****         return -1;
 460              		.loc 1 63 5
 461 0278 63060506 		beqz	a0,.L39
  62:src/sem.cpp   ****     if (id == nullptr) // id is nullptr
 462              		.loc 1 62 1 is_stmt 0
 463 027c 130101FE 		addi	sp,sp,-32
 464              		.cfi_def_cfa_offset 32
 465 0280 233C1100 		sd	ra,24(sp)
 466 0284 23388100 		sd	s0,16(sp)
 467 0288 23349100 		sd	s1,8(sp)
 468              		.cfi_offset 1, -8
 469              		.cfi_offset 8, -16
 470              		.cfi_offset 9, -24
 471 028c 13040102 		addi	s0,sp,32
 472              		.cfi_def_cfa 8, 0
 473 0290 93040500 		mv	s1,a0
  67:src/sem.cpp   ****     {
 474              		.loc 1 67 5 is_stmt 1
  67:src/sem.cpp   ****     {
 475              		.loc 1 67 22 is_stmt 0
 476 0294 97000000 		call	_ZNK4_sem9peekFirstEv
 476      E7800000 
 477              	.LVL42:
  67:src/sem.cpp   ****     {
 478              		.loc 1 67 5
 479 029c 630A0502 		beqz	a0,.L38
  69:src/sem.cpp   ****         Scheduler::put(id->removeFirst());
 480              		.loc 1 69 9 is_stmt 1
  69:src/sem.cpp   ****         Scheduler::put(id->removeFirst());
 481              		.loc 1 69 37 is_stmt 0
GAS LISTING /tmp/cc08WeYu.s 			page 13


 482 02a0 232C0502 		sw	zero,56(a0)
  70:src/sem.cpp   ****     }
 483              		.loc 1 70 9 is_stmt 1
  70:src/sem.cpp   ****     }
 484              		.loc 1 70 23 is_stmt 0
 485 02a4 13850400 		mv	a0,s1
 486 02a8 97000000 		call	_ZN4_sem11removeFirstEv
 486      E7800000 
 487              	.LVL43:
 488 02b0 97000000 		call	_ZN9Scheduler3putEP7_thread@plt
 488      E7800000 
 489              	.LVL44:
  75:src/sem.cpp   **** }
 490              		.loc 1 75 12
 491 02b8 13050000 		li	a0,0
 492              	.L37:
  76:src/sem.cpp   **** 
 493              		.loc 1 76 1
 494 02bc 83308101 		ld	ra,24(sp)
 495              		.cfi_remember_state
 496              		.cfi_restore 1
 497 02c0 03340101 		ld	s0,16(sp)
 498              		.cfi_restore 8
 499              		.cfi_def_cfa 2, 32
 500 02c4 83348100 		ld	s1,8(sp)
 501              		.cfi_restore 9
 502              	.LVL45:
 503 02c8 13010102 		addi	sp,sp,32
 504              		.cfi_def_cfa_offset 0
 505 02cc 67800000 		jr	ra
 506              	.LVL46:
 507              	.L38:
 508              		.cfi_restore_state
  73:src/sem.cpp   **** 
 509              		.loc 1 73 9 is_stmt 1
  73:src/sem.cpp   **** 
 510              		.loc 1 73 13 is_stmt 0
 511 02d0 83A70401 		lw	a5,16(s1)
  73:src/sem.cpp   **** 
 512              		.loc 1 73 16
 513 02d4 9B871700 		addiw	a5,a5,1
 514 02d8 23A8F400 		sw	a5,16(s1)
  75:src/sem.cpp   **** }
 515              		.loc 1 75 12
 516 02dc 13050000 		li	a0,0
 517 02e0 6FF0DFFD 		j	.L37
 518              	.LVL47:
 519              	.L39:
 520              		.cfi_def_cfa_register 2
 521              		.cfi_restore 1
 522              		.cfi_restore 8
 523              		.cfi_restore 9
  64:src/sem.cpp   **** 
 524              		.loc 1 64 17
 525 02e4 1305F0FF 		li	a0,-1
 526              	.LVL48:
  76:src/sem.cpp   **** 
GAS LISTING /tmp/cc08WeYu.s 			page 14


 527              		.loc 1 76 1
 528 02e8 67800000 		ret
 529              		.cfi_endproc
 530              	.LFE33:
 532              	.Letext0:
 533              		.file 3 "src/../h/../lib/hw.h"
 534              		.file 4 "src/../h/MemoryAllocator.hpp"
 535              		.file 5 "src/../h/thread.hpp"
 536              		.file 6 "src/../h/scheduler.hpp"
GAS LISTING /tmp/cc08WeYu.s 			page 15


DEFINED SYMBOLS
                            *ABS*:0000000000000000 sem.cpp
     /tmp/cc08WeYu.s:9      .text:0000000000000000 _ZN4_sem7semOpenEPPS_j
     /tmp/cc08WeYu.s:13     .text:0000000000000000 .L0 
     /tmp/cc08WeYu.s:15     .text:0000000000000000 .L0 
     /tmp/cc08WeYu.s:16     .text:0000000000000004 .L0 
     /tmp/cc08WeYu.s:21     .text:0000000000000014 .L0 
     /tmp/cc08WeYu.s:22     .text:0000000000000014 .L0 
     /tmp/cc08WeYu.s:23     .text:0000000000000014 .L0 
     /tmp/cc08WeYu.s:24     .text:0000000000000014 .L0 
     /tmp/cc08WeYu.s:26     .text:0000000000000018 .L0 
     /tmp/cc08WeYu.s:30     .text:0000000000000020 .L0 
     /tmp/cc08WeYu.s:31     .text:0000000000000020 .L0 
     /tmp/cc08WeYu.s:36     .text:000000000000002c .L0 
     /tmp/cc08WeYu.s:38     .text:0000000000000030 .L0 
     /tmp/cc08WeYu.s:39     .text:0000000000000030 .L0 
     /tmp/cc08WeYu.s:41     .text:0000000000000034 .L0 
     /tmp/cc08WeYu.s:42     .text:0000000000000034 .L0 
     /tmp/cc08WeYu.s:44     .text:0000000000000038 .L0 
     /tmp/cc08WeYu.s:46     .text:000000000000003c .L0 
     /tmp/cc08WeYu.s:47     .text:000000000000003c .L0 
     /tmp/cc08WeYu.s:49     .text:0000000000000040 .L0 
     /tmp/cc08WeYu.s:51     .text:0000000000000044 .L0 
     /tmp/cc08WeYu.s:52     .text:0000000000000044 .L0 
     /tmp/cc08WeYu.s:54     .text:000000000000004c .L0 
     /tmp/cc08WeYu.s:56     .text:0000000000000050 .L0 
     /tmp/cc08WeYu.s:57     .text:0000000000000050 .L0 
     /tmp/cc08WeYu.s:59     .text:0000000000000054 .L0 
     /tmp/cc08WeYu.s:62     .text:0000000000000058 .L0 
     /tmp/cc08WeYu.s:64     .text:000000000000005c .L0 
     /tmp/cc08WeYu.s:66     .text:0000000000000060 .L0 
     /tmp/cc08WeYu.s:72     .text:0000000000000060 _ZN4_sem7addLastEP7_thread
     /tmp/cc08WeYu.s:75     .text:0000000000000060 .L0 
     /tmp/cc08WeYu.s:77     .text:0000000000000060 .L0 
     /tmp/cc08WeYu.s:78     .text:0000000000000060 .L0 
     /tmp/cc08WeYu.s:80     .text:0000000000000064 .L0 
     /tmp/cc08WeYu.s:81     .text:0000000000000068 .L0 
     /tmp/cc08WeYu.s:86     .text:0000000000000078 .L0 
     /tmp/cc08WeYu.s:87     .text:0000000000000078 .L0 
     /tmp/cc08WeYu.s:88     .text:0000000000000078 .L0 
     /tmp/cc08WeYu.s:89     .text:0000000000000078 .L0 
     /tmp/cc08WeYu.s:91     .text:000000000000007c .L0 
     /tmp/cc08WeYu.s:95     .text:0000000000000084 .L0 
     /tmp/cc08WeYu.s:96     .text:0000000000000084 .L0 
     /tmp/cc08WeYu.s:101    .text:0000000000000090 .L0 
     /tmp/cc08WeYu.s:102    .text:0000000000000090 .L0 
     /tmp/cc08WeYu.s:105    .text:0000000000000098 .L0 
     /tmp/cc08WeYu.s:106    .text:0000000000000098 .L0 
     /tmp/cc08WeYu.s:108    .text:000000000000009c .L0 
     /tmp/cc08WeYu.s:109    .text:000000000000009c .L0 
     /tmp/cc08WeYu.s:111    .text:00000000000000a0 .L0 
     /tmp/cc08WeYu.s:112    .text:00000000000000a0 .L0 
     /tmp/cc08WeYu.s:114    .text:00000000000000a4 .L0 
     /tmp/cc08WeYu.s:116    .text:00000000000000a8 .L0 
     /tmp/cc08WeYu.s:117    .text:00000000000000a8 .L0 
     /tmp/cc08WeYu.s:119    .text:00000000000000ac .L0 
     /tmp/cc08WeYu.s:120    .text:00000000000000ac .L0 
GAS LISTING /tmp/cc08WeYu.s 			page 16


     /tmp/cc08WeYu.s:123    .text:00000000000000b0 .L0 
     /tmp/cc08WeYu.s:124    .text:00000000000000b4 .L0 
     /tmp/cc08WeYu.s:125    .text:00000000000000b4 .L0 
     /tmp/cc08WeYu.s:127    .text:00000000000000b8 .L0 
     /tmp/cc08WeYu.s:128    .text:00000000000000b8 .L0 
     /tmp/cc08WeYu.s:130    .text:00000000000000bc .L0 
     /tmp/cc08WeYu.s:133    .text:00000000000000c0 .L0 
     /tmp/cc08WeYu.s:136    .text:00000000000000c4 .L0 
     /tmp/cc08WeYu.s:140    .text:00000000000000c8 .L0 
     /tmp/cc08WeYu.s:142    .text:00000000000000c8 .L0 
     /tmp/cc08WeYu.s:143    .text:00000000000000c8 .L0 
     /tmp/cc08WeYu.s:145    .text:00000000000000cc .L0 
     /tmp/cc08WeYu.s:149    .text:00000000000000d4 .L0 
     /tmp/cc08WeYu.s:150    .text:00000000000000d4 .L0 
     /tmp/cc08WeYu.s:151    .text:00000000000000d4 .L0 
     /tmp/cc08WeYu.s:152    .text:00000000000000d4 .L0 
     /tmp/cc08WeYu.s:153    .text:00000000000000d4 .L0 
     /tmp/cc08WeYu.s:155    .text:00000000000000d8 .L0 
     /tmp/cc08WeYu.s:161    .text:00000000000000d8 _ZN4_sem7semWaitEPS_
     /tmp/cc08WeYu.s:164    .text:00000000000000d8 .L0 
     /tmp/cc08WeYu.s:166    .text:00000000000000d8 .L0 
     /tmp/cc08WeYu.s:167    .text:00000000000000d8 .L0 
     /tmp/cc08WeYu.s:169    .text:00000000000000dc .L0 
     /tmp/cc08WeYu.s:170    .text:00000000000000e0 .L0 
     /tmp/cc08WeYu.s:174    .text:00000000000000ec .L0 
     /tmp/cc08WeYu.s:175    .text:00000000000000ec .L0 
     /tmp/cc08WeYu.s:176    .text:00000000000000ec .L0 
     /tmp/cc08WeYu.s:178    .text:00000000000000f0 .L0 
     /tmp/cc08WeYu.s:180    .text:00000000000000f0 .L0 
     /tmp/cc08WeYu.s:181    .text:00000000000000f0 .L0 
     /tmp/cc08WeYu.s:183    .text:00000000000000f4 .L0 
     /tmp/cc08WeYu.s:186    .text:00000000000000fc .L0 
     /tmp/cc08WeYu.s:187    .text:00000000000000fc .L0 
     /tmp/cc08WeYu.s:191    .text:0000000000000108 .L0 
     /tmp/cc08WeYu.s:194    .text:0000000000000110 .L0 
     /tmp/cc08WeYu.s:195    .text:0000000000000110 .L0 
     /tmp/cc08WeYu.s:201    .text:000000000000011c .L0 
     /tmp/cc08WeYu.s:202    .text:000000000000011c .L0 
     /tmp/cc08WeYu.s:205    .text:0000000000000124 .L0 
     /tmp/cc08WeYu.s:208    .text:0000000000000130 .L0 
     /tmp/cc08WeYu.s:210    .text:0000000000000134 .L0 
     /tmp/cc08WeYu.s:211    .text:0000000000000134 .L0 
     /tmp/cc08WeYu.s:216    .text:0000000000000144 .L0 
     /tmp/cc08WeYu.s:219    .text:0000000000000148 .L0 
     /tmp/cc08WeYu.s:220    .text:000000000000014c .L0 
     /tmp/cc08WeYu.s:221    .text:000000000000014c .L0 
     /tmp/cc08WeYu.s:223    .text:0000000000000150 .L0 
     /tmp/cc08WeYu.s:224    .text:0000000000000150 .L0 
     /tmp/cc08WeYu.s:226    .text:0000000000000154 .L0 
     /tmp/cc08WeYu.s:229    .text:0000000000000158 .L0 
     /tmp/cc08WeYu.s:233    .text:000000000000015c .L0 
     /tmp/cc08WeYu.s:235    .text:000000000000015c .L0 
     /tmp/cc08WeYu.s:236    .text:000000000000015c .L0 
     /tmp/cc08WeYu.s:242    .text:000000000000016c .L0 
     /tmp/cc08WeYu.s:243    .text:000000000000016c .L0 
     /tmp/cc08WeYu.s:244    .text:000000000000016c .L0 
     /tmp/cc08WeYu.s:245    .text:000000000000016c .L0 
GAS LISTING /tmp/cc08WeYu.s 			page 17


     /tmp/cc08WeYu.s:247    .text:000000000000016c .L0 
     /tmp/cc08WeYu.s:250    .text:0000000000000170 .L0 
     /tmp/cc08WeYu.s:253    .text:0000000000000174 .L0 
     /tmp/cc08WeYu.s:254    .text:0000000000000174 .L0 
     /tmp/cc08WeYu.s:255    .text:0000000000000174 .L0 
     /tmp/cc08WeYu.s:256    .text:0000000000000174 .L0 
     /tmp/cc08WeYu.s:258    .text:0000000000000174 .L0 
     /tmp/cc08WeYu.s:260    .text:000000000000017c .L0 
     /tmp/cc08WeYu.s:266    .text:000000000000017c _ZN4_sem11removeFirstEv
     /tmp/cc08WeYu.s:269    .text:000000000000017c .L0 
     /tmp/cc08WeYu.s:271    .text:000000000000017c .L0 
     /tmp/cc08WeYu.s:272    .text:0000000000000180 .L0 
     /tmp/cc08WeYu.s:276    .text:000000000000018c .L0 
     /tmp/cc08WeYu.s:277    .text:000000000000018c .L0 
     /tmp/cc08WeYu.s:278    .text:000000000000018c .L0 
     /tmp/cc08WeYu.s:280    .text:0000000000000190 .L0 
     /tmp/cc08WeYu.s:283    .text:0000000000000194 .L0 
     /tmp/cc08WeYu.s:284    .text:0000000000000194 .L0 
     /tmp/cc08WeYu.s:287    .text:0000000000000198 .L0 
     /tmp/cc08WeYu.s:290    .text:000000000000019c .L0 
     /tmp/cc08WeYu.s:291    .text:000000000000019c .L0 
     /tmp/cc08WeYu.s:292    .text:000000000000019c .L0 
     /tmp/cc08WeYu.s:294    .text:00000000000001a0 .L0 
     /tmp/cc08WeYu.s:296    .text:00000000000001a4 .L0 
     /tmp/cc08WeYu.s:299    .text:00000000000001a8 .L0 
     /tmp/cc08WeYu.s:300    .text:00000000000001a8 .L0 
     /tmp/cc08WeYu.s:306    .text:00000000000001ac .L0 
     /tmp/cc08WeYu.s:307    .text:00000000000001ac .L0 
     /tmp/cc08WeYu.s:308    .text:00000000000001ac .L0 
     /tmp/cc08WeYu.s:314    .text:00000000000001b4 .L0 
     /tmp/cc08WeYu.s:315    .text:00000000000001b4 .L0 
     /tmp/cc08WeYu.s:317    .text:00000000000001bc .L0 
     /tmp/cc08WeYu.s:318    .text:00000000000001bc .L0 
     /tmp/cc08WeYu.s:320    .text:00000000000001c0 .L0 
     /tmp/cc08WeYu.s:321    .text:00000000000001c0 .L0 
     /tmp/cc08WeYu.s:323    .text:00000000000001c4 .L0 
     /tmp/cc08WeYu.s:325    .text:00000000000001c8 .L0 
     /tmp/cc08WeYu.s:329    .text:00000000000001cc .L0 
     /tmp/cc08WeYu.s:331    .text:00000000000001cc .L0 
     /tmp/cc08WeYu.s:332    .text:00000000000001cc .L0 
     /tmp/cc08WeYu.s:337    .text:00000000000001d4 .L0 
     /tmp/cc08WeYu.s:339    .text:00000000000001dc .L0 
     /tmp/cc08WeYu.s:345    .text:00000000000001dc _ZNK4_sem9peekFirstEv
     /tmp/cc08WeYu.s:348    .text:00000000000001dc .L0 
     /tmp/cc08WeYu.s:350    .text:00000000000001dc .L0 
     /tmp/cc08WeYu.s:351    .text:00000000000001e0 .L0 
     /tmp/cc08WeYu.s:353    .text:00000000000001e4 .L0 
     /tmp/cc08WeYu.s:355    .text:00000000000001e8 .L0 
     /tmp/cc08WeYu.s:357    .text:00000000000001e8 .L0 
     /tmp/cc08WeYu.s:358    .text:00000000000001e8 .L0 
     /tmp/cc08WeYu.s:361    .text:00000000000001ec .L0 
     /tmp/cc08WeYu.s:363    .text:00000000000001f0 .L0 
     /tmp/cc08WeYu.s:364    .text:00000000000001f0 .L0 
     /tmp/cc08WeYu.s:367    .text:00000000000001f4 .L0 
     /tmp/cc08WeYu.s:368    .text:00000000000001f8 .L0 
     /tmp/cc08WeYu.s:369    .text:00000000000001f8 .L0 
     /tmp/cc08WeYu.s:371    .text:00000000000001fc .L0 
GAS LISTING /tmp/cc08WeYu.s 			page 18


     /tmp/cc08WeYu.s:373    .text:0000000000000200 .L0 
     /tmp/cc08WeYu.s:379    .text:0000000000000200 _ZN4_sem8semCloseEPS_
     /tmp/cc08WeYu.s:382    .text:0000000000000200 .L0 
     /tmp/cc08WeYu.s:384    .text:0000000000000200 .L0 
     /tmp/cc08WeYu.s:385    .text:0000000000000204 .L0 
     /tmp/cc08WeYu.s:389    .text:0000000000000210 .L0 
     /tmp/cc08WeYu.s:390    .text:0000000000000210 .L0 
     /tmp/cc08WeYu.s:391    .text:0000000000000210 .L0 
     /tmp/cc08WeYu.s:393    .text:0000000000000214 .L0 
     /tmp/cc08WeYu.s:396    .text:0000000000000218 .L0 
     /tmp/cc08WeYu.s:400    .text:000000000000021c .L0 
     /tmp/cc08WeYu.s:401    .text:000000000000021c .L0 
     /tmp/cc08WeYu.s:402    .text:000000000000021c .L0 
     /tmp/cc08WeYu.s:406    .text:0000000000000228 .L0 
     /tmp/cc08WeYu.s:408    .text:000000000000022c .L0 
     /tmp/cc08WeYu.s:409    .text:000000000000022c .L0 
     /tmp/cc08WeYu.s:412    .text:0000000000000234 .L0 
     /tmp/cc08WeYu.s:413    .text:0000000000000234 .L0 
     /tmp/cc08WeYu.s:419    .text:0000000000000248 .L0 
     /tmp/cc08WeYu.s:422    .text:000000000000024c .L0 
     /tmp/cc08WeYu.s:423    .text:000000000000024c .L0 
     /tmp/cc08WeYu.s:427    .text:0000000000000258 .L0 
     /tmp/cc08WeYu.s:428    .text:0000000000000258 .L0 
     /tmp/cc08WeYu.s:431    .text:000000000000025c .L0 
     /tmp/cc08WeYu.s:432    .text:0000000000000260 .L0 
     /tmp/cc08WeYu.s:433    .text:0000000000000260 .L0 
     /tmp/cc08WeYu.s:435    .text:0000000000000264 .L0 
     /tmp/cc08WeYu.s:436    .text:0000000000000264 .L0 
     /tmp/cc08WeYu.s:438    .text:0000000000000268 .L0 
     /tmp/cc08WeYu.s:441    .text:000000000000026c .L0 
     /tmp/cc08WeYu.s:445    .text:0000000000000270 .L0 
     /tmp/cc08WeYu.s:447    .text:0000000000000270 .L0 
     /tmp/cc08WeYu.s:449    .text:0000000000000278 .L0 
     /tmp/cc08WeYu.s:455    .text:0000000000000278 _ZN4_sem9semSignalEPS_
     /tmp/cc08WeYu.s:458    .text:0000000000000278 .L0 
     /tmp/cc08WeYu.s:460    .text:0000000000000278 .L0 
     /tmp/cc08WeYu.s:461    .text:0000000000000278 .L0 
     /tmp/cc08WeYu.s:463    .text:000000000000027c .L0 
     /tmp/cc08WeYu.s:464    .text:0000000000000280 .L0 
     /tmp/cc08WeYu.s:468    .text:000000000000028c .L0 
     /tmp/cc08WeYu.s:469    .text:000000000000028c .L0 
     /tmp/cc08WeYu.s:470    .text:000000000000028c .L0 
     /tmp/cc08WeYu.s:472    .text:0000000000000290 .L0 
     /tmp/cc08WeYu.s:475    .text:0000000000000294 .L0 
     /tmp/cc08WeYu.s:476    .text:0000000000000294 .L0 
     /tmp/cc08WeYu.s:479    .text:000000000000029c .L0 
     /tmp/cc08WeYu.s:481    .text:00000000000002a0 .L0 
     /tmp/cc08WeYu.s:482    .text:00000000000002a0 .L0 
     /tmp/cc08WeYu.s:484    .text:00000000000002a4 .L0 
     /tmp/cc08WeYu.s:485    .text:00000000000002a4 .L0 
     /tmp/cc08WeYu.s:491    .text:00000000000002b8 .L0 
     /tmp/cc08WeYu.s:494    .text:00000000000002bc .L0 
     /tmp/cc08WeYu.s:495    .text:00000000000002c0 .L0 
     /tmp/cc08WeYu.s:496    .text:00000000000002c0 .L0 
     /tmp/cc08WeYu.s:498    .text:00000000000002c4 .L0 
     /tmp/cc08WeYu.s:499    .text:00000000000002c4 .L0 
     /tmp/cc08WeYu.s:501    .text:00000000000002c8 .L0 
GAS LISTING /tmp/cc08WeYu.s 			page 19


     /tmp/cc08WeYu.s:504    .text:00000000000002cc .L0 
     /tmp/cc08WeYu.s:508    .text:00000000000002d0 .L0 
     /tmp/cc08WeYu.s:510    .text:00000000000002d0 .L0 
     /tmp/cc08WeYu.s:511    .text:00000000000002d0 .L0 
     /tmp/cc08WeYu.s:513    .text:00000000000002d4 .L0 
     /tmp/cc08WeYu.s:516    .text:00000000000002dc .L0 
     /tmp/cc08WeYu.s:520    .text:00000000000002e4 .L0 
     /tmp/cc08WeYu.s:521    .text:00000000000002e4 .L0 
     /tmp/cc08WeYu.s:522    .text:00000000000002e4 .L0 
     /tmp/cc08WeYu.s:523    .text:00000000000002e4 .L0 
     /tmp/cc08WeYu.s:525    .text:00000000000002e4 .L0 
     /tmp/cc08WeYu.s:528    .text:00000000000002e8 .L0 
     /tmp/cc08WeYu.s:529    .text:00000000000002ec .L0 
     /tmp/cc08WeYu.s:537    .text:00000000000002ec .L0 
     /tmp/cc08WeYu.s:187    .text:00000000000000fc .L0 
     /tmp/cc08WeYu.s:205    .text:0000000000000124 .L0 
     /tmp/cc08WeYu.s:148    .text:00000000000000d4 .L7
     /tmp/cc08WeYu.s:139    .text:00000000000000c8 .L5
     /tmp/cc08WeYu.s:121    .text:00000000000000b0 .L3
     /tmp/cc08WeYu.s:241    .text:000000000000016c .L14
     /tmp/cc08WeYu.s:232    .text:000000000000015c .L20
     /tmp/cc08WeYu.s:252    .text:0000000000000174 .L15
     /tmp/cc08WeYu.s:199    .text:000000000000011c .L13
     /tmp/cc08WeYu.s:217    .text:0000000000000148 .L11
     /tmp/cc08WeYu.s:335    .text:00000000000001d4 .L24
     /tmp/cc08WeYu.s:328    .text:00000000000001cc .L26
     /tmp/cc08WeYu.s:297    .text:00000000000001a8 .L23
     /tmp/cc08WeYu.s:313    .text:00000000000001b4 .L21
     /tmp/cc08WeYu.s:365    .text:00000000000001f4 .L27
     /tmp/cc08WeYu.s:444    .text:0000000000000270 .L34
     /tmp/cc08WeYu.s:420    .text:000000000000024c .L32
     /tmp/cc08WeYu.s:398    .text:000000000000021c .L33
     /tmp/cc08WeYu.s:429    .text:000000000000025c .L31
     /tmp/cc08WeYu.s:519    .text:00000000000002e4 .L39
     /tmp/cc08WeYu.s:507    .text:00000000000002d0 .L38
     /tmp/cc08WeYu.s:492    .text:00000000000002bc .L37
     /tmp/cc08WeYu.s:1473   .debug_abbrev:0000000000000000 .Ldebug_abbrev0
     /tmp/cc08WeYu.s:2688   .debug_str:0000000000000438 .LASF80
     /tmp/cc08WeYu.s:2580   .debug_str:0000000000000132 .LASF81
     /tmp/cc08WeYu.s:2586   .debug_str:000000000000014b .LASF82
     /tmp/cc08WeYu.s:5      .text:0000000000000000 .Ltext0
     /tmp/cc08WeYu.s:532    .text:00000000000002ec .Letext0
     /tmp/cc08WeYu.s:2536   .debug_line:0000000000000000 .Ldebug_line0
     /tmp/cc08WeYu.s:2630   .debug_str:000000000000029b .LASF0
     /tmp/cc08WeYu.s:2640   .debug_str:00000000000002cf .LASF1
     /tmp/cc08WeYu.s:2618   .debug_str:000000000000023e .LASF2
     /tmp/cc08WeYu.s:2604   .debug_str:00000000000001fe .LASF4
     /tmp/cc08WeYu.s:2672   .debug_str:00000000000003bf .LASF3
     /tmp/cc08WeYu.s:2552   .debug_str:0000000000000049 .LASF5
     /tmp/cc08WeYu.s:2644   .debug_str:00000000000002ed .LASF6
     /tmp/cc08WeYu.s:2628   .debug_str:0000000000000288 .LASF7
     /tmp/cc08WeYu.s:2702   .debug_str:0000000000000571 .LASF8
     /tmp/cc08WeYu.s:2594   .debug_str:00000000000001b2 .LASF9
     /tmp/cc08WeYu.s:2656   .debug_str:0000000000000355 .LASF10
     /tmp/cc08WeYu.s:2692   .debug_str:0000000000000508 .LASF11
     /tmp/cc08WeYu.s:2554   .debug_str:0000000000000050 .LASF12
     /tmp/cc08WeYu.s:2544   .debug_str:000000000000001b .LASF13
GAS LISTING /tmp/cc08WeYu.s 			page 20


     /tmp/cc08WeYu.s:2564   .debug_str:00000000000000b5 .LASF14
     /tmp/cc08WeYu.s:2666   .debug_str:000000000000038e .LASF15
     /tmp/cc08WeYu.s:2568   .debug_str:00000000000000d6 .LASF16
     /tmp/cc08WeYu.s:2584   .debug_str:0000000000000143 .LASF20
     /tmp/cc08WeYu.s:2714   .debug_str:00000000000005df .LASF17
     /tmp/cc08WeYu.s:2710   .debug_str:00000000000005af .LASF18
     /tmp/cc08WeYu.s:2682   .debug_str:0000000000000413 .LASF19
     /tmp/cc08WeYu.s:2616   .debug_str:000000000000022e .LASF73
     /tmp/cc08WeYu.s:2542   .debug_str:0000000000000012 .LASF21
     /tmp/cc08WeYu.s:2538   .debug_str:0000000000000000 .LASF22
     /tmp/cc08WeYu.s:2572   .debug_str:0000000000000102 .LASF23
     /tmp/cc08WeYu.s:2578   .debug_str:0000000000000128 .LASF28
     /tmp/cc08WeYu.s:2650   .debug_str:0000000000000319 .LASF30
     /tmp/cc08WeYu.s:2642   .debug_str:00000000000002e2 .LASF83
     /tmp/cc08WeYu.s:2556   .debug_str:0000000000000060 .LASF84
     /tmp/cc08WeYu.s:2674   .debug_str:00000000000003d1 .LASF24
     /tmp/cc08WeYu.s:2678   .debug_str:00000000000003eb .LASF26
     /tmp/cc08WeYu.s:2660   .debug_str:000000000000037b .LASF25
     /tmp/cc08WeYu.s:2592   .debug_str:0000000000000191 .LASF27
     /tmp/cc08WeYu.s:2632   .debug_str:00000000000002a8 .LASF29
     /tmp/cc08WeYu.s:2626   .debug_str:0000000000000261 .LASF31
     /tmp/cc08WeYu.s:2600   .debug_str:00000000000001f1 .LASF32
     /tmp/cc08WeYu.s:2550   .debug_str:0000000000000041 .LASF33
     /tmp/cc08WeYu.s:2608   .debug_str:000000000000020e .LASF34
     /tmp/cc08WeYu.s:2606   .debug_str:0000000000000205 .LASF35
     /tmp/cc08WeYu.s:2634   .debug_str:00000000000002b7 .LASF36
     /tmp/cc08WeYu.s:2610   .debug_str:0000000000000213 .LASF37
     /tmp/cc08WeYu.s:2636   .debug_str:00000000000002bd .LASF38
     /tmp/cc08WeYu.s:2540   .debug_str:0000000000000007 .LASF39
     /tmp/cc08WeYu.s:2562   .debug_str:00000000000000ab .LASF40
     /tmp/cc08WeYu.s:2638   .debug_str:00000000000002c7 .LASF41
     /tmp/cc08WeYu.s:2548   .debug_str:0000000000000034 .LASF42
     /tmp/cc08WeYu.s:2712   .debug_str:00000000000005b4 .LASF43
     /tmp/cc08WeYu.s:2612   .debug_str:000000000000021b .LASF44
     /tmp/cc08WeYu.s:2596   .debug_str:00000000000001c0 .LASF46
     /tmp/cc08WeYu.s:2648   .debug_str:000000000000030a .LASF45
     /tmp/cc08WeYu.s:2700   .debug_str:0000000000000553 .LASF47
     /tmp/cc08WeYu.s:2582   .debug_str:000000000000013e .LASF48
     /tmp/cc08WeYu.s:2602   .debug_str:00000000000001f9 .LASF49
     /tmp/cc08WeYu.s:2614   .debug_str:0000000000000229 .LASF50
     /tmp/cc08WeYu.s:2664   .debug_str:0000000000000389 .LASF51
     /tmp/cc08WeYu.s:2706   .debug_str:000000000000058f .LASF52
     /tmp/cc08WeYu.s:2686   .debug_str:0000000000000426 .LASF53
     /tmp/cc08WeYu.s:2676   .debug_str:00000000000003db .LASF54
     /tmp/cc08WeYu.s:2708   .debug_str:000000000000059c .LASF55
     /tmp/cc08WeYu.s:2560   .debug_str:000000000000008d .LASF56
     /tmp/cc08WeYu.s:2622   .debug_str:0000000000000254 .LASF57
     /tmp/cc08WeYu.s:2620   .debug_str:000000000000024c .LASF58
     /tmp/cc08WeYu.s:2574   .debug_str:0000000000000107 .LASF59
     /tmp/cc08WeYu.s:2690   .debug_str:00000000000004fc .LASF60
     /tmp/cc08WeYu.s:2696   .debug_str:000000000000051f .LASF61
     /tmp/cc08WeYu.s:2558   .debug_str:0000000000000083 .LASF62
     /tmp/cc08WeYu.s:2668   .debug_str:00000000000003a4 .LASF63
     /tmp/cc08WeYu.s:2694   .debug_str:0000000000000517 .LASF64
     /tmp/cc08WeYu.s:2658   .debug_str:0000000000000364 .LASF65
     /tmp/cc08WeYu.s:2624   .debug_str:0000000000000259 .LASF66
     /tmp/cc08WeYu.s:2566   .debug_str:00000000000000c1 .LASF67
GAS LISTING /tmp/cc08WeYu.s 			page 21


     /tmp/cc08WeYu.s:2646   .debug_str:0000000000000300 .LASF68
     /tmp/cc08WeYu.s:2590   .debug_str:000000000000017a .LASF69
     /tmp/cc08WeYu.s:2654   .debug_str:000000000000034c .LASF70
     /tmp/cc08WeYu.s:2570   .debug_str:00000000000000ec .LASF71
     /tmp/cc08WeYu.s:2576   .debug_str:0000000000000122 .LASF72
     /tmp/cc08WeYu.s:2652   .debug_str:0000000000000342 .LASF74
     /tmp/cc08WeYu.s:2588   .debug_str:0000000000000169 .LASF85
     /tmp/cc08WeYu.s:2598   .debug_str:00000000000001dd .LASF86
     /tmp/cc08WeYu.s:2698   .debug_str:0000000000000537 .LASF87
     /tmp/cc08WeYu.s:2684   .debug_str:0000000000000418 .LASF88
     /tmp/cc08WeYu.s:346    .text:00000000000001dc .LFB36
     /tmp/cc08WeYu.s:374    .text:0000000000000200 .LFE36
     /tmp/cc08WeYu.s:2662   .debug_str:0000000000000384 .LASF75
     /tmp/cc08WeYu.s:2258   .debug_loc:0000000000000000 .LLST12
     /tmp/cc08WeYu.s:267    .text:000000000000017c .LFB35
     /tmp/cc08WeYu.s:340    .text:00000000000001dc .LFE35
     /tmp/cc08WeYu.s:2272   .debug_loc:0000000000000039 .LLST8
     /tmp/cc08WeYu.s:2670   .debug_str:00000000000003ba .LASF76
     /tmp/cc08WeYu.s:2294   .debug_loc:0000000000000098 .LLST9
     /tmp/cc08WeYu.s:2305   .debug_loc:00000000000000ce .LLST10
     /tmp/cc08WeYu.s:303    .text:00000000000001ac .LBB4
     /tmp/cc08WeYu.s:311    .text:00000000000001b4 .LBE4
     /tmp/cc08WeYu.s:2312   .debug_loc:00000000000000f1 .LLST11
     /tmp/cc08WeYu.s:309    .text:00000000000001b4 .LVL28
     /tmp/cc08WeYu.s:73     .text:0000000000000060 .LFB34
     /tmp/cc08WeYu.s:156    .text:00000000000000d8 .LFE34
     /tmp/cc08WeYu.s:2319   .debug_loc:0000000000000114 .LLST2
     /tmp/cc08WeYu.s:2345   .debug_loc:0000000000000186 .LLST3
     /tmp/cc08WeYu.s:2546   .debug_str:000000000000002b .LASF77
     /tmp/cc08WeYu.s:2371   .debug_loc:00000000000001f8 .LLST4
     /tmp/cc08WeYu.s:2378   .debug_loc:000000000000021b .LLST5
     /tmp/cc08WeYu.s:99     .text:0000000000000090 .LVL6
     /tmp/cc08WeYu.s:103    .text:0000000000000098 .LVL7
     /tmp/cc08WeYu.s:456    .text:0000000000000278 .LFB33
     /tmp/cc08WeYu.s:530    .text:00000000000002ec .LFE33
     /tmp/cc08WeYu.s:2385   .debug_loc:000000000000023e .LLST14
     /tmp/cc08WeYu.s:477    .text:000000000000029c .LVL42
     /tmp/cc08WeYu.s:487    .text:00000000000002b0 .LVL43
     /tmp/cc08WeYu.s:489    .text:00000000000002b8 .LVL44
     /tmp/cc08WeYu.s:162    .text:00000000000000d8 .LFB32
     /tmp/cc08WeYu.s:261    .text:000000000000017c .LFE32
     /tmp/cc08WeYu.s:2418   .debug_loc:00000000000002c6 .LLST6
     /tmp/cc08WeYu.s:2454   .debug_loc:0000000000000351 .LLST7
     /tmp/cc08WeYu.s:198    .text:000000000000011c .LVL15
     /tmp/cc08WeYu.s:203    .text:0000000000000124 .LVL16
     /tmp/cc08WeYu.s:214    .text:0000000000000144 .LVL17
     /tmp/cc08WeYu.s:238    .text:0000000000000168 .LVL20
     /tmp/cc08WeYu.s:380    .text:0000000000000200 .LFB31
     /tmp/cc08WeYu.s:450    .text:0000000000000278 .LFE31
     /tmp/cc08WeYu.s:2680   .debug_str:000000000000040c .LASF78
     /tmp/cc08WeYu.s:2469   .debug_loc:000000000000039a .LLST13
     /tmp/cc08WeYu.s:404    .text:0000000000000228 .LVL35
     /tmp/cc08WeYu.s:415    .text:0000000000000240 .LVL36
     /tmp/cc08WeYu.s:417    .text:0000000000000248 .LVL37
     /tmp/cc08WeYu.s:425    .text:0000000000000258 .LVL38
     /tmp/cc08WeYu.s:10     .text:0000000000000000 .LFB30
     /tmp/cc08WeYu.s:67     .text:0000000000000060 .LFE30
GAS LISTING /tmp/cc08WeYu.s 			page 22


     /tmp/cc08WeYu.s:2491   .debug_loc:00000000000003f9 .LLST0
     /tmp/cc08WeYu.s:2716   .debug_str:00000000000005e4 .LASF79
     /tmp/cc08WeYu.s:2509   .debug_loc:0000000000000445 .LLST1
     /tmp/cc08WeYu.s:34     .text:000000000000002c .LVL2
     /tmp/cc08WeYu.s:2704   .debug_str:0000000000000581 .LASF89
     /tmp/cc08WeYu.s:349    .text:00000000000001dc .LVL31
     /tmp/cc08WeYu.s:359    .text:00000000000001ec .LVL32
     /tmp/cc08WeYu.s:270    .text:000000000000017c .LVL24
     /tmp/cc08WeYu.s:285    .text:0000000000000198 .LVL25
     /tmp/cc08WeYu.s:327    .text:00000000000001cc .LVL29
     /tmp/cc08WeYu.s:289    .text:000000000000019c .LVL26
     /tmp/cc08WeYu.s:334    .text:00000000000001d4 .LVL30
     /tmp/cc08WeYu.s:301    .text:00000000000001ac .LVL27
     /tmp/cc08WeYu.s:76     .text:0000000000000060 .LVL4
     /tmp/cc08WeYu.s:97     .text:0000000000000088 .LVL5
     /tmp/cc08WeYu.s:134    .text:00000000000000c0 .LVL9
     /tmp/cc08WeYu.s:138    .text:00000000000000c8 .LVL10
     /tmp/cc08WeYu.s:147    .text:00000000000000d4 .LVL11
     /tmp/cc08WeYu.s:131    .text:00000000000000bc .LVL8
     /tmp/cc08WeYu.s:459    .text:0000000000000278 .LVL41
     /tmp/cc08WeYu.s:502    .text:00000000000002c8 .LVL45
     /tmp/cc08WeYu.s:506    .text:00000000000002d0 .LVL46
     /tmp/cc08WeYu.s:518    .text:00000000000002e4 .LVL47
     /tmp/cc08WeYu.s:526    .text:00000000000002e8 .LVL48
     /tmp/cc08WeYu.s:165    .text:00000000000000d8 .LVL12
     /tmp/cc08WeYu.s:196    .text:0000000000000114 .LVL14
     /tmp/cc08WeYu.s:231    .text:000000000000015c .LVL19
     /tmp/cc08WeYu.s:240    .text:000000000000016c .LVL21
     /tmp/cc08WeYu.s:248    .text:0000000000000170 .LVL22
     /tmp/cc08WeYu.s:189    .text:0000000000000108 .LVL13
     /tmp/cc08WeYu.s:227    .text:0000000000000154 .LVL18
     /tmp/cc08WeYu.s:251    .text:0000000000000174 .LVL23
     /tmp/cc08WeYu.s:383    .text:0000000000000200 .LVL33
     /tmp/cc08WeYu.s:397    .text:000000000000021c .LVL34
     /tmp/cc08WeYu.s:439    .text:0000000000000268 .LVL39
     /tmp/cc08WeYu.s:443    .text:0000000000000270 .LVL40
     /tmp/cc08WeYu.s:14     .text:0000000000000000 .LVL0
     /tmp/cc08WeYu.s:32     .text:0000000000000024 .LVL1
     /tmp/cc08WeYu.s:60     .text:0000000000000054 .LVL3
     /tmp/cc08WeYu.s:538    .debug_info:0000000000000000 .Ldebug_info0

UNDEFINED SYMBOLS
_ZN15MemoryAllocator9mem_allocEm
_ZN15MemoryAllocator14convert2BlocksEm
_ZN7_thread7runningE
_ZN9Scheduler3putEP7_thread
_ZN9Scheduler3getEv
contextSwitch
_ZN15MemoryAllocator8mem_freeEPv
