GAS LISTING /tmp/ccHnCr5c.s 			page 1


   1              		.file	"syscall_c.cpp"
   2              		.option pic
   3              		.option norelax
   4              		.text
   5              	.Ltext0:
   6              		.align	2
   7              		.globl	_Z9mem_allocm
   9              	_Z9mem_allocm:
  10              	.LFB24:
  11              		.file 1 "src/syscall_c.cpp"
   1:src/syscall_c.cpp **** //
   2:src/syscall_c.cpp **** // Created by os on 8/9/23.
   3:src/syscall_c.cpp **** //
   4:src/syscall_c.cpp **** 
   5:src/syscall_c.cpp **** #include "../h/syscall_c.hpp"
   6:src/syscall_c.cpp **** #include "../h/print.hpp"
   7:src/syscall_c.cpp **** #include "../h/MemoryAllocator.hpp"
   8:src/syscall_c.cpp **** #include "../h/thread.hpp"
   9:src/syscall_c.cpp **** #include "../h/scheduler.hpp"
  10:src/syscall_c.cpp **** 
  11:src/syscall_c.cpp **** void* mem_alloc (size_t size)
  12:src/syscall_c.cpp **** {
  12              		.loc 1 12 1
  13              		.cfi_startproc
  14              	.LVL0:
  15 0000 130101FD 		addi	sp,sp,-48
  16              		.cfi_def_cfa_offset 48
  17 0004 23348102 		sd	s0,40(sp)
  18              		.cfi_offset 8, -8
  19 0008 13040103 		addi	s0,sp,48
  20              		.cfi_def_cfa 8, 0
  21 000c 233CA4FC 		sd	a0,-40(s0)
  13:src/syscall_c.cpp ****     //size_t blockNum = MemoryAllocator::convert2Blocks(size);
  14:src/syscall_c.cpp **** 
  15:src/syscall_c.cpp ****     size_t code = 0x0000000000000001UL;
  22              		.loc 1 15 5
  23              		.loc 1 15 12 is_stmt 0
  24 0010 93071000 		li	a5,1
  25 0014 2334F4FE 		sd	a5,-24(s0)
  16:src/syscall_c.cpp ****     __asm__ volatile("ld a0, %0" : : "m" (code));
  26              		.loc 1 16 5 is_stmt 1
  27              		.loc 1 16 49 is_stmt 0
  28              	#APP
  29              	# 16 "src/syscall_c.cpp" 1
  17              	
  18:src/syscall_c.cpp ****     //__asm__ volatile("ld a1, %0" : : "m" (blockNum));
  19:src/syscall_c.cpp ****     __asm__ volatile("ld a1, %0" : : "m" (size));
  30              		ld a0, -24(s0)
  31              	# 0 "" 2
  32              		.loc 1 19 5 is_stmt 1
  33              		.loc 1 19 49 is_stmt 0
  34              	# 19 "src/syscall_c.cpp" 1
  20              	
  21:src/syscall_c.cpp ****     __asm__ volatile("ecall");
  35              		ld a1, -40(s0)
  36              	# 0 "" 2
  37              		.loc 1 21 5 is_stmt 1
GAS LISTING /tmp/ccHnCr5c.s 			page 2


  38              		.loc 1 21 30 is_stmt 0
  39              	# 21 "src/syscall_c.cpp" 1
  22              	
  23:src/syscall_c.cpp ****     void* ptr;
  40              		ecall
  41              	# 0 "" 2
  42              		.loc 1 23 5 is_stmt 1
  24:src/syscall_c.cpp **** 
  25:src/syscall_c.cpp ****     asm volatile("sd a0, %0" : "=m" (ptr));
  43              		.loc 1 25 5
  44              		.loc 1 25 43 is_stmt 0
  45              	# 25 "src/syscall_c.cpp" 1
  26              	
  27:src/syscall_c.cpp **** //    printString("mem_alloc: ");
  28:src/syscall_c.cpp **** //    printInteger(size_t(ptr));
  29:src/syscall_c.cpp **** //    printString("\n");
  30:src/syscall_c.cpp **** 
  31:src/syscall_c.cpp ****     return ptr;
  46              		sd a0, -32(s0)
  47              	# 0 "" 2
  48              		.loc 1 31 5 is_stmt 1
  32:src/syscall_c.cpp **** }
  49              		.loc 1 32 1 is_stmt 0
  50              	#NO_APP
  51 0028 033504FE 		ld	a0,-32(s0)
  52              	.LVL1:
  53 002c 03348102 		ld	s0,40(sp)
  54              		.cfi_restore 8
  55              		.cfi_def_cfa 2, 48
  56              	.LVL2:
  57 0030 13010103 		addi	sp,sp,48
  58              		.cfi_def_cfa_offset 0
  59              	.LVL3:
  60 0034 67800000 		jr	ra
  61              		.cfi_endproc
  62              	.LFE24:
  64              		.align	2
  65              		.globl	_Z8mem_freePv
  67              	_Z8mem_freePv:
  68              	.LFB25:
  33:src/syscall_c.cpp **** 
  34:src/syscall_c.cpp **** int mem_free (void* ptr)
  35:src/syscall_c.cpp **** {
  69              		.loc 1 35 1 is_stmt 1
  70              		.cfi_startproc
  71              	.LVL4:
  72 0038 130101FD 		addi	sp,sp,-48
  73              		.cfi_def_cfa_offset 48
  74 003c 23348102 		sd	s0,40(sp)
  75              		.cfi_offset 8, -8
  76 0040 13040103 		addi	s0,sp,48
  77              		.cfi_def_cfa 8, 0
  78 0044 233CA4FC 		sd	a0,-40(s0)
  36:src/syscall_c.cpp ****     size_t code = 0x0000000000000002UL;
  79              		.loc 1 36 5
  80              		.loc 1 36 12 is_stmt 0
  81 0048 93072000 		li	a5,2
GAS LISTING /tmp/ccHnCr5c.s 			page 3


  82 004c 2334F4FE 		sd	a5,-24(s0)
  37:src/syscall_c.cpp ****     asm volatile("ld a0, %0" : : "m" (code));
  83              		.loc 1 37 5 is_stmt 1
  84              		.loc 1 37 45 is_stmt 0
  85              	#APP
  86              	# 37 "src/syscall_c.cpp" 1
  38              	
  39:src/syscall_c.cpp ****     asm volatile("ld a1, %0" : : "m" (ptr));
  87              		ld a0, -24(s0)
  88              	# 0 "" 2
  89              		.loc 1 39 5 is_stmt 1
  90              		.loc 1 39 44 is_stmt 0
  91              	# 39 "src/syscall_c.cpp" 1
  40              	
  41:src/syscall_c.cpp ****     asm volatile("ecall");
  92              		ld a1, -40(s0)
  93              	# 0 "" 2
  94              		.loc 1 41 5 is_stmt 1
  95              		.loc 1 41 26 is_stmt 0
  96              	# 41 "src/syscall_c.cpp" 1
  42              	
  43:src/syscall_c.cpp ****     int val;
  97              		ecall
  98              	# 0 "" 2
  99              		.loc 1 43 5 is_stmt 1
  44:src/syscall_c.cpp **** 
  45:src/syscall_c.cpp ****     asm volatile("sd a0, %0" : "=m" (val));
 100              		.loc 1 45 5
 101              		.loc 1 45 43 is_stmt 0
 102              	# 45 "src/syscall_c.cpp" 1
  46              	
  47:src/syscall_c.cpp **** //    printString("mem_free: ");
  48:src/syscall_c.cpp **** //    printInteger(val);
  49:src/syscall_c.cpp **** //    printString("\n");
  50:src/syscall_c.cpp **** 
  51:src/syscall_c.cpp ****     return val;
 103              		sd a0, -28(s0)
 104              	# 0 "" 2
 105              		.loc 1 51 5 is_stmt 1
  52:src/syscall_c.cpp **** }
 106              		.loc 1 52 1 is_stmt 0
 107              	#NO_APP
 108 0060 032544FE 		lw	a0,-28(s0)
 109              	.LVL5:
 110 0064 03348102 		ld	s0,40(sp)
 111              		.cfi_restore 8
 112              		.cfi_def_cfa 2, 48
 113              	.LVL6:
 114 0068 13010103 		addi	sp,sp,48
 115              		.cfi_def_cfa_offset 0
 116              	.LVL7:
 117 006c 67800000 		jr	ra
 118              		.cfi_endproc
 119              	.LFE25:
 121              		.section	.rodata.str1.8,"aMS",@progbits,1
 122              		.align	3
 123              	.LC0:
GAS LISTING /tmp/ccHnCr5c.s 			page 4


 124 0000 0A6E6577 		.string	"\nnew thread: "
 124      20746872 
 124      6561643A 
 124      2000
 125 000e 0000     		.align	3
 126              	.LC1:
 127 0010 0A00     		.string	"\n"
 128              		.text
 129              		.align	2
 130              		.globl	_Z13thread_createPP7_threadPFvPvES2_
 132              	_Z13thread_createPP7_threadPFvPvES2_:
 133              	.LFB26:
  53:src/syscall_c.cpp **** 
  54:src/syscall_c.cpp **** 
  55:src/syscall_c.cpp **** int thread_create (thread_t* handle, void(*start_routine)(void*), void* arg)
  56:src/syscall_c.cpp **** {
 134              		.loc 1 56 1 is_stmt 1
 135              		.cfi_startproc
 136              	.LVL8:
 137 0070 130101FB 		addi	sp,sp,-80
 138              		.cfi_def_cfa_offset 80
 139 0074 23341104 		sd	ra,72(sp)
 140 0078 23308104 		sd	s0,64(sp)
 141              		.cfi_offset 1, -8
 142              		.cfi_offset 8, -16
 143 007c 13040105 		addi	s0,sp,80
 144              		.cfi_def_cfa 8, 0
 145 0080 2334A4FC 		sd	a0,-56(s0)
 146 0084 2330B4FC 		sd	a1,-64(s0)
 147 0088 233CC4FA 		sd	a2,-72(s0)
  57:src/syscall_c.cpp ****     size_t blockNum = MemoryAllocator::convert2Blocks(sizeof(uint64) * DEFAULT_STACK_SIZE);
 148              		.loc 1 57 5
 149              		.loc 1 57 54 is_stmt 0
 150 008c 37850000 		li	a0,32768
 151              	.LVL9:
 152 0090 97000000 		call	_ZN15MemoryAllocator14convert2BlocksEm@plt
 152      E7800000 
 153              	.LVL10:
  58:src/syscall_c.cpp ****     void* stack_space = MemoryAllocator::mem_alloc(blockNum);
 154              		.loc 1 58 5 is_stmt 1
 155              		.loc 1 58 51 is_stmt 0
 156 0098 97000000 		call	_ZN15MemoryAllocator9mem_allocEm@plt
 156      E7800000 
 157              	.LVL11:
 158              		.loc 1 58 60
 159 00a0 2334A4FE 		sd	a0,-24(s0)
  59:src/syscall_c.cpp **** 
  60:src/syscall_c.cpp **** //    blockNum = MemoryAllocator::convert2Blocks(sizeof(_thread**));
  61:src/syscall_c.cpp **** //    handle = (_thread**) MemoryAllocator::mem_alloc(blockNum);
  62:src/syscall_c.cpp **** //
  63:src/syscall_c.cpp **** //    blockNum = MemoryAllocator::convert2Blocks(sizeof(_thread*));
  64:src/syscall_c.cpp **** //    *handle = (_thread*) MemoryAllocator::mem_alloc(blockNum);
  65:src/syscall_c.cpp **** 
  66:src/syscall_c.cpp ****     size_t code = 0x0000000000000011UL;
 160              		.loc 1 66 5 is_stmt 1
 161              		.loc 1 66 12 is_stmt 0
 162 00a4 93071001 		li	a5,17
GAS LISTING /tmp/ccHnCr5c.s 			page 5


 163 00a8 2330F4FE 		sd	a5,-32(s0)
  67:src/syscall_c.cpp ****     asm volatile("ld a0, %0" : : "m" (code));
 164              		.loc 1 67 5 is_stmt 1
 165              		.loc 1 67 45 is_stmt 0
 166              	#APP
 167              	# 67 "src/syscall_c.cpp" 1
  68              	    asm volatile("ld a1, %0" : : "m" (handle));
 168              		ld a0, -32(s0)
 169              	# 0 "" 2
 170              		.loc 1 68 5 is_stmt 1
 171              		.loc 1 68 47 is_stmt 0
 172              	# 68 "src/syscall_c.cpp" 1
  69              	    asm volatile("ld a2, %0" : : "m" (start_routine));
 173              		ld a1, -56(s0)
 174              	# 0 "" 2
 175              		.loc 1 69 5 is_stmt 1
 176              		.loc 1 69 54 is_stmt 0
 177              	# 69 "src/syscall_c.cpp" 1
  70              	    asm volatile("ld a3, %0" : : "m" (arg));
 178              		ld a2, -64(s0)
 179              	# 0 "" 2
 180              		.loc 1 70 5 is_stmt 1
 181              		.loc 1 70 44 is_stmt 0
 182              	# 70 "src/syscall_c.cpp" 1
  71              	    asm volatile("ld a4, %0" : : "m" (stack_space));
 183              		ld a3, -72(s0)
 184              	# 0 "" 2
 185              		.loc 1 71 5 is_stmt 1
 186              		.loc 1 71 52 is_stmt 0
 187              	# 71 "src/syscall_c.cpp" 1
  72              	
  73:src/syscall_c.cpp ****     asm volatile("ecall");
 188              		ld a4, -24(s0)
 189              	# 0 "" 2
 190              		.loc 1 73 5 is_stmt 1
 191              		.loc 1 73 26 is_stmt 0
 192              	# 73 "src/syscall_c.cpp" 1
  74              	
  75:src/syscall_c.cpp ****     int val;
 193              		ecall
 194              	# 0 "" 2
 195              		.loc 1 75 5 is_stmt 1
  76:src/syscall_c.cpp **** 
  77:src/syscall_c.cpp ****     asm volatile("sd a0, %0" : "=m" (val));
 196              		.loc 1 77 5
 197              		.loc 1 77 43 is_stmt 0
 198              	# 77 "src/syscall_c.cpp" 1
  78              	
  79:src/syscall_c.cpp ****     if (val < 0)
 199              		sd a0, -36(s0)
 200              	# 0 "" 2
 201              		.loc 1 79 5 is_stmt 1
 202              		.loc 1 79 13 is_stmt 0
 203              	#NO_APP
 204 00c8 0325C4FD 		lw	a0,-36(s0)
 205              		.loc 1 79 5
 206 00cc 634C0502 		bltz	a0,.L6
GAS LISTING /tmp/ccHnCr5c.s 			page 6


  80:src/syscall_c.cpp ****         return val;
  81:src/syscall_c.cpp **** 
  82:src/syscall_c.cpp ****     printString("\nnew thread: ");
 207              		.loc 1 82 5 is_stmt 1
 208              		.loc 1 82 16 is_stmt 0
 209 00d0 17050000 		lla	a0,.LC0
 209      13050500 
 210 00d8 97000000 		call	_Z11printStringPKc@plt
 210      E7800000 
 211              	.LVL12:
  83:src/syscall_c.cpp ****     printInteger((uint64) *handle);
 212              		.loc 1 83 5 is_stmt 1
 213              		.loc 1 83 17 is_stmt 0
 214 00e0 833784FC 		ld	a5,-56(s0)
 215 00e4 03B50700 		ld	a0,0(a5)
 216 00e8 97000000 		call	_Z12printIntegerm@plt
 216      E7800000 
 217              	.LVL13:
  84:src/syscall_c.cpp ****     printString("\n");
 218              		.loc 1 84 5 is_stmt 1
 219              		.loc 1 84 16 is_stmt 0
 220 00f0 17050000 		lla	a0,.LC1
 220      13050500 
 221 00f8 97000000 		call	_Z11printStringPKc@plt
 221      E7800000 
 222              	.LVL14:
  85:src/syscall_c.cpp **** 
  86:src/syscall_c.cpp ****     return val;
 223              		.loc 1 86 5 is_stmt 1
 224              		.loc 1 86 12 is_stmt 0
 225 0100 0325C4FD 		lw	a0,-36(s0)
 226              	.L6:
  87:src/syscall_c.cpp **** }
 227              		.loc 1 87 1
 228 0104 83308104 		ld	ra,72(sp)
 229              		.cfi_restore 1
 230 0108 03340104 		ld	s0,64(sp)
 231              		.cfi_restore 8
 232              		.cfi_def_cfa 2, 80
 233 010c 13010105 		addi	sp,sp,80
 234              		.cfi_def_cfa_offset 0
 235 0110 67800000 		jr	ra
 236              		.cfi_endproc
 237              	.LFE26:
 239              		.align	2
 240              		.globl	_Z11thread_exitv
 242              	_Z11thread_exitv:
 243              	.LFB27:
  88:src/syscall_c.cpp **** 
  89:src/syscall_c.cpp **** int thread_exit ()
  90:src/syscall_c.cpp **** {
 244              		.loc 1 90 1 is_stmt 1
 245              		.cfi_startproc
 246 0114 130101FE 		addi	sp,sp,-32
 247              		.cfi_def_cfa_offset 32
 248 0118 233C8100 		sd	s0,24(sp)
 249              		.cfi_offset 8, -8
GAS LISTING /tmp/ccHnCr5c.s 			page 7


 250 011c 13040102 		addi	s0,sp,32
 251              		.cfi_def_cfa 8, 0
  91:src/syscall_c.cpp ****     size_t code = 0x0000000000000012UL;
 252              		.loc 1 91 5
 253              		.loc 1 91 12 is_stmt 0
 254 0120 93072001 		li	a5,18
 255 0124 2334F4FE 		sd	a5,-24(s0)
  92:src/syscall_c.cpp ****     asm volatile("ld a0, %0" : : "m" (code));
 256              		.loc 1 92 5 is_stmt 1
 257              		.loc 1 92 45 is_stmt 0
 258              	#APP
 259              	# 92 "src/syscall_c.cpp" 1
  93              	
  94:src/syscall_c.cpp ****     asm volatile("ecall");
 260              		ld a0, -24(s0)
 261              	# 0 "" 2
 262              		.loc 1 94 5 is_stmt 1
 263              		.loc 1 94 26 is_stmt 0
 264              	# 94 "src/syscall_c.cpp" 1
  95              	
  96:src/syscall_c.cpp **** 
  97:src/syscall_c.cpp ****     // if this code is executed -> error exiting thread
  98:src/syscall_c.cpp ****     int val;
 265              		ecall
 266              	# 0 "" 2
 267              		.loc 1 98 5 is_stmt 1
  99:src/syscall_c.cpp **** 
 100:src/syscall_c.cpp ****     asm volatile("sd a0, %0" : "=m" (val));
 268              		.loc 1 100 5
 269              		.loc 1 100 43 is_stmt 0
 270              	# 100 "src/syscall_c.cpp" 1
 101              	
 102:src/syscall_c.cpp ****     return val;
 271              		sd a0, -28(s0)
 272              	# 0 "" 2
 273              		.loc 1 102 5 is_stmt 1
 103:src/syscall_c.cpp **** }
 274              		.loc 1 103 1 is_stmt 0
 275              	#NO_APP
 276 0134 032544FE 		lw	a0,-28(s0)
 277 0138 03348101 		ld	s0,24(sp)
 278              		.cfi_restore 8
 279              		.cfi_def_cfa 2, 32
 280 013c 13010102 		addi	sp,sp,32
 281              		.cfi_def_cfa_offset 0
 282 0140 67800000 		jr	ra
 283              		.cfi_endproc
 284              	.LFE27:
 286              		.align	2
 287              		.globl	_Z15thread_dispatchv
 289              	_Z15thread_dispatchv:
 290              	.LFB28:
 104:src/syscall_c.cpp **** 
 105:src/syscall_c.cpp **** void thread_dispatch ()
 106:src/syscall_c.cpp **** {
 291              		.loc 1 106 1 is_stmt 1
 292              		.cfi_startproc
GAS LISTING /tmp/ccHnCr5c.s 			page 8


 293 0144 130101FE 		addi	sp,sp,-32
 294              		.cfi_def_cfa_offset 32
 295 0148 233C8100 		sd	s0,24(sp)
 296              		.cfi_offset 8, -8
 297 014c 13040102 		addi	s0,sp,32
 298              		.cfi_def_cfa 8, 0
 107:src/syscall_c.cpp ****     size_t code = 0x0000000000000013UL;
 299              		.loc 1 107 5
 300              		.loc 1 107 12 is_stmt 0
 301 0150 93073001 		li	a5,19
 302 0154 2334F4FE 		sd	a5,-24(s0)
 108:src/syscall_c.cpp ****     asm volatile("ld a0, %0" : : "m" (code));
 303              		.loc 1 108 5 is_stmt 1
 304              		.loc 1 108 45 is_stmt 0
 305              	#APP
 306              	# 108 "src/syscall_c.cpp" 1
 109              	
 110:src/syscall_c.cpp ****     asm volatile("ecall");
 307              		ld a0, -24(s0)
 308              	# 0 "" 2
 309              		.loc 1 110 5 is_stmt 1
 310              		.loc 1 110 26 is_stmt 0
 311              	# 110 "src/syscall_c.cpp" 1
 111              	}
 312              		ecall
 313              	# 0 "" 2
 314              		.loc 1 111 1
 315              	#NO_APP
 316 0160 03348101 		ld	s0,24(sp)
 317              		.cfi_restore 8
 318              		.cfi_def_cfa 2, 32
 319 0164 13010102 		addi	sp,sp,32
 320              		.cfi_def_cfa_offset 0
 321 0168 67800000 		jr	ra
 322              		.cfi_endproc
 323              	.LFE28:
 325              	.Letext0:
 326              		.file 2 "src/../h/../lib/hw.h"
 327              		.file 3 "src/../h/../h/thread.hpp"
 328              		.file 4 "src/../h/MemoryAllocator.hpp"
 329              		.file 5 "src/../h/print.hpp"
GAS LISTING /tmp/ccHnCr5c.s 			page 9


DEFINED SYMBOLS
                            *ABS*:0000000000000000 syscall_c.cpp
     /tmp/ccHnCr5c.s:9      .text:0000000000000000 _Z9mem_allocm
     /tmp/ccHnCr5c.s:13     .text:0000000000000000 .L0 
     /tmp/ccHnCr5c.s:15     .text:0000000000000000 .L0 
     /tmp/ccHnCr5c.s:16     .text:0000000000000004 .L0 
     /tmp/ccHnCr5c.s:18     .text:0000000000000008 .L0 
     /tmp/ccHnCr5c.s:20     .text:000000000000000c .L0 
     /tmp/ccHnCr5c.s:23     .text:0000000000000010 .L0 
     /tmp/ccHnCr5c.s:24     .text:0000000000000010 .L0 
     /tmp/ccHnCr5c.s:27     .text:0000000000000018 .L0 
   src/syscall_c.cpp:16     .text:0000000000000018 .L0 
     /tmp/ccHnCr5c.s:33     .text:000000000000001c .L0 
   src/syscall_c.cpp:19     .text:000000000000001c .L0 
     /tmp/ccHnCr5c.s:38     .text:0000000000000020 .L0 
   src/syscall_c.cpp:21     .text:0000000000000020 .L0 
     /tmp/ccHnCr5c.s:43     .text:0000000000000024 .L0 
     /tmp/ccHnCr5c.s:44     .text:0000000000000024 .L0 
   src/syscall_c.cpp:25     .text:0000000000000024 .L0 
     /tmp/ccHnCr5c.s:49     .text:0000000000000028 .L0 
     /tmp/ccHnCr5c.s:51     .text:0000000000000028 .L0 
     /tmp/ccHnCr5c.s:54     .text:0000000000000030 .L0 
     /tmp/ccHnCr5c.s:55     .text:0000000000000030 .L0 
     /tmp/ccHnCr5c.s:58     .text:0000000000000034 .L0 
     /tmp/ccHnCr5c.s:61     .text:0000000000000038 .L0 
     /tmp/ccHnCr5c.s:67     .text:0000000000000038 _Z8mem_freePv
     /tmp/ccHnCr5c.s:70     .text:0000000000000038 .L0 
     /tmp/ccHnCr5c.s:72     .text:0000000000000038 .L0 
     /tmp/ccHnCr5c.s:73     .text:000000000000003c .L0 
     /tmp/ccHnCr5c.s:75     .text:0000000000000040 .L0 
     /tmp/ccHnCr5c.s:77     .text:0000000000000044 .L0 
     /tmp/ccHnCr5c.s:80     .text:0000000000000048 .L0 
     /tmp/ccHnCr5c.s:81     .text:0000000000000048 .L0 
     /tmp/ccHnCr5c.s:84     .text:0000000000000050 .L0 
   src/syscall_c.cpp:37     .text:0000000000000050 .L0 
     /tmp/ccHnCr5c.s:90     .text:0000000000000054 .L0 
   src/syscall_c.cpp:39     .text:0000000000000054 .L0 
     /tmp/ccHnCr5c.s:95     .text:0000000000000058 .L0 
   src/syscall_c.cpp:41     .text:0000000000000058 .L0 
     /tmp/ccHnCr5c.s:100    .text:000000000000005c .L0 
     /tmp/ccHnCr5c.s:101    .text:000000000000005c .L0 
   src/syscall_c.cpp:45     .text:000000000000005c .L0 
     /tmp/ccHnCr5c.s:106    .text:0000000000000060 .L0 
     /tmp/ccHnCr5c.s:108    .text:0000000000000060 .L0 
     /tmp/ccHnCr5c.s:111    .text:0000000000000068 .L0 
     /tmp/ccHnCr5c.s:112    .text:0000000000000068 .L0 
     /tmp/ccHnCr5c.s:115    .text:000000000000006c .L0 
     /tmp/ccHnCr5c.s:118    .text:0000000000000070 .L0 
     /tmp/ccHnCr5c.s:132    .text:0000000000000070 _Z13thread_createPP7_threadPFvPvES2_
     /tmp/ccHnCr5c.s:135    .text:0000000000000070 .L0 
     /tmp/ccHnCr5c.s:137    .text:0000000000000070 .L0 
     /tmp/ccHnCr5c.s:138    .text:0000000000000074 .L0 
     /tmp/ccHnCr5c.s:141    .text:000000000000007c .L0 
     /tmp/ccHnCr5c.s:142    .text:000000000000007c .L0 
     /tmp/ccHnCr5c.s:144    .text:0000000000000080 .L0 
     /tmp/ccHnCr5c.s:149    .text:000000000000008c .L0 
     /tmp/ccHnCr5c.s:150    .text:000000000000008c .L0 
GAS LISTING /tmp/ccHnCr5c.s 			page 10


     /tmp/ccHnCr5c.s:155    .text:0000000000000098 .L0 
     /tmp/ccHnCr5c.s:156    .text:0000000000000098 .L0 
     /tmp/ccHnCr5c.s:159    .text:00000000000000a0 .L0 
     /tmp/ccHnCr5c.s:161    .text:00000000000000a4 .L0 
     /tmp/ccHnCr5c.s:162    .text:00000000000000a4 .L0 
     /tmp/ccHnCr5c.s:165    .text:00000000000000ac .L0 
   src/syscall_c.cpp:67     .text:00000000000000ac .L0 
     /tmp/ccHnCr5c.s:171    .text:00000000000000b0 .L0 
   src/syscall_c.cpp:68     .text:00000000000000b0 .L0 
     /tmp/ccHnCr5c.s:176    .text:00000000000000b4 .L0 
   src/syscall_c.cpp:69     .text:00000000000000b4 .L0 
     /tmp/ccHnCr5c.s:181    .text:00000000000000b8 .L0 
   src/syscall_c.cpp:70     .text:00000000000000b8 .L0 
     /tmp/ccHnCr5c.s:186    .text:00000000000000bc .L0 
   src/syscall_c.cpp:71     .text:00000000000000bc .L0 
     /tmp/ccHnCr5c.s:191    .text:00000000000000c0 .L0 
   src/syscall_c.cpp:73     .text:00000000000000c0 .L0 
     /tmp/ccHnCr5c.s:196    .text:00000000000000c4 .L0 
     /tmp/ccHnCr5c.s:197    .text:00000000000000c4 .L0 
   src/syscall_c.cpp:77     .text:00000000000000c4 .L0 
     /tmp/ccHnCr5c.s:202    .text:00000000000000c8 .L0 
     /tmp/ccHnCr5c.s:204    .text:00000000000000c8 .L0 
     /tmp/ccHnCr5c.s:206    .text:00000000000000cc .L0 
     /tmp/ccHnCr5c.s:208    .text:00000000000000d0 .L0 
     /tmp/ccHnCr5c.s:209    .text:00000000000000d0 .L0 
     /tmp/ccHnCr5c.s:213    .text:00000000000000e0 .L0 
     /tmp/ccHnCr5c.s:214    .text:00000000000000e0 .L0 
     /tmp/ccHnCr5c.s:219    .text:00000000000000f0 .L0 
     /tmp/ccHnCr5c.s:220    .text:00000000000000f0 .L0 
     /tmp/ccHnCr5c.s:224    .text:0000000000000100 .L0 
     /tmp/ccHnCr5c.s:225    .text:0000000000000100 .L0 
     /tmp/ccHnCr5c.s:228    .text:0000000000000104 .L0 
     /tmp/ccHnCr5c.s:229    .text:0000000000000108 .L0 
     /tmp/ccHnCr5c.s:231    .text:000000000000010c .L0 
     /tmp/ccHnCr5c.s:232    .text:000000000000010c .L0 
     /tmp/ccHnCr5c.s:234    .text:0000000000000110 .L0 
     /tmp/ccHnCr5c.s:236    .text:0000000000000114 .L0 
     /tmp/ccHnCr5c.s:242    .text:0000000000000114 _Z11thread_exitv
     /tmp/ccHnCr5c.s:245    .text:0000000000000114 .L0 
     /tmp/ccHnCr5c.s:246    .text:0000000000000114 .L0 
     /tmp/ccHnCr5c.s:247    .text:0000000000000118 .L0 
     /tmp/ccHnCr5c.s:249    .text:000000000000011c .L0 
     /tmp/ccHnCr5c.s:251    .text:0000000000000120 .L0 
     /tmp/ccHnCr5c.s:253    .text:0000000000000120 .L0 
     /tmp/ccHnCr5c.s:254    .text:0000000000000120 .L0 
     /tmp/ccHnCr5c.s:257    .text:0000000000000128 .L0 
   src/syscall_c.cpp:92     .text:0000000000000128 .L0 
     /tmp/ccHnCr5c.s:263    .text:000000000000012c .L0 
   src/syscall_c.cpp:94     .text:000000000000012c .L0 
     /tmp/ccHnCr5c.s:268    .text:0000000000000130 .L0 
     /tmp/ccHnCr5c.s:269    .text:0000000000000130 .L0 
   src/syscall_c.cpp:100    .text:0000000000000130 .L0 
     /tmp/ccHnCr5c.s:274    .text:0000000000000134 .L0 
     /tmp/ccHnCr5c.s:276    .text:0000000000000134 .L0 
     /tmp/ccHnCr5c.s:278    .text:000000000000013c .L0 
     /tmp/ccHnCr5c.s:279    .text:000000000000013c .L0 
     /tmp/ccHnCr5c.s:281    .text:0000000000000140 .L0 
GAS LISTING /tmp/ccHnCr5c.s 			page 11


     /tmp/ccHnCr5c.s:283    .text:0000000000000144 .L0 
     /tmp/ccHnCr5c.s:289    .text:0000000000000144 _Z15thread_dispatchv
     /tmp/ccHnCr5c.s:292    .text:0000000000000144 .L0 
     /tmp/ccHnCr5c.s:293    .text:0000000000000144 .L0 
     /tmp/ccHnCr5c.s:294    .text:0000000000000148 .L0 
     /tmp/ccHnCr5c.s:296    .text:000000000000014c .L0 
     /tmp/ccHnCr5c.s:298    .text:0000000000000150 .L0 
     /tmp/ccHnCr5c.s:300    .text:0000000000000150 .L0 
     /tmp/ccHnCr5c.s:301    .text:0000000000000150 .L0 
     /tmp/ccHnCr5c.s:304    .text:0000000000000158 .L0 
   src/syscall_c.cpp:108    .text:0000000000000158 .L0 
     /tmp/ccHnCr5c.s:310    .text:000000000000015c .L0 
   src/syscall_c.cpp:110    .text:000000000000015c .L0 
     /tmp/ccHnCr5c.s:316    .text:0000000000000160 .L0 
     /tmp/ccHnCr5c.s:317    .text:0000000000000164 .L0 
     /tmp/ccHnCr5c.s:318    .text:0000000000000164 .L0 
     /tmp/ccHnCr5c.s:320    .text:0000000000000168 .L0 
     /tmp/ccHnCr5c.s:322    .text:000000000000016c .L0 
     /tmp/ccHnCr5c.s:330    .text:000000000000016c .L0 
     /tmp/ccHnCr5c.s:123    .rodata.str1.8:0000000000000000 .LC0
     /tmp/ccHnCr5c.s:209    .text:00000000000000d0 .L0 
     /tmp/ccHnCr5c.s:126    .rodata.str1.8:0000000000000010 .LC1
     /tmp/ccHnCr5c.s:220    .text:00000000000000f0 .L0 
     /tmp/ccHnCr5c.s:226    .text:0000000000000104 .L6
     /tmp/ccHnCr5c.s:963    .debug_abbrev:0000000000000000 .Ldebug_abbrev0
     /tmp/ccHnCr5c.s:1726   .debug_str:000000000000038d .LASF63
     /tmp/ccHnCr5c.s:1668   .debug_str:00000000000001b9 .LASF64
     /tmp/ccHnCr5c.s:1648   .debug_str:0000000000000104 .LASF65
     /tmp/ccHnCr5c.s:5      .text:0000000000000000 .Ltext0
     /tmp/ccHnCr5c.s:325    .text:000000000000016c .Letext0
     /tmp/ccHnCr5c.s:1604   .debug_line:0000000000000000 .Ldebug_line0
     /tmp/ccHnCr5c.s:1688   .debug_str:000000000000026c .LASF0
     /tmp/ccHnCr5c.s:1698   .debug_str:000000000000029d .LASF1
     /tmp/ccHnCr5c.s:1678   .debug_str:00000000000001ef .LASF2
     /tmp/ccHnCr5c.s:1666   .debug_str:00000000000001b2 .LASF4
     /tmp/ccHnCr5c.s:1716   .debug_str:0000000000000344 .LASF3
     /tmp/ccHnCr5c.s:1620   .debug_str:0000000000000050 .LASF5
     /tmp/ccHnCr5c.s:1704   .debug_str:00000000000002cc .LASF6
     /tmp/ccHnCr5c.s:1686   .debug_str:0000000000000259 .LASF7
     /tmp/ccHnCr5c.s:1734   .debug_str:0000000000000490 .LASF8
     /tmp/ccHnCr5c.s:1660   .debug_str:000000000000017f .LASF9
     /tmp/ccHnCr5c.s:1710   .debug_str:0000000000000316 .LASF10
     /tmp/ccHnCr5c.s:1728   .debug_str:0000000000000451 .LASF11
     /tmp/ccHnCr5c.s:1622   .debug_str:0000000000000057 .LASF12
     /tmp/ccHnCr5c.s:1612   .debug_str:000000000000001f .LASF13
     /tmp/ccHnCr5c.s:1626   .debug_str:000000000000008a .LASF14
     /tmp/ccHnCr5c.s:1714   .debug_str:000000000000032e .LASF15
     /tmp/ccHnCr5c.s:1632   .debug_str:00000000000000b4 .LASF16
     /tmp/ccHnCr5c.s:1664   .debug_str:00000000000001aa .LASF17
     /tmp/ccHnCr5c.s:1616   .debug_str:000000000000003c .LASF18
     /tmp/ccHnCr5c.s:1670   .debug_str:00000000000001cb .LASF19
     /tmp/ccHnCr5c.s:1676   .debug_str:00000000000001e6 .LASF20
     /tmp/ccHnCr5c.s:1692   .debug_str:0000000000000288 .LASF21
     /tmp/ccHnCr5c.s:1672   .debug_str:00000000000001d0 .LASF22
     /tmp/ccHnCr5c.s:1696   .debug_str:0000000000000293 .LASF23
     /tmp/ccHnCr5c.s:1640   .debug_str:00000000000000e6 .LASF34
     /tmp/ccHnCr5c.s:1614   .debug_str:000000000000002f .LASF38
GAS LISTING /tmp/ccHnCr5c.s 			page 12


     /tmp/ccHnCr5c.s:1742   .debug_str:00000000000004c2 .LASF40
     /tmp/ccHnCr5c.s:1674   .debug_str:00000000000001d8 .LASF24
     /tmp/ccHnCr5c.s:1662   .debug_str:000000000000018d .LASF26
     /tmp/ccHnCr5c.s:1610   .debug_str:0000000000000010 .LASF25
     /tmp/ccHnCr5c.s:1732   .debug_str:0000000000000472 .LASF27
     /tmp/ccHnCr5c.s:1644   .debug_str:00000000000000f7 .LASF28
     /tmp/ccHnCr5c.s:1606   .debug_str:0000000000000000 .LASF29
     /tmp/ccHnCr5c.s:1646   .debug_str:00000000000000fc .LASF30
     /tmp/ccHnCr5c.s:1744   .debug_str:00000000000004ed .LASF31
     /tmp/ccHnCr5c.s:1738   .debug_str:00000000000004aa .LASF32
     /tmp/ccHnCr5c.s:1724   .debug_str:0000000000000388 .LASF33
     /tmp/ccHnCr5c.s:1682   .debug_str:0000000000000222 .LASF66
     /tmp/ccHnCr5c.s:1712   .debug_str:0000000000000325 .LASF35
     /tmp/ccHnCr5c.s:1608   .debug_str:0000000000000009 .LASF36
     /tmp/ccHnCr5c.s:1636   .debug_str:00000000000000d8 .LASF37
     /tmp/ccHnCr5c.s:1736   .debug_str:00000000000004a0 .LASF39
     /tmp/ccHnCr5c.s:1706   .debug_str:00000000000002df .LASF41
     /tmp/ccHnCr5c.s:1700   .debug_str:00000000000002b0 .LASF67
     /tmp/ccHnCr5c.s:1624   .debug_str:0000000000000067 .LASF68
     /tmp/ccHnCr5c.s:1718   .debug_str:0000000000000356 .LASF42
     /tmp/ccHnCr5c.s:1720   .debug_str:0000000000000360 .LASF44
     /tmp/ccHnCr5c.s:1638   .debug_str:00000000000000dd .LASF43
     /tmp/ccHnCr5c.s:1658   .debug_str:000000000000015e .LASF45
     /tmp/ccHnCr5c.s:1690   .debug_str:0000000000000279 .LASF46
     /tmp/ccHnCr5c.s:1684   .debug_str:0000000000000232 .LASF47
     /tmp/ccHnCr5c.s:1628   .debug_str:0000000000000096 .LASF69
     /tmp/ccHnCr5c.s:1650   .debug_str:0000000000000122 .LASF70
     /tmp/ccHnCr5c.s:290    .text:0000000000000144 .LFB28
     /tmp/ccHnCr5c.s:323    .text:000000000000016c .LFE28
     /tmp/ccHnCr5c.s:1694   .debug_str:000000000000028e .LASF48
     /tmp/ccHnCr5c.s:1618   .debug_str:0000000000000044 .LASF49
     /tmp/ccHnCr5c.s:1702   .debug_str:00000000000002bb .LASF51
     /tmp/ccHnCr5c.s:243    .text:0000000000000114 .LFB27
     /tmp/ccHnCr5c.s:284    .text:0000000000000144 .LFE27
     /tmp/ccHnCr5c.s:1634   .debug_str:00000000000000ca .LASF50
     /tmp/ccHnCr5c.s:1680   .debug_str:00000000000001fd .LASF52
     /tmp/ccHnCr5c.s:133    .text:0000000000000070 .LFB26
     /tmp/ccHnCr5c.s:237    .text:0000000000000114 .LFE26
     /tmp/ccHnCr5c.s:1722   .debug_str:0000000000000381 .LASF53
     /tmp/ccHnCr5c.s:1514   .debug_loc:0000000000000000 .LLST2
     /tmp/ccHnCr5c.s:1654   .debug_str:0000000000000144 .LASF54
     /tmp/ccHnCr5c.s:1526   .debug_loc:0000000000000037 .LLST3
     /tmp/ccHnCr5c.s:1533   .debug_loc:000000000000005a .LLST4
     /tmp/ccHnCr5c.s:1642   .debug_str:00000000000000ee .LASF55
     /tmp/ccHnCr5c.s:1540   .debug_loc:000000000000007d .LLST5
     /tmp/ccHnCr5c.s:1746   .debug_str:00000000000004f2 .LASF56
     /tmp/ccHnCr5c.s:153    .text:0000000000000098 .LVL10
     /tmp/ccHnCr5c.s:157    .text:00000000000000a0 .LVL11
     /tmp/ccHnCr5c.s:211    .text:00000000000000e0 .LVL12
     /tmp/ccHnCr5c.s:217    .text:00000000000000f0 .LVL13
     /tmp/ccHnCr5c.s:222    .text:0000000000000100 .LVL14
     /tmp/ccHnCr5c.s:1708   .debug_str:0000000000000308 .LASF57
     /tmp/ccHnCr5c.s:68     .text:0000000000000038 .LFB25
     /tmp/ccHnCr5c.s:119    .text:0000000000000070 .LFE25
     /tmp/ccHnCr5c.s:1547   .debug_loc:00000000000000a0 .LLST1
     /tmp/ccHnCr5c.s:1630   .debug_str:00000000000000a6 .LASF58
     /tmp/ccHnCr5c.s:10     .text:0000000000000000 .LFB24
GAS LISTING /tmp/ccHnCr5c.s 			page 13


     /tmp/ccHnCr5c.s:62     .text:0000000000000038 .LFE24
     /tmp/ccHnCr5c.s:1569   .debug_loc:00000000000000ff .LLST0
     /tmp/ccHnCr5c.s:1740   .debug_str:00000000000004af .LASF59
     /tmp/ccHnCr5c.s:1656   .debug_str:0000000000000152 .LASF61
     /tmp/ccHnCr5c.s:1730   .debug_str:0000000000000460 .LASF60
     /tmp/ccHnCr5c.s:1652   .debug_str:0000000000000137 .LASF62
     /tmp/ccHnCr5c.s:136    .text:0000000000000070 .LVL8
     /tmp/ccHnCr5c.s:151    .text:0000000000000090 .LVL9
     /tmp/ccHnCr5c.s:71     .text:0000000000000038 .LVL4
     /tmp/ccHnCr5c.s:109    .text:0000000000000064 .LVL5
     /tmp/ccHnCr5c.s:113    .text:0000000000000068 .LVL6
     /tmp/ccHnCr5c.s:116    .text:000000000000006c .LVL7
     /tmp/ccHnCr5c.s:14     .text:0000000000000000 .LVL0
     /tmp/ccHnCr5c.s:52     .text:000000000000002c .LVL1
     /tmp/ccHnCr5c.s:56     .text:0000000000000030 .LVL2
     /tmp/ccHnCr5c.s:59     .text:0000000000000034 .LVL3
     /tmp/ccHnCr5c.s:331    .debug_info:0000000000000000 .Ldebug_info0

UNDEFINED SYMBOLS
_ZN15MemoryAllocator14convert2BlocksEm
_ZN15MemoryAllocator9mem_allocEm
_Z11printStringPKc
_Z12printIntegerm
