GAS LISTING /tmp/ccmQdT9b.s 			page 1


   1              		.file	"syscall_c.cpp"
   2              		.option pic
   3              		.option norelax
   4              		.text
   5              	.Ltext0:
   6              		.align	2
   7              		.globl	_Z9mem_allocm
   9              	_Z9mem_allocm:
  10              	.LFB25:
  11              		.file 1 "src/syscall_c.cpp"
   1:src/syscall_c.cpp **** //
   2:src/syscall_c.cpp **** // Created by os on 8/9/23.
   3:src/syscall_c.cpp **** //
   4:src/syscall_c.cpp **** 
   5:src/syscall_c.cpp **** #include "../h/syscall_c.hpp"
   6:src/syscall_c.cpp **** #include "../h/print.hpp"
   7:src/syscall_c.cpp **** #include "../h/MemoryAllocator.hpp"
   8:src/syscall_c.cpp **** #include "../h/thread.hpp"
   9:src/syscall_c.cpp **** #include "../h/scheduler.hpp"
  10:src/syscall_c.cpp **** 
  11:src/syscall_c.cpp **** void* mem_alloc (size_t size)
  12:src/syscall_c.cpp **** {
  12              		.loc 1 12 1
  13              		.cfi_startproc
  14              	.LVL0:
  15 0000 130101FD 		addi	sp,sp,-48
  16              		.cfi_def_cfa_offset 48
  17 0004 23348102 		sd	s0,40(sp)
  18              		.cfi_offset 8, -8
  19 0008 13040103 		addi	s0,sp,48
  20              		.cfi_def_cfa 8, 0
  21 000c 233CA4FC 		sd	a0,-40(s0)
  13:src/syscall_c.cpp ****     //size_t blockNum = MemoryAllocator::convert2Blocks(size);
  14:src/syscall_c.cpp **** 
  15:src/syscall_c.cpp ****     size_t code = 0x0000000000000001UL;
  22              		.loc 1 15 5
  23              		.loc 1 15 12 is_stmt 0
  24 0010 93071000 		li	a5,1
  25 0014 2334F4FE 		sd	a5,-24(s0)
  16:src/syscall_c.cpp ****     __asm__ volatile("ld a0, %0" : : "m" (code));
  26              		.loc 1 16 5 is_stmt 1
  27              		.loc 1 16 49 is_stmt 0
  28              	#APP
  29              	# 16 "src/syscall_c.cpp" 1
  17              	
  18:src/syscall_c.cpp ****     //__asm__ volatile("ld a1, %0" : : "m" (blockNum));
  19:src/syscall_c.cpp ****     __asm__ volatile("ld a1, %0" : : "m" (size));
  30              		ld a0, -24(s0)
  31              	# 0 "" 2
  32              		.loc 1 19 5 is_stmt 1
  33              		.loc 1 19 49 is_stmt 0
  34              	# 19 "src/syscall_c.cpp" 1
  20              	
  21:src/syscall_c.cpp ****     __asm__ volatile("ecall");
  35              		ld a1, -40(s0)
  36              	# 0 "" 2
  37              		.loc 1 21 5 is_stmt 1
GAS LISTING /tmp/ccmQdT9b.s 			page 2


  38              		.loc 1 21 30 is_stmt 0
  39              	# 21 "src/syscall_c.cpp" 1
  22              	
  23:src/syscall_c.cpp ****     void* ptr;
  40              		ecall
  41              	# 0 "" 2
  42              		.loc 1 23 5 is_stmt 1
  24:src/syscall_c.cpp **** 
  25:src/syscall_c.cpp ****     asm volatile("sd a0, %0" : "=m" (ptr));
  43              		.loc 1 25 5
  44              		.loc 1 25 43 is_stmt 0
  45              	# 25 "src/syscall_c.cpp" 1
  26              	
  27:src/syscall_c.cpp **** //    printString("mem_alloc: ");
  28:src/syscall_c.cpp **** //    printInteger(size_t(ptr));
  29:src/syscall_c.cpp **** //    printString("\n");
  30:src/syscall_c.cpp **** 
  31:src/syscall_c.cpp ****     return ptr;
  46              		sd a0, -32(s0)
  47              	# 0 "" 2
  48              		.loc 1 31 5 is_stmt 1
  32:src/syscall_c.cpp **** }
  49              		.loc 1 32 1 is_stmt 0
  50              	#NO_APP
  51 0028 033504FE 		ld	a0,-32(s0)
  52              	.LVL1:
  53 002c 03348102 		ld	s0,40(sp)
  54              		.cfi_restore 8
  55              		.cfi_def_cfa 2, 48
  56              	.LVL2:
  57 0030 13010103 		addi	sp,sp,48
  58              		.cfi_def_cfa_offset 0
  59              	.LVL3:
  60 0034 67800000 		jr	ra
  61              		.cfi_endproc
  62              	.LFE25:
  64              		.align	2
  65              		.globl	_Z8mem_freePv
  67              	_Z8mem_freePv:
  68              	.LFB26:
  33:src/syscall_c.cpp **** 
  34:src/syscall_c.cpp **** int mem_free (void* ptr)
  35:src/syscall_c.cpp **** {
  69              		.loc 1 35 1 is_stmt 1
  70              		.cfi_startproc
  71              	.LVL4:
  72 0038 130101FD 		addi	sp,sp,-48
  73              		.cfi_def_cfa_offset 48
  74 003c 23348102 		sd	s0,40(sp)
  75              		.cfi_offset 8, -8
  76 0040 13040103 		addi	s0,sp,48
  77              		.cfi_def_cfa 8, 0
  78 0044 233CA4FC 		sd	a0,-40(s0)
  36:src/syscall_c.cpp ****     size_t code = 0x0000000000000002UL;
  79              		.loc 1 36 5
  80              		.loc 1 36 12 is_stmt 0
  81 0048 93072000 		li	a5,2
GAS LISTING /tmp/ccmQdT9b.s 			page 3


  82 004c 2334F4FE 		sd	a5,-24(s0)
  37:src/syscall_c.cpp ****     asm volatile("ld a0, %0" : : "m" (code));
  83              		.loc 1 37 5 is_stmt 1
  84              		.loc 1 37 45 is_stmt 0
  85              	#APP
  86              	# 37 "src/syscall_c.cpp" 1
  38              	
  39:src/syscall_c.cpp ****     asm volatile("ld a1, %0" : : "m" (ptr));
  87              		ld a0, -24(s0)
  88              	# 0 "" 2
  89              		.loc 1 39 5 is_stmt 1
  90              		.loc 1 39 44 is_stmt 0
  91              	# 39 "src/syscall_c.cpp" 1
  40              	
  41:src/syscall_c.cpp ****     asm volatile("ecall");
  92              		ld a1, -40(s0)
  93              	# 0 "" 2
  94              		.loc 1 41 5 is_stmt 1
  95              		.loc 1 41 26 is_stmt 0
  96              	# 41 "src/syscall_c.cpp" 1
  42              	
  43:src/syscall_c.cpp ****     int val;
  97              		ecall
  98              	# 0 "" 2
  99              		.loc 1 43 5 is_stmt 1
  44:src/syscall_c.cpp **** 
  45:src/syscall_c.cpp ****     asm volatile("sd a0, %0" : "=m" (val));
 100              		.loc 1 45 5
 101              		.loc 1 45 43 is_stmt 0
 102              	# 45 "src/syscall_c.cpp" 1
  46              	
  47:src/syscall_c.cpp **** //    printString("mem_free: ");
  48:src/syscall_c.cpp **** //    printInteger(val);
  49:src/syscall_c.cpp **** //    printString("\n");
  50:src/syscall_c.cpp **** 
  51:src/syscall_c.cpp ****     return val;
 103              		sd a0, -28(s0)
 104              	# 0 "" 2
 105              		.loc 1 51 5 is_stmt 1
  52:src/syscall_c.cpp **** }
 106              		.loc 1 52 1 is_stmt 0
 107              	#NO_APP
 108 0060 032544FE 		lw	a0,-28(s0)
 109              	.LVL5:
 110 0064 03348102 		ld	s0,40(sp)
 111              		.cfi_restore 8
 112              		.cfi_def_cfa 2, 48
 113              	.LVL6:
 114 0068 13010103 		addi	sp,sp,48
 115              		.cfi_def_cfa_offset 0
 116              	.LVL7:
 117 006c 67800000 		jr	ra
 118              		.cfi_endproc
 119              	.LFE26:
 121              		.align	2
 122              		.globl	_Z13thread_createPP7_threadPFvPvES2_
 124              	_Z13thread_createPP7_threadPFvPvES2_:
GAS LISTING /tmp/ccmQdT9b.s 			page 4


 125              	.LFB27:
  53:src/syscall_c.cpp **** 
  54:src/syscall_c.cpp **** 
  55:src/syscall_c.cpp **** int thread_create (thread_t* handle, void(*start_routine)(void*), void* arg)
  56:src/syscall_c.cpp **** {
 126              		.loc 1 56 1 is_stmt 1
 127              		.cfi_startproc
 128              	.LVL8:
 129 0070 130101FB 		addi	sp,sp,-80
 130              		.cfi_def_cfa_offset 80
 131 0074 23341104 		sd	ra,72(sp)
 132 0078 23308104 		sd	s0,64(sp)
 133              		.cfi_offset 1, -8
 134              		.cfi_offset 8, -16
 135 007c 13040105 		addi	s0,sp,80
 136              		.cfi_def_cfa 8, 0
 137 0080 2334A4FC 		sd	a0,-56(s0)
 138 0084 2330B4FC 		sd	a1,-64(s0)
 139 0088 233CC4FA 		sd	a2,-72(s0)
  57:src/syscall_c.cpp ****     size_t blockNum = MemoryAllocator::convert2Blocks(sizeof(uint64) * DEFAULT_STACK_SIZE);
 140              		.loc 1 57 5
 141              		.loc 1 57 54 is_stmt 0
 142 008c 37850000 		li	a0,32768
 143              	.LVL9:
 144 0090 97000000 		call	_ZN15MemoryAllocator14convert2BlocksEm@plt
 144      E7800000 
 145              	.LVL10:
  58:src/syscall_c.cpp ****     void* stack_space = MemoryAllocator::mem_alloc(blockNum);
 146              		.loc 1 58 5 is_stmt 1
 147              		.loc 1 58 51 is_stmt 0
 148 0098 97000000 		call	_ZN15MemoryAllocator9mem_allocEm@plt
 148      E7800000 
 149              	.LVL11:
 150              		.loc 1 58 60
 151 00a0 2334A4FE 		sd	a0,-24(s0)
  59:src/syscall_c.cpp **** 
  60:src/syscall_c.cpp **** //    blockNum = MemoryAllocator::convert2Blocks(sizeof(_thread**));
  61:src/syscall_c.cpp **** //    handle = (_thread**) MemoryAllocator::mem_alloc(blockNum);
  62:src/syscall_c.cpp **** //
  63:src/syscall_c.cpp **** //    blockNum = MemoryAllocator::convert2Blocks(sizeof(_thread*));
  64:src/syscall_c.cpp **** //    *handle = (_thread*) MemoryAllocator::mem_alloc(blockNum);
  65:src/syscall_c.cpp **** 
  66:src/syscall_c.cpp ****     size_t code = 0x0000000000000011UL;
 152              		.loc 1 66 5 is_stmt 1
 153              		.loc 1 66 12 is_stmt 0
 154 00a4 93071001 		li	a5,17
 155 00a8 2330F4FE 		sd	a5,-32(s0)
  67:src/syscall_c.cpp ****     asm volatile("ld a0, %0" : : "m" (code));
 156              		.loc 1 67 5 is_stmt 1
 157              		.loc 1 67 45 is_stmt 0
 158              	#APP
 159              	# 67 "src/syscall_c.cpp" 1
  68              	    asm volatile("ld a1, %0" : : "m" (handle));
 160              		ld a0, -32(s0)
 161              	# 0 "" 2
 162              		.loc 1 68 5 is_stmt 1
 163              		.loc 1 68 47 is_stmt 0
GAS LISTING /tmp/ccmQdT9b.s 			page 5


 164              	# 68 "src/syscall_c.cpp" 1
  69              	    asm volatile("ld a2, %0" : : "m" (start_routine));
 165              		ld a1, -56(s0)
 166              	# 0 "" 2
 167              		.loc 1 69 5 is_stmt 1
 168              		.loc 1 69 54 is_stmt 0
 169              	# 69 "src/syscall_c.cpp" 1
  70              	    asm volatile("ld a3, %0" : : "m" (arg));
 170              		ld a2, -64(s0)
 171              	# 0 "" 2
 172              		.loc 1 70 5 is_stmt 1
 173              		.loc 1 70 44 is_stmt 0
 174              	# 70 "src/syscall_c.cpp" 1
  71              	    asm volatile("ld a4, %0" : : "m" (stack_space));
 175              		ld a3, -72(s0)
 176              	# 0 "" 2
 177              		.loc 1 71 5 is_stmt 1
 178              		.loc 1 71 52 is_stmt 0
 179              	# 71 "src/syscall_c.cpp" 1
  72              	
  73:src/syscall_c.cpp ****     asm volatile("ecall");
 180              		ld a4, -24(s0)
 181              	# 0 "" 2
 182              		.loc 1 73 5 is_stmt 1
 183              		.loc 1 73 26 is_stmt 0
 184              	# 73 "src/syscall_c.cpp" 1
  74              	
  75:src/syscall_c.cpp ****     int val;
 185              		ecall
 186              	# 0 "" 2
 187              		.loc 1 75 5 is_stmt 1
  76:src/syscall_c.cpp **** 
  77:src/syscall_c.cpp ****     asm volatile("sd a0, %0" : "=m" (val));
 188              		.loc 1 77 5
 189              		.loc 1 77 43 is_stmt 0
 190              	# 77 "src/syscall_c.cpp" 1
  78              	
  79:src/syscall_c.cpp ****     if (val < 0)
 191              		sd a0, -36(s0)
 192              	# 0 "" 2
 193              		.loc 1 79 5 is_stmt 1
  80:src/syscall_c.cpp ****         return val;
  81:src/syscall_c.cpp **** 
  82:src/syscall_c.cpp **** //    printString("\nnew thread: ");
  83:src/syscall_c.cpp **** //    printInteger((uint64) *handle);
  84:src/syscall_c.cpp **** //    printString("\n");
  85:src/syscall_c.cpp **** 
  86:src/syscall_c.cpp ****     return val;
  87:src/syscall_c.cpp **** }
 194              		.loc 1 87 1 is_stmt 0
 195              	#NO_APP
 196 00c8 0325C4FD 		lw	a0,-36(s0)
 197 00cc 83308104 		ld	ra,72(sp)
 198              		.cfi_restore 1
 199 00d0 03340104 		ld	s0,64(sp)
 200              		.cfi_restore 8
 201              		.cfi_def_cfa 2, 80
GAS LISTING /tmp/ccmQdT9b.s 			page 6


 202 00d4 13010105 		addi	sp,sp,80
 203              		.cfi_def_cfa_offset 0
 204 00d8 67800000 		jr	ra
 205              		.cfi_endproc
 206              	.LFE27:
 208              		.align	2
 209              		.globl	_Z11thread_exitv
 211              	_Z11thread_exitv:
 212              	.LFB28:
  88:src/syscall_c.cpp **** 
  89:src/syscall_c.cpp **** int thread_exit ()
  90:src/syscall_c.cpp **** {
 213              		.loc 1 90 1 is_stmt 1
 214              		.cfi_startproc
 215 00dc 130101FE 		addi	sp,sp,-32
 216              		.cfi_def_cfa_offset 32
 217 00e0 233C8100 		sd	s0,24(sp)
 218              		.cfi_offset 8, -8
 219 00e4 13040102 		addi	s0,sp,32
 220              		.cfi_def_cfa 8, 0
  91:src/syscall_c.cpp ****     size_t code = 0x0000000000000012UL;
 221              		.loc 1 91 5
 222              		.loc 1 91 12 is_stmt 0
 223 00e8 93072001 		li	a5,18
 224 00ec 2334F4FE 		sd	a5,-24(s0)
  92:src/syscall_c.cpp ****     asm volatile("ld a0, %0" : : "m" (code));
 225              		.loc 1 92 5 is_stmt 1
 226              		.loc 1 92 45 is_stmt 0
 227              	#APP
 228              	# 92 "src/syscall_c.cpp" 1
  93              	
  94:src/syscall_c.cpp ****     asm volatile("ecall");
 229              		ld a0, -24(s0)
 230              	# 0 "" 2
 231              		.loc 1 94 5 is_stmt 1
 232              		.loc 1 94 26 is_stmt 0
 233              	# 94 "src/syscall_c.cpp" 1
  95              	
  96:src/syscall_c.cpp **** 
  97:src/syscall_c.cpp ****     // if this code is executed -> error exiting thread
  98:src/syscall_c.cpp ****     int val;
 234              		ecall
 235              	# 0 "" 2
 236              		.loc 1 98 5 is_stmt 1
  99:src/syscall_c.cpp **** 
 100:src/syscall_c.cpp ****     asm volatile("sd a0, %0" : "=m" (val));
 237              		.loc 1 100 5
 238              		.loc 1 100 43 is_stmt 0
 239              	# 100 "src/syscall_c.cpp" 1
 101              	
 102:src/syscall_c.cpp ****     return val;
 240              		sd a0, -28(s0)
 241              	# 0 "" 2
 242              		.loc 1 102 5 is_stmt 1
 103:src/syscall_c.cpp **** }
 243              		.loc 1 103 1 is_stmt 0
 244              	#NO_APP
GAS LISTING /tmp/ccmQdT9b.s 			page 7


 245 00fc 032544FE 		lw	a0,-28(s0)
 246 0100 03348101 		ld	s0,24(sp)
 247              		.cfi_restore 8
 248              		.cfi_def_cfa 2, 32
 249 0104 13010102 		addi	sp,sp,32
 250              		.cfi_def_cfa_offset 0
 251 0108 67800000 		jr	ra
 252              		.cfi_endproc
 253              	.LFE28:
 255              		.align	2
 256              		.globl	_Z15thread_dispatchv
 258              	_Z15thread_dispatchv:
 259              	.LFB29:
 104:src/syscall_c.cpp **** 
 105:src/syscall_c.cpp **** 
 106:src/syscall_c.cpp **** void thread_dispatch ()
 107:src/syscall_c.cpp **** {
 260              		.loc 1 107 1 is_stmt 1
 261              		.cfi_startproc
 262 010c 130101FE 		addi	sp,sp,-32
 263              		.cfi_def_cfa_offset 32
 264 0110 233C8100 		sd	s0,24(sp)
 265              		.cfi_offset 8, -8
 266 0114 13040102 		addi	s0,sp,32
 267              		.cfi_def_cfa 8, 0
 108:src/syscall_c.cpp ****     size_t code = 0x0000000000000013UL;
 268              		.loc 1 108 5
 269              		.loc 1 108 12 is_stmt 0
 270 0118 93073001 		li	a5,19
 271 011c 2334F4FE 		sd	a5,-24(s0)
 109:src/syscall_c.cpp ****     asm volatile("ld a0, %0" : : "m" (code));
 272              		.loc 1 109 5 is_stmt 1
 273              		.loc 1 109 45 is_stmt 0
 274              	#APP
 275              	# 109 "src/syscall_c.cpp" 1
 110              	
 111:src/syscall_c.cpp ****     asm volatile("ecall");
 276              		ld a0, -24(s0)
 277              	# 0 "" 2
 278              		.loc 1 111 5 is_stmt 1
 279              		.loc 1 111 26 is_stmt 0
 280              	# 111 "src/syscall_c.cpp" 1
 112              	}
 281              		ecall
 282              	# 0 "" 2
 283              		.loc 1 112 1
 284              	#NO_APP
 285 0128 03348101 		ld	s0,24(sp)
 286              		.cfi_restore 8
 287              		.cfi_def_cfa 2, 32
 288 012c 13010102 		addi	sp,sp,32
 289              		.cfi_def_cfa_offset 0
 290 0130 67800000 		jr	ra
 291              		.cfi_endproc
 292              	.LFE29:
 294              	.Letext0:
 295              		.file 2 "src/../h/../lib/hw.h"
GAS LISTING /tmp/ccmQdT9b.s 			page 8


 296              		.file 3 "src/../h/../h/thread.hpp"
 297              		.file 4 "src/../h/MemoryAllocator.hpp"
GAS LISTING /tmp/ccmQdT9b.s 			page 9

