GAS LISTING /tmp/cc2otsFd.s 			page 1


   1              		.file	"syscall_c.cpp"
   2              		.option pic
   3              		.option norelax
   4              		.text
   5              	.Ltext0:
   6              		.align	2
   7              		.globl	_Z9mem_allocm
   9              	_Z9mem_allocm:
  10              	.LFB24:
  11              		.file 1 "src/syscall_c.cpp"
   1:src/syscall_c.cpp **** //
   2:src/syscall_c.cpp **** // Created by os on 8/9/23.
   3:src/syscall_c.cpp **** //
   4:src/syscall_c.cpp **** 
   5:src/syscall_c.cpp **** #include "../h/syscall_c.hpp"
   6:src/syscall_c.cpp **** #include "../h/print.hpp"
   7:src/syscall_c.cpp **** #include "../h/MemoryAllocator.hpp"
   8:src/syscall_c.cpp **** #include "../h/thread.hpp"
   9:src/syscall_c.cpp **** #include "../h/scheduler.hpp"
  10:src/syscall_c.cpp **** 
  11:src/syscall_c.cpp **** void* mem_alloc (size_t size)
  12:src/syscall_c.cpp **** {
  12              		.loc 1 12 1
  13              		.cfi_startproc
  14              	.LVL0:
  15 0000 130101FD 		addi	sp,sp,-48
  16              		.cfi_def_cfa_offset 48
  17 0004 23341102 		sd	ra,40(sp)
  18 0008 23308102 		sd	s0,32(sp)
  19              		.cfi_offset 1, -8
  20              		.cfi_offset 8, -16
  21 000c 13040103 		addi	s0,sp,48
  22              		.cfi_def_cfa 8, 0
  13:src/syscall_c.cpp ****     size_t blockNum = MemoryAllocator::convert2Blocks(size);
  23              		.loc 1 13 5
  24              		.loc 1 13 54 is_stmt 0
  25 0010 97000000 		call	_ZN15MemoryAllocator14convert2BlocksEm@plt
  25      E7800000 
  26              	.LVL1:
  27              		.loc 1 13 59
  28 0018 2334A4FE 		sd	a0,-24(s0)
  14:src/syscall_c.cpp **** 
  15:src/syscall_c.cpp ****     size_t code = 0x0000000000000001UL;
  29              		.loc 1 15 5 is_stmt 1
  30              		.loc 1 15 12 is_stmt 0
  31 001c 93071000 		li	a5,1
  32 0020 2330F4FE 		sd	a5,-32(s0)
  16:src/syscall_c.cpp ****     __asm__ volatile("ld a0, %0" : : "m" (code));
  33              		.loc 1 16 5 is_stmt 1
  34              		.loc 1 16 49 is_stmt 0
  35              	#APP
  36              	# 16 "src/syscall_c.cpp" 1
  17              	
  18:src/syscall_c.cpp ****     __asm__ volatile("ld a1, %0" : : "m" (blockNum));
  37              		ld a0, -32(s0)
  38              	# 0 "" 2
  39              		.loc 1 18 5 is_stmt 1
GAS LISTING /tmp/cc2otsFd.s 			page 2


  40              		.loc 1 18 53 is_stmt 0
  41              	# 18 "src/syscall_c.cpp" 1
  19              	
  20:src/syscall_c.cpp ****     __asm__ volatile("ecall");
  42              		ld a1, -24(s0)
  43              	# 0 "" 2
  44              		.loc 1 20 5 is_stmt 1
  45              		.loc 1 20 30 is_stmt 0
  46              	# 20 "src/syscall_c.cpp" 1
  21              	
  22:src/syscall_c.cpp ****     void* ptr;
  47              		ecall
  48              	# 0 "" 2
  49              		.loc 1 22 5 is_stmt 1
  23:src/syscall_c.cpp **** 
  24:src/syscall_c.cpp ****     asm volatile("sd a0, %0" : "=m" (ptr));
  50              		.loc 1 24 5
  51              		.loc 1 24 43 is_stmt 0
  52              	# 24 "src/syscall_c.cpp" 1
  25              	
  26:src/syscall_c.cpp **** //    printString("mem_alloc: ");
  27:src/syscall_c.cpp **** //    printInteger(size_t(ptr));
  28:src/syscall_c.cpp **** //    printString("\n");
  29:src/syscall_c.cpp **** 
  30:src/syscall_c.cpp ****     return ptr;
  53              		sd a0, -40(s0)
  54              	# 0 "" 2
  55              		.loc 1 30 5 is_stmt 1
  31:src/syscall_c.cpp **** }
  56              		.loc 1 31 1 is_stmt 0
  57              	#NO_APP
  58 0034 033584FD 		ld	a0,-40(s0)
  59 0038 83308102 		ld	ra,40(sp)
  60              		.cfi_restore 1
  61 003c 03340102 		ld	s0,32(sp)
  62              		.cfi_restore 8
  63              		.cfi_def_cfa 2, 48
  64 0040 13010103 		addi	sp,sp,48
  65              		.cfi_def_cfa_offset 0
  66 0044 67800000 		jr	ra
  67              		.cfi_endproc
  68              	.LFE24:
  70              		.align	2
  71              		.globl	_Z8mem_freePv
  73              	_Z8mem_freePv:
  74              	.LFB25:
  32:src/syscall_c.cpp **** 
  33:src/syscall_c.cpp **** int mem_free (void* ptr)
  34:src/syscall_c.cpp **** {
  75              		.loc 1 34 1 is_stmt 1
  76              		.cfi_startproc
  77              	.LVL2:
  78 0048 130101FD 		addi	sp,sp,-48
  79              		.cfi_def_cfa_offset 48
  80 004c 23348102 		sd	s0,40(sp)
  81              		.cfi_offset 8, -8
  82 0050 13040103 		addi	s0,sp,48
GAS LISTING /tmp/cc2otsFd.s 			page 3


  83              		.cfi_def_cfa 8, 0
  84 0054 233CA4FC 		sd	a0,-40(s0)
  35:src/syscall_c.cpp ****     size_t code = 0x0000000000000002UL;
  85              		.loc 1 35 5
  86              		.loc 1 35 12 is_stmt 0
  87 0058 93072000 		li	a5,2
  88 005c 2334F4FE 		sd	a5,-24(s0)
  36:src/syscall_c.cpp ****     asm volatile("ld a0, %0" : : "m" (code));
  89              		.loc 1 36 5 is_stmt 1
  90              		.loc 1 36 45 is_stmt 0
  91              	#APP
  92              	# 36 "src/syscall_c.cpp" 1
  37              	
  38:src/syscall_c.cpp ****     asm volatile("ld a1, %0" : : "m" (ptr));
  93              		ld a0, -24(s0)
  94              	# 0 "" 2
  95              		.loc 1 38 5 is_stmt 1
  96              		.loc 1 38 44 is_stmt 0
  97              	# 38 "src/syscall_c.cpp" 1
  39              	
  40:src/syscall_c.cpp ****     asm volatile("ecall");
  98              		ld a1, -40(s0)
  99              	# 0 "" 2
 100              		.loc 1 40 5 is_stmt 1
 101              		.loc 1 40 26 is_stmt 0
 102              	# 40 "src/syscall_c.cpp" 1
  41              	
  42:src/syscall_c.cpp ****     int val;
 103              		ecall
 104              	# 0 "" 2
 105              		.loc 1 42 5 is_stmt 1
  43:src/syscall_c.cpp **** 
  44:src/syscall_c.cpp ****     asm volatile("sd a0, %0" : "=m" (val));
 106              		.loc 1 44 5
 107              		.loc 1 44 43 is_stmt 0
 108              	# 44 "src/syscall_c.cpp" 1
  45              	
  46:src/syscall_c.cpp **** //    printString("mem_free: ");
  47:src/syscall_c.cpp **** //    printInteger(val);
  48:src/syscall_c.cpp **** //    printString("\n");
  49:src/syscall_c.cpp **** 
  50:src/syscall_c.cpp ****     return val;
 109              		sd a0, -28(s0)
 110              	# 0 "" 2
 111              		.loc 1 50 5 is_stmt 1
  51:src/syscall_c.cpp **** }
 112              		.loc 1 51 1 is_stmt 0
 113              	#NO_APP
 114 0070 032544FE 		lw	a0,-28(s0)
 115              	.LVL3:
 116 0074 03348102 		ld	s0,40(sp)
 117              		.cfi_restore 8
 118              		.cfi_def_cfa 2, 48
 119              	.LVL4:
 120 0078 13010103 		addi	sp,sp,48
 121              		.cfi_def_cfa_offset 0
 122              	.LVL5:
GAS LISTING /tmp/cc2otsFd.s 			page 4


 123 007c 67800000 		jr	ra
 124              		.cfi_endproc
 125              	.LFE25:
 127              		.align	2
 128              		.globl	_Z13thread_createPP7_threadPFvPvES2_
 130              	_Z13thread_createPP7_threadPFvPvES2_:
 131              	.LFB26:
  52:src/syscall_c.cpp **** 
  53:src/syscall_c.cpp **** 
  54:src/syscall_c.cpp **** int thread_create (thread_t* handle, void(*start_routine)(void*), void* arg)
  55:src/syscall_c.cpp **** {
 132              		.loc 1 55 1 is_stmt 1
 133              		.cfi_startproc
 134              	.LVL6:
 135 0080 130101FB 		addi	sp,sp,-80
 136              		.cfi_def_cfa_offset 80
 137 0084 23341104 		sd	ra,72(sp)
 138 0088 23308104 		sd	s0,64(sp)
 139              		.cfi_offset 1, -8
 140              		.cfi_offset 8, -16
 141 008c 13040105 		addi	s0,sp,80
 142              		.cfi_def_cfa 8, 0
 143 0090 2334A4FC 		sd	a0,-56(s0)
 144 0094 2330B4FC 		sd	a1,-64(s0)
 145 0098 233CC4FA 		sd	a2,-72(s0)
  56:src/syscall_c.cpp ****     size_t blockNum = MemoryAllocator::convert2Blocks(sizeof(uint64) * DEFAULT_STACK_SIZE);
 146              		.loc 1 56 5
 147              		.loc 1 56 54 is_stmt 0
 148 009c 37850000 		li	a0,32768
 149              	.LVL7:
 150 00a0 97000000 		call	_ZN15MemoryAllocator14convert2BlocksEm@plt
 150      E7800000 
 151              	.LVL8:
  57:src/syscall_c.cpp ****     void* stack_space = MemoryAllocator::mem_alloc(blockNum);
 152              		.loc 1 57 5 is_stmt 1
 153              		.loc 1 57 51 is_stmt 0
 154 00a8 97000000 		call	_ZN15MemoryAllocator9mem_allocEm@plt
 154      E7800000 
 155              	.LVL9:
 156              		.loc 1 57 60
 157 00b0 2334A4FE 		sd	a0,-24(s0)
  58:src/syscall_c.cpp **** 
  59:src/syscall_c.cpp **** //    blockNum = MemoryAllocator::convert2Blocks(sizeof(_thread**));
  60:src/syscall_c.cpp **** //    handle = (_thread**) MemoryAllocator::mem_alloc(blockNum);
  61:src/syscall_c.cpp **** //
  62:src/syscall_c.cpp **** //    blockNum = MemoryAllocator::convert2Blocks(sizeof(_thread*));
  63:src/syscall_c.cpp **** //    *handle = (_thread*) MemoryAllocator::mem_alloc(blockNum);
  64:src/syscall_c.cpp **** 
  65:src/syscall_c.cpp ****     size_t code = 0x0000000000000011UL;
 158              		.loc 1 65 5 is_stmt 1
 159              		.loc 1 65 12 is_stmt 0
 160 00b4 93071001 		li	a5,17
 161 00b8 2330F4FE 		sd	a5,-32(s0)
  66:src/syscall_c.cpp ****     asm volatile("ld a0, %0" : : "m" (code));
 162              		.loc 1 66 5 is_stmt 1
 163              		.loc 1 66 45 is_stmt 0
 164              	#APP
GAS LISTING /tmp/cc2otsFd.s 			page 5


 165              	# 66 "src/syscall_c.cpp" 1
  67              	    asm volatile("ld a1, %0" : : "m" (handle));
 166              		ld a0, -32(s0)
 167              	# 0 "" 2
 168              		.loc 1 67 5 is_stmt 1
 169              		.loc 1 67 47 is_stmt 0
 170              	# 67 "src/syscall_c.cpp" 1
  68              	    asm volatile("ld a2, %0" : : "m" (start_routine));
 171              		ld a1, -56(s0)
 172              	# 0 "" 2
 173              		.loc 1 68 5 is_stmt 1
 174              		.loc 1 68 54 is_stmt 0
 175              	# 68 "src/syscall_c.cpp" 1
  69              	    asm volatile("ld a3, %0" : : "m" (arg));
 176              		ld a2, -64(s0)
 177              	# 0 "" 2
 178              		.loc 1 69 5 is_stmt 1
 179              		.loc 1 69 44 is_stmt 0
 180              	# 69 "src/syscall_c.cpp" 1
  70              	    asm volatile("ld a4, %0" : : "m" (stack_space));
 181              		ld a3, -72(s0)
 182              	# 0 "" 2
 183              		.loc 1 70 5 is_stmt 1
 184              		.loc 1 70 52 is_stmt 0
 185              	# 70 "src/syscall_c.cpp" 1
  71              	
  72:src/syscall_c.cpp ****     asm volatile("ecall");
 186              		ld a4, -24(s0)
 187              	# 0 "" 2
 188              		.loc 1 72 5 is_stmt 1
 189              		.loc 1 72 26 is_stmt 0
 190              	# 72 "src/syscall_c.cpp" 1
  73              	
  74:src/syscall_c.cpp ****     int val;
 191              		ecall
 192              	# 0 "" 2
 193              		.loc 1 74 5 is_stmt 1
  75:src/syscall_c.cpp **** 
  76:src/syscall_c.cpp ****     asm volatile("sd a0, %0" : "=m" (val));
 194              		.loc 1 76 5
 195              		.loc 1 76 43 is_stmt 0
 196              	# 76 "src/syscall_c.cpp" 1
  77              	
  78:src/syscall_c.cpp ****     if (val < 0)
 197              		sd a0, -36(s0)
 198              	# 0 "" 2
 199              		.loc 1 78 5 is_stmt 1
  79:src/syscall_c.cpp ****         return val;
  80:src/syscall_c.cpp **** 
  81:src/syscall_c.cpp ****     return val;
  82:src/syscall_c.cpp **** }
 200              		.loc 1 82 1 is_stmt 0
 201              	#NO_APP
 202 00d8 0325C4FD 		lw	a0,-36(s0)
 203 00dc 83308104 		ld	ra,72(sp)
 204              		.cfi_restore 1
 205 00e0 03340104 		ld	s0,64(sp)
GAS LISTING /tmp/cc2otsFd.s 			page 6


 206              		.cfi_restore 8
 207              		.cfi_def_cfa 2, 80
 208 00e4 13010105 		addi	sp,sp,80
 209              		.cfi_def_cfa_offset 0
 210 00e8 67800000 		jr	ra
 211              		.cfi_endproc
 212              	.LFE26:
 214              		.align	2
 215              		.globl	_Z11thread_exitv
 217              	_Z11thread_exitv:
 218              	.LFB27:
  83:src/syscall_c.cpp **** 
  84:src/syscall_c.cpp **** int thread_exit ()
  85:src/syscall_c.cpp **** {
 219              		.loc 1 85 1 is_stmt 1
 220              		.cfi_startproc
 221 00ec 130101FE 		addi	sp,sp,-32
 222              		.cfi_def_cfa_offset 32
 223 00f0 233C8100 		sd	s0,24(sp)
 224              		.cfi_offset 8, -8
 225 00f4 13040102 		addi	s0,sp,32
 226              		.cfi_def_cfa 8, 0
  86:src/syscall_c.cpp ****     size_t code = 0x0000000000000012UL;
 227              		.loc 1 86 5
 228              		.loc 1 86 12 is_stmt 0
 229 00f8 93072001 		li	a5,18
 230 00fc 2334F4FE 		sd	a5,-24(s0)
  87:src/syscall_c.cpp ****     asm volatile("ld a0, %0" : : "m" (code));
 231              		.loc 1 87 5 is_stmt 1
 232              		.loc 1 87 45 is_stmt 0
 233              	#APP
 234              	# 87 "src/syscall_c.cpp" 1
  88              	
  89:src/syscall_c.cpp ****     asm volatile("ecall");
 235              		ld a0, -24(s0)
 236              	# 0 "" 2
 237              		.loc 1 89 5 is_stmt 1
 238              		.loc 1 89 26 is_stmt 0
 239              	# 89 "src/syscall_c.cpp" 1
  90              	
  91:src/syscall_c.cpp **** 
  92:src/syscall_c.cpp ****     // if this code is executed -> error exiting thread
  93:src/syscall_c.cpp ****     int val;
 240              		ecall
 241              	# 0 "" 2
 242              		.loc 1 93 5 is_stmt 1
  94:src/syscall_c.cpp **** 
  95:src/syscall_c.cpp ****     asm volatile("sd a0, %0" : "=m" (val));
 243              		.loc 1 95 5
 244              		.loc 1 95 43 is_stmt 0
 245              	# 95 "src/syscall_c.cpp" 1
  96              	
  97:src/syscall_c.cpp ****     return val;
 246              		sd a0, -28(s0)
 247              	# 0 "" 2
 248              		.loc 1 97 5 is_stmt 1
  98:src/syscall_c.cpp **** }
GAS LISTING /tmp/cc2otsFd.s 			page 7


 249              		.loc 1 98 1 is_stmt 0
 250              	#NO_APP
 251 010c 032544FE 		lw	a0,-28(s0)
 252 0110 03348101 		ld	s0,24(sp)
 253              		.cfi_restore 8
 254              		.cfi_def_cfa 2, 32
 255 0114 13010102 		addi	sp,sp,32
 256              		.cfi_def_cfa_offset 0
 257 0118 67800000 		jr	ra
 258              		.cfi_endproc
 259              	.LFE27:
 261              		.align	2
 262              		.globl	_Z15thread_dispatchv
 264              	_Z15thread_dispatchv:
 265              	.LFB28:
  99:src/syscall_c.cpp **** 
 100:src/syscall_c.cpp **** void thread_dispatch ()
 101:src/syscall_c.cpp **** {
 266              		.loc 1 101 1 is_stmt 1
 267              		.cfi_startproc
 268 011c 130101FE 		addi	sp,sp,-32
 269              		.cfi_def_cfa_offset 32
 270 0120 233C8100 		sd	s0,24(sp)
 271              		.cfi_offset 8, -8
 272 0124 13040102 		addi	s0,sp,32
 273              		.cfi_def_cfa 8, 0
 102:src/syscall_c.cpp ****     size_t code = 0x0000000000000013UL;
 274              		.loc 1 102 5
 275              		.loc 1 102 12 is_stmt 0
 276 0128 93073001 		li	a5,19
 277 012c 2334F4FE 		sd	a5,-24(s0)
 103:src/syscall_c.cpp ****     asm volatile("ld a0, %0" : : "m" (code));
 278              		.loc 1 103 5 is_stmt 1
 279              		.loc 1 103 45 is_stmt 0
 280              	#APP
 281              	# 103 "src/syscall_c.cpp" 1
 104              	
 105:src/syscall_c.cpp ****     asm volatile("ecall");
 282              		ld a0, -24(s0)
 283              	# 0 "" 2
 284              		.loc 1 105 5 is_stmt 1
 285              		.loc 1 105 26 is_stmt 0
 286              	# 105 "src/syscall_c.cpp" 1
 106              	}
 287              		ecall
 288              	# 0 "" 2
 289              		.loc 1 106 1
 290              	#NO_APP
 291 0138 03348101 		ld	s0,24(sp)
 292              		.cfi_restore 8
 293              		.cfi_def_cfa 2, 32
 294 013c 13010102 		addi	sp,sp,32
 295              		.cfi_def_cfa_offset 0
 296 0140 67800000 		jr	ra
 297              		.cfi_endproc
 298              	.LFE28:
 300              	.Letext0:
GAS LISTING /tmp/cc2otsFd.s 			page 8


 301              		.file 2 "src/../h/../lib/hw.h"
 302              		.file 3 "src/../h/../h/thread.hpp"
 303              		.file 4 "src/../h/MemoryAllocator.hpp"
GAS LISTING /tmp/cc2otsFd.s 			page 9


DEFINED SYMBOLS
                            *ABS*:0000000000000000 syscall_c.cpp
     /tmp/cc2otsFd.s:9      .text:0000000000000000 _Z9mem_allocm
     /tmp/cc2otsFd.s:13     .text:0000000000000000 .L0 
     /tmp/cc2otsFd.s:15     .text:0000000000000000 .L0 
     /tmp/cc2otsFd.s:16     .text:0000000000000004 .L0 
     /tmp/cc2otsFd.s:19     .text:000000000000000c .L0 
     /tmp/cc2otsFd.s:20     .text:000000000000000c .L0 
     /tmp/cc2otsFd.s:22     .text:0000000000000010 .L0 
     /tmp/cc2otsFd.s:24     .text:0000000000000010 .L0 
     /tmp/cc2otsFd.s:25     .text:0000000000000010 .L0 
     /tmp/cc2otsFd.s:28     .text:0000000000000018 .L0 
     /tmp/cc2otsFd.s:30     .text:000000000000001c .L0 
     /tmp/cc2otsFd.s:31     .text:000000000000001c .L0 
     /tmp/cc2otsFd.s:34     .text:0000000000000024 .L0 
   src/syscall_c.cpp:16     .text:0000000000000024 .L0 
     /tmp/cc2otsFd.s:40     .text:0000000000000028 .L0 
   src/syscall_c.cpp:18     .text:0000000000000028 .L0 
     /tmp/cc2otsFd.s:45     .text:000000000000002c .L0 
   src/syscall_c.cpp:20     .text:000000000000002c .L0 
     /tmp/cc2otsFd.s:50     .text:0000000000000030 .L0 
     /tmp/cc2otsFd.s:51     .text:0000000000000030 .L0 
   src/syscall_c.cpp:24     .text:0000000000000030 .L0 
     /tmp/cc2otsFd.s:56     .text:0000000000000034 .L0 
     /tmp/cc2otsFd.s:58     .text:0000000000000034 .L0 
     /tmp/cc2otsFd.s:60     .text:000000000000003c .L0 
     /tmp/cc2otsFd.s:62     .text:0000000000000040 .L0 
     /tmp/cc2otsFd.s:63     .text:0000000000000040 .L0 
     /tmp/cc2otsFd.s:65     .text:0000000000000044 .L0 
     /tmp/cc2otsFd.s:67     .text:0000000000000048 .L0 
     /tmp/cc2otsFd.s:73     .text:0000000000000048 _Z8mem_freePv
     /tmp/cc2otsFd.s:76     .text:0000000000000048 .L0 
     /tmp/cc2otsFd.s:78     .text:0000000000000048 .L0 
     /tmp/cc2otsFd.s:79     .text:000000000000004c .L0 
     /tmp/cc2otsFd.s:81     .text:0000000000000050 .L0 
     /tmp/cc2otsFd.s:83     .text:0000000000000054 .L0 
     /tmp/cc2otsFd.s:86     .text:0000000000000058 .L0 
     /tmp/cc2otsFd.s:87     .text:0000000000000058 .L0 
     /tmp/cc2otsFd.s:90     .text:0000000000000060 .L0 
   src/syscall_c.cpp:36     .text:0000000000000060 .L0 
     /tmp/cc2otsFd.s:96     .text:0000000000000064 .L0 
   src/syscall_c.cpp:38     .text:0000000000000064 .L0 
     /tmp/cc2otsFd.s:101    .text:0000000000000068 .L0 
   src/syscall_c.cpp:40     .text:0000000000000068 .L0 
     /tmp/cc2otsFd.s:106    .text:000000000000006c .L0 
     /tmp/cc2otsFd.s:107    .text:000000000000006c .L0 
   src/syscall_c.cpp:44     .text:000000000000006c .L0 
     /tmp/cc2otsFd.s:112    .text:0000000000000070 .L0 
     /tmp/cc2otsFd.s:114    .text:0000000000000070 .L0 
     /tmp/cc2otsFd.s:117    .text:0000000000000078 .L0 
     /tmp/cc2otsFd.s:118    .text:0000000000000078 .L0 
     /tmp/cc2otsFd.s:121    .text:000000000000007c .L0 
     /tmp/cc2otsFd.s:124    .text:0000000000000080 .L0 
     /tmp/cc2otsFd.s:130    .text:0000000000000080 _Z13thread_createPP7_threadPFvPvES2_
     /tmp/cc2otsFd.s:133    .text:0000000000000080 .L0 
     /tmp/cc2otsFd.s:135    .text:0000000000000080 .L0 
     /tmp/cc2otsFd.s:136    .text:0000000000000084 .L0 
GAS LISTING /tmp/cc2otsFd.s 			page 10


     /tmp/cc2otsFd.s:139    .text:000000000000008c .L0 
     /tmp/cc2otsFd.s:140    .text:000000000000008c .L0 
     /tmp/cc2otsFd.s:142    .text:0000000000000090 .L0 
     /tmp/cc2otsFd.s:147    .text:000000000000009c .L0 
     /tmp/cc2otsFd.s:148    .text:000000000000009c .L0 
     /tmp/cc2otsFd.s:153    .text:00000000000000a8 .L0 
     /tmp/cc2otsFd.s:154    .text:00000000000000a8 .L0 
     /tmp/cc2otsFd.s:157    .text:00000000000000b0 .L0 
     /tmp/cc2otsFd.s:159    .text:00000000000000b4 .L0 
     /tmp/cc2otsFd.s:160    .text:00000000000000b4 .L0 
     /tmp/cc2otsFd.s:163    .text:00000000000000bc .L0 
   src/syscall_c.cpp:66     .text:00000000000000bc .L0 
     /tmp/cc2otsFd.s:169    .text:00000000000000c0 .L0 
   src/syscall_c.cpp:67     .text:00000000000000c0 .L0 
     /tmp/cc2otsFd.s:174    .text:00000000000000c4 .L0 
   src/syscall_c.cpp:68     .text:00000000000000c4 .L0 
     /tmp/cc2otsFd.s:179    .text:00000000000000c8 .L0 
   src/syscall_c.cpp:69     .text:00000000000000c8 .L0 
     /tmp/cc2otsFd.s:184    .text:00000000000000cc .L0 
   src/syscall_c.cpp:70     .text:00000000000000cc .L0 
     /tmp/cc2otsFd.s:189    .text:00000000000000d0 .L0 
   src/syscall_c.cpp:72     .text:00000000000000d0 .L0 
     /tmp/cc2otsFd.s:194    .text:00000000000000d4 .L0 
     /tmp/cc2otsFd.s:195    .text:00000000000000d4 .L0 
   src/syscall_c.cpp:76     .text:00000000000000d4 .L0 
     /tmp/cc2otsFd.s:200    .text:00000000000000d8 .L0 
     /tmp/cc2otsFd.s:202    .text:00000000000000d8 .L0 
     /tmp/cc2otsFd.s:204    .text:00000000000000e0 .L0 
     /tmp/cc2otsFd.s:206    .text:00000000000000e4 .L0 
     /tmp/cc2otsFd.s:207    .text:00000000000000e4 .L0 
     /tmp/cc2otsFd.s:209    .text:00000000000000e8 .L0 
     /tmp/cc2otsFd.s:211    .text:00000000000000ec .L0 
     /tmp/cc2otsFd.s:217    .text:00000000000000ec _Z11thread_exitv
     /tmp/cc2otsFd.s:220    .text:00000000000000ec .L0 
     /tmp/cc2otsFd.s:221    .text:00000000000000ec .L0 
     /tmp/cc2otsFd.s:222    .text:00000000000000f0 .L0 
     /tmp/cc2otsFd.s:224    .text:00000000000000f4 .L0 
     /tmp/cc2otsFd.s:226    .text:00000000000000f8 .L0 
     /tmp/cc2otsFd.s:228    .text:00000000000000f8 .L0 
     /tmp/cc2otsFd.s:229    .text:00000000000000f8 .L0 
     /tmp/cc2otsFd.s:232    .text:0000000000000100 .L0 
   src/syscall_c.cpp:87     .text:0000000000000100 .L0 
     /tmp/cc2otsFd.s:238    .text:0000000000000104 .L0 
   src/syscall_c.cpp:89     .text:0000000000000104 .L0 
     /tmp/cc2otsFd.s:243    .text:0000000000000108 .L0 
     /tmp/cc2otsFd.s:244    .text:0000000000000108 .L0 
   src/syscall_c.cpp:95     .text:0000000000000108 .L0 
     /tmp/cc2otsFd.s:249    .text:000000000000010c .L0 
     /tmp/cc2otsFd.s:251    .text:000000000000010c .L0 
     /tmp/cc2otsFd.s:253    .text:0000000000000114 .L0 
     /tmp/cc2otsFd.s:254    .text:0000000000000114 .L0 
     /tmp/cc2otsFd.s:256    .text:0000000000000118 .L0 
     /tmp/cc2otsFd.s:258    .text:000000000000011c .L0 
     /tmp/cc2otsFd.s:264    .text:000000000000011c _Z15thread_dispatchv
     /tmp/cc2otsFd.s:267    .text:000000000000011c .L0 
     /tmp/cc2otsFd.s:268    .text:000000000000011c .L0 
     /tmp/cc2otsFd.s:269    .text:0000000000000120 .L0 
GAS LISTING /tmp/cc2otsFd.s 			page 11


     /tmp/cc2otsFd.s:271    .text:0000000000000124 .L0 
     /tmp/cc2otsFd.s:273    .text:0000000000000128 .L0 
     /tmp/cc2otsFd.s:275    .text:0000000000000128 .L0 
     /tmp/cc2otsFd.s:276    .text:0000000000000128 .L0 
     /tmp/cc2otsFd.s:279    .text:0000000000000130 .L0 
   src/syscall_c.cpp:103    .text:0000000000000130 .L0 
     /tmp/cc2otsFd.s:285    .text:0000000000000134 .L0 
   src/syscall_c.cpp:105    .text:0000000000000134 .L0 
     /tmp/cc2otsFd.s:291    .text:0000000000000138 .L0 
     /tmp/cc2otsFd.s:292    .text:000000000000013c .L0 
     /tmp/cc2otsFd.s:293    .text:000000000000013c .L0 
     /tmp/cc2otsFd.s:295    .text:0000000000000140 .L0 
     /tmp/cc2otsFd.s:297    .text:0000000000000144 .L0 
     /tmp/cc2otsFd.s:304    .text:0000000000000144 .L0 
     /tmp/cc2otsFd.s:920    .debug_abbrev:0000000000000000 .Ldebug_abbrev0
     /tmp/cc2otsFd.s:1679   .debug_str:0000000000000374 .LASF61
     /tmp/cc2otsFd.s:1621   .debug_str:00000000000001a0 .LASF62
     /tmp/cc2otsFd.s:1605   .debug_str:0000000000000104 .LASF63
     /tmp/cc2otsFd.s:5      .text:0000000000000000 .Ltext0
     /tmp/cc2otsFd.s:300    .text:0000000000000144 .Letext0
     /tmp/cc2otsFd.s:1561   .debug_line:0000000000000000 .Ldebug_line0
     /tmp/cc2otsFd.s:1641   .debug_str:0000000000000253 .LASF0
     /tmp/cc2otsFd.s:1651   .debug_str:0000000000000284 .LASF1
     /tmp/cc2otsFd.s:1631   .debug_str:00000000000001d6 .LASF2
     /tmp/cc2otsFd.s:1619   .debug_str:0000000000000199 .LASF4
     /tmp/cc2otsFd.s:1669   .debug_str:000000000000032b .LASF3
     /tmp/cc2otsFd.s:1577   .debug_str:0000000000000050 .LASF5
     /tmp/cc2otsFd.s:1657   .debug_str:00000000000002b3 .LASF6
     /tmp/cc2otsFd.s:1639   .debug_str:0000000000000240 .LASF7
     /tmp/cc2otsFd.s:1685   .debug_str:0000000000000465 .LASF8
     /tmp/cc2otsFd.s:1613   .debug_str:0000000000000166 .LASF9
     /tmp/cc2otsFd.s:1663   .debug_str:00000000000002fd .LASF10
     /tmp/cc2otsFd.s:1681   .debug_str:0000000000000438 .LASF11
     /tmp/cc2otsFd.s:1579   .debug_str:0000000000000057 .LASF12
     /tmp/cc2otsFd.s:1569   .debug_str:000000000000001f .LASF13
     /tmp/cc2otsFd.s:1583   .debug_str:000000000000008a .LASF14
     /tmp/cc2otsFd.s:1667   .debug_str:0000000000000315 .LASF15
     /tmp/cc2otsFd.s:1589   .debug_str:00000000000000b4 .LASF16
     /tmp/cc2otsFd.s:1617   .debug_str:0000000000000191 .LASF17
     /tmp/cc2otsFd.s:1573   .debug_str:000000000000003c .LASF18
     /tmp/cc2otsFd.s:1623   .debug_str:00000000000001b2 .LASF19
     /tmp/cc2otsFd.s:1629   .debug_str:00000000000001cd .LASF20
     /tmp/cc2otsFd.s:1645   .debug_str:000000000000026f .LASF21
     /tmp/cc2otsFd.s:1625   .debug_str:00000000000001b7 .LASF22
     /tmp/cc2otsFd.s:1649   .debug_str:000000000000027a .LASF23
     /tmp/cc2otsFd.s:1597   .debug_str:00000000000000e6 .LASF34
     /tmp/cc2otsFd.s:1571   .debug_str:000000000000002f .LASF38
     /tmp/cc2otsFd.s:1691   .debug_str:0000000000000484 .LASF40
     /tmp/cc2otsFd.s:1627   .debug_str:00000000000001bf .LASF24
     /tmp/cc2otsFd.s:1615   .debug_str:0000000000000174 .LASF26
     /tmp/cc2otsFd.s:1567   .debug_str:0000000000000010 .LASF25
     /tmp/cc2otsFd.s:1683   .debug_str:0000000000000447 .LASF27
     /tmp/cc2otsFd.s:1601   .debug_str:00000000000000f7 .LASF28
     /tmp/cc2otsFd.s:1563   .debug_str:0000000000000000 .LASF29
     /tmp/cc2otsFd.s:1603   .debug_str:00000000000000fc .LASF30
     /tmp/cc2otsFd.s:1693   .debug_str:00000000000004af .LASF31
     /tmp/cc2otsFd.s:1689   .debug_str:000000000000047f .LASF32
GAS LISTING /tmp/cc2otsFd.s 			page 12


     /tmp/cc2otsFd.s:1677   .debug_str:000000000000036f .LASF33
     /tmp/cc2otsFd.s:1635   .debug_str:0000000000000209 .LASF64
     /tmp/cc2otsFd.s:1665   .debug_str:000000000000030c .LASF35
     /tmp/cc2otsFd.s:1565   .debug_str:0000000000000009 .LASF36
     /tmp/cc2otsFd.s:1593   .debug_str:00000000000000d8 .LASF37
     /tmp/cc2otsFd.s:1687   .debug_str:0000000000000475 .LASF39
     /tmp/cc2otsFd.s:1659   .debug_str:00000000000002c6 .LASF41
     /tmp/cc2otsFd.s:1653   .debug_str:0000000000000297 .LASF65
     /tmp/cc2otsFd.s:1581   .debug_str:0000000000000067 .LASF66
     /tmp/cc2otsFd.s:1671   .debug_str:000000000000033d .LASF42
     /tmp/cc2otsFd.s:1673   .debug_str:0000000000000347 .LASF44
     /tmp/cc2otsFd.s:1595   .debug_str:00000000000000dd .LASF43
     /tmp/cc2otsFd.s:1611   .debug_str:0000000000000145 .LASF45
     /tmp/cc2otsFd.s:1643   .debug_str:0000000000000260 .LASF46
     /tmp/cc2otsFd.s:1637   .debug_str:0000000000000219 .LASF47
     /tmp/cc2otsFd.s:1585   .debug_str:0000000000000096 .LASF58
     /tmp/cc2otsFd.s:1607   .debug_str:0000000000000122 .LASF59
     /tmp/cc2otsFd.s:265    .text:000000000000011c .LFB28
     /tmp/cc2otsFd.s:298    .text:0000000000000144 .LFE28
     /tmp/cc2otsFd.s:1647   .debug_str:0000000000000275 .LASF48
     /tmp/cc2otsFd.s:1575   .debug_str:0000000000000044 .LASF49
     /tmp/cc2otsFd.s:1655   .debug_str:00000000000002a2 .LASF51
     /tmp/cc2otsFd.s:218    .text:00000000000000ec .LFB27
     /tmp/cc2otsFd.s:259    .text:000000000000011c .LFE27
     /tmp/cc2otsFd.s:1591   .debug_str:00000000000000ca .LASF50
     /tmp/cc2otsFd.s:1633   .debug_str:00000000000001e4 .LASF52
     /tmp/cc2otsFd.s:131    .text:0000000000000080 .LFB26
     /tmp/cc2otsFd.s:212    .text:00000000000000ec .LFE26
     /tmp/cc2otsFd.s:1675   .debug_str:0000000000000368 .LASF53
     /tmp/cc2otsFd.s:1479   .debug_loc:0000000000000000 .LLST2
     /tmp/cc2otsFd.s:1609   .debug_str:0000000000000137 .LASF54
     /tmp/cc2otsFd.s:1491   .debug_loc:0000000000000037 .LLST3
     /tmp/cc2otsFd.s:1498   .debug_loc:000000000000005a .LLST4
     /tmp/cc2otsFd.s:1599   .debug_str:00000000000000ee .LASF55
     /tmp/cc2otsFd.s:1505   .debug_loc:000000000000007d .LLST5
     /tmp/cc2otsFd.s:1695   .debug_str:00000000000004b4 .LASF56
     /tmp/cc2otsFd.s:151    .text:00000000000000a8 .LVL8
     /tmp/cc2otsFd.s:155    .text:00000000000000b0 .LVL9
     /tmp/cc2otsFd.s:1661   .debug_str:00000000000002ef .LASF57
     /tmp/cc2otsFd.s:74     .text:0000000000000048 .LFB25
     /tmp/cc2otsFd.s:125    .text:0000000000000080 .LFE25
     /tmp/cc2otsFd.s:1512   .debug_loc:00000000000000a0 .LLST1
     /tmp/cc2otsFd.s:1587   .debug_str:00000000000000a6 .LASF60
     /tmp/cc2otsFd.s:10     .text:0000000000000000 .LFB24
     /tmp/cc2otsFd.s:68     .text:0000000000000048 .LFE24
     /tmp/cc2otsFd.s:1534   .debug_loc:00000000000000ff .LLST0
     /tmp/cc2otsFd.s:26     .text:0000000000000018 .LVL1
     /tmp/cc2otsFd.s:134    .text:0000000000000080 .LVL6
     /tmp/cc2otsFd.s:149    .text:00000000000000a0 .LVL7
     /tmp/cc2otsFd.s:77     .text:0000000000000048 .LVL2
     /tmp/cc2otsFd.s:115    .text:0000000000000074 .LVL3
     /tmp/cc2otsFd.s:119    .text:0000000000000078 .LVL4
     /tmp/cc2otsFd.s:122    .text:000000000000007c .LVL5
     /tmp/cc2otsFd.s:14     .text:0000000000000000 .LVL0
     /tmp/cc2otsFd.s:305    .debug_info:0000000000000000 .Ldebug_info0

UNDEFINED SYMBOLS
GAS LISTING /tmp/cc2otsFd.s 			page 13


_ZN15MemoryAllocator14convert2BlocksEm
_ZN15MemoryAllocator9mem_allocEm
