GAS LISTING /tmp/cc71pHMn.s 			page 1


   1              		.file	"syscall_cpp.cpp"
   2              		.option pic
   3              		.option norelax
   4              		.text
   5              	.Ltext0:
   6              		.section	.text._ZN6Thread3runEv,"axG",@progbits,_ZN6Thread3runEv,comdat
   7              		.align	2
   8              		.weak	_ZN6Thread3runEv
  10              	_ZN6Thread3runEv:
  11              	.LFB16:
  12              		.file 1 "src/../h/syscall_cpp.hpp"
   1:src/../h/syscall_cpp.hpp **** //
   2:src/../h/syscall_cpp.hpp **** // Created by os on 8/18/23.
   3:src/../h/syscall_cpp.hpp **** //
   4:src/../h/syscall_cpp.hpp **** 
   5:src/../h/syscall_cpp.hpp **** 
   6:src/../h/syscall_cpp.hpp **** #ifndef syscall_cpp2
   7:src/../h/syscall_cpp.hpp **** #define syscall_cpp2
   8:src/../h/syscall_cpp.hpp **** 
   9:src/../h/syscall_cpp.hpp **** #include "syscall_c.hpp"
  10:src/../h/syscall_cpp.hpp **** 
  11:src/../h/syscall_cpp.hpp **** 
  12:src/../h/syscall_cpp.hpp **** void* operator new (size_t size);
  13:src/../h/syscall_cpp.hpp **** void operator delete (void* ptr);
  14:src/../h/syscall_cpp.hpp **** 
  15:src/../h/syscall_cpp.hpp **** class Thread {
  16:src/../h/syscall_cpp.hpp **** public:
  17:src/../h/syscall_cpp.hpp ****     Thread (void (*body)(void*), void* arg);
  18:src/../h/syscall_cpp.hpp ****     virtual ~Thread ();
  19:src/../h/syscall_cpp.hpp ****     int start ();
  20:src/../h/syscall_cpp.hpp ****     void join();
  21:src/../h/syscall_cpp.hpp ****     static void dispatch ();
  22:src/../h/syscall_cpp.hpp ****     static int sleep (time_t);
  23:src/../h/syscall_cpp.hpp **** protected:
  24:src/../h/syscall_cpp.hpp ****     Thread ();
  25:src/../h/syscall_cpp.hpp ****     virtual void run () {}
  13              		.loc 1 25 18
  14              		.cfi_startproc
  15              	.LVL0:
  16 0000 130101FF 		addi	sp,sp,-16
  17              		.cfi_def_cfa_offset 16
  18 0004 23348100 		sd	s0,8(sp)
  19              		.cfi_offset 8, -8
  20 0008 13040101 		addi	s0,sp,16
  21              		.cfi_def_cfa 8, 0
  22              		.loc 1 25 26 is_stmt 0
  23 000c 03348100 		ld	s0,8(sp)
  24              		.cfi_restore 8
  25              		.cfi_def_cfa 2, 16
  26 0010 13010101 		addi	sp,sp,16
  27              		.cfi_def_cfa_offset 0
  28 0014 67800000 		jr	ra
  29              		.cfi_endproc
  30              	.LFE16:
  32              		.text
  33              		.align	2
  34              		.globl	_ZN6ThreadD2Ev
GAS LISTING /tmp/cc71pHMn.s 			page 2


  36              	_ZN6ThreadD2Ev:
  37              	.LFB24:
  38              		.file 2 "src/syscall_cpp.cpp"
   1:src/syscall_cpp.cpp **** //
   2:src/syscall_cpp.cpp **** // Created by os on 8/19/23.
   3:src/syscall_cpp.cpp **** //
   4:src/syscall_cpp.cpp **** 
   5:src/syscall_cpp.cpp **** #include "../h/syscall_cpp.hpp"
   6:src/syscall_cpp.cpp **** #include "../h/syscall_c.hpp"
   7:src/syscall_cpp.cpp **** #include "../test/printing.hpp"
   8:src/syscall_cpp.cpp **** 
   9:src/syscall_cpp.cpp **** void* operator new (size_t size)
  10:src/syscall_cpp.cpp **** {
  11:src/syscall_cpp.cpp ****     return mem_alloc(size);
  12:src/syscall_cpp.cpp **** }
  13:src/syscall_cpp.cpp **** 
  14:src/syscall_cpp.cpp **** void operator delete (void* ptr)
  15:src/syscall_cpp.cpp **** {
  16:src/syscall_cpp.cpp ****     mem_free(ptr);
  17:src/syscall_cpp.cpp **** }
  18:src/syscall_cpp.cpp **** 
  19:src/syscall_cpp.cpp **** Thread::Thread(void (*body)(void *), void *arg)
  20:src/syscall_cpp.cpp **** {
  21:src/syscall_cpp.cpp ****     if (body != nullptr)
  22:src/syscall_cpp.cpp ****     {
  23:src/syscall_cpp.cpp ****         this->body = body;
  24:src/syscall_cpp.cpp ****         this->arg = arg;
  25:src/syscall_cpp.cpp ****         this->myHandle = nullptr;
  26:src/syscall_cpp.cpp ****     }
  27:src/syscall_cpp.cpp ****     else
  28:src/syscall_cpp.cpp ****     {
  29:src/syscall_cpp.cpp ****         Thread();
  30:src/syscall_cpp.cpp ****     }
  31:src/syscall_cpp.cpp **** }
  32:src/syscall_cpp.cpp **** 
  33:src/syscall_cpp.cpp **** Thread::~Thread()
  39              		.loc 2 33 1 is_stmt 1
  40              		.cfi_startproc
  41              	.LVL1:
  42 0000 130101FF 		addi	sp,sp,-16
  43              		.cfi_def_cfa_offset 16
  44 0004 23348100 		sd	s0,8(sp)
  45              		.cfi_offset 8, -8
  46 0008 13040101 		addi	s0,sp,16
  47              		.cfi_def_cfa 8, 0
  34:src/syscall_cpp.cpp **** {
  35:src/syscall_cpp.cpp **** //    if (this->myHandle)
  36:src/syscall_cpp.cpp **** //        thread_exit();
  37:src/syscall_cpp.cpp **** }
  48              		.loc 2 37 1 is_stmt 0
  49 000c 03348100 		ld	s0,8(sp)
  50              		.cfi_restore 8
  51              		.cfi_def_cfa 2, 16
  52 0010 13010101 		addi	sp,sp,16
  53              		.cfi_def_cfa_offset 0
  54 0014 67800000 		jr	ra
  55              		.cfi_endproc
GAS LISTING /tmp/cc71pHMn.s 			page 3


  56              	.LFE24:
  58              		.globl	_ZN6ThreadD1Ev
  59              		.set	_ZN6ThreadD1Ev,_ZN6ThreadD2Ev
  60              		.align	2
  61              		.globl	_ZN6Thread7wrapperEPv
  63              	_ZN6Thread7wrapperEPv:
  64              	.LFB34:
  38:src/syscall_cpp.cpp **** 
  39:src/syscall_cpp.cpp **** int Thread::start()
  40:src/syscall_cpp.cpp **** {
  41:src/syscall_cpp.cpp ****     if (this->body != nullptr)
  42:src/syscall_cpp.cpp ****     {
  43:src/syscall_cpp.cpp ****         int retVal = thread_create(&this->myHandle, this->body, this->arg);
  44:src/syscall_cpp.cpp **** 
  45:src/syscall_cpp.cpp ****         if (retVal < 0)
  46:src/syscall_cpp.cpp ****             return retVal;
  47:src/syscall_cpp.cpp **** 
  48:src/syscall_cpp.cpp ****         this->body = nullptr;
  49:src/syscall_cpp.cpp ****         this->arg = nullptr;
  50:src/syscall_cpp.cpp ****         return 0; // thread started successfully
  51:src/syscall_cpp.cpp ****     }
  52:src/syscall_cpp.cpp **** 
  53:src/syscall_cpp.cpp ****     return -3; // thread already started
  54:src/syscall_cpp.cpp **** }
  55:src/syscall_cpp.cpp **** 
  56:src/syscall_cpp.cpp **** void Thread::join()
  57:src/syscall_cpp.cpp **** {
  58:src/syscall_cpp.cpp ****     if (this->myHandle)
  59:src/syscall_cpp.cpp ****         thread_join(this->myHandle);
  60:src/syscall_cpp.cpp **** }
  61:src/syscall_cpp.cpp **** 
  62:src/syscall_cpp.cpp **** void Thread::dispatch()
  63:src/syscall_cpp.cpp **** {
  64:src/syscall_cpp.cpp ****     thread_dispatch();
  65:src/syscall_cpp.cpp **** }
  66:src/syscall_cpp.cpp **** 
  67:src/syscall_cpp.cpp **** int Thread::sleep(time_t) {
  68:src/syscall_cpp.cpp ****     return 0;
  69:src/syscall_cpp.cpp **** }
  70:src/syscall_cpp.cpp **** 
  71:src/syscall_cpp.cpp **** Thread::Thread()
  72:src/syscall_cpp.cpp **** {
  73:src/syscall_cpp.cpp ****     myHandle = nullptr;
  74:src/syscall_cpp.cpp ****     body = &wrapper;
  75:src/syscall_cpp.cpp ****     arg = this;
  76:src/syscall_cpp.cpp **** }
  77:src/syscall_cpp.cpp **** 
  78:src/syscall_cpp.cpp **** void Thread::wrapper(void* thread)
  79:src/syscall_cpp.cpp **** {
  65              		.loc 2 79 1 is_stmt 1
  66              		.cfi_startproc
  67              	.LVL2:
  68 0018 130101FF 		addi	sp,sp,-16
  69              		.cfi_def_cfa_offset 16
  70 001c 23341100 		sd	ra,8(sp)
  71 0020 23308100 		sd	s0,0(sp)
  72              		.cfi_offset 1, -8
GAS LISTING /tmp/cc71pHMn.s 			page 4


  73              		.cfi_offset 8, -16
  74 0024 13040101 		addi	s0,sp,16
  75              		.cfi_def_cfa 8, 0
  80:src/syscall_cpp.cpp ****     Thread* t = static_cast<Thread *>(thread);
  76              		.loc 2 80 5
  77              	.LVL3:
  81:src/syscall_cpp.cpp ****     t->run();
  78              		.loc 2 81 5
  79              		.loc 2 81 12 is_stmt 0
  80 0028 83370500 		ld	a5,0(a0)
  81 002c 83B70701 		ld	a5,16(a5)
  82              		.loc 2 81 11
  83 0030 E7800700 		jalr	a5
  84              	.LVL4:
  82:src/syscall_cpp.cpp **** }
  85              		.loc 2 82 1
  86 0034 83308100 		ld	ra,8(sp)
  87              		.cfi_restore 1
  88 0038 03340100 		ld	s0,0(sp)
  89              		.cfi_restore 8
  90              		.cfi_def_cfa 2, 16
  91 003c 13010101 		addi	sp,sp,16
  92              		.cfi_def_cfa_offset 0
  93 0040 67800000 		jr	ra
  94              		.cfi_endproc
  95              	.LFE34:
  97              		.align	2
  98              		.globl	_ZN9SemaphoreD2Ev
 100              	_ZN9SemaphoreD2Ev:
 101              	.LFB39:
  83:src/syscall_cpp.cpp **** 
  84:src/syscall_cpp.cpp **** 
  85:src/syscall_cpp.cpp **** Semaphore::Semaphore(unsigned int init)
  86:src/syscall_cpp.cpp **** {
  87:src/syscall_cpp.cpp ****     sem_open(&myHandle, init);
  88:src/syscall_cpp.cpp **** }
  89:src/syscall_cpp.cpp **** 
  90:src/syscall_cpp.cpp **** Semaphore::~Semaphore()
 102              		.loc 2 90 1 is_stmt 1
 103              		.cfi_startproc
 104              		.cfi_personality 0x9b,DW.ref.__gxx_personality_v0
 105              		.cfi_lsda 0x1b,.LLSDA39
 106              	.LVL5:
 107 0044 130101FF 		addi	sp,sp,-16
 108              		.cfi_def_cfa_offset 16
 109 0048 23341100 		sd	ra,8(sp)
 110 004c 23308100 		sd	s0,0(sp)
 111              		.cfi_offset 1, -8
 112              		.cfi_offset 8, -16
 113 0050 13040101 		addi	s0,sp,16
 114              		.cfi_def_cfa 8, 0
 115              	.LBB2:
 116              		.loc 2 90 23 is_stmt 0
 117 0054 97070000 		lla	a5,_ZTV9Semaphore+16
 117      93870700 
 118 005c 2330F500 		sd	a5,0(a0)
  91:src/syscall_cpp.cpp **** {
GAS LISTING /tmp/cc71pHMn.s 			page 5


  92:src/syscall_cpp.cpp ****     sem_close(myHandle);
 119              		.loc 2 92 5 is_stmt 1
 120              		.loc 2 92 14 is_stmt 0
 121 0060 03358500 		ld	a0,8(a0)
 122              	.LVL6:
 123 0064 97000000 		call	_Z9sem_closeP4_sem@plt
 123      E7800000 
 124              	.LVL7:
 125              	.LBE2:
  93:src/syscall_cpp.cpp **** }
 126              		.loc 2 93 1
 127 006c 83308100 		ld	ra,8(sp)
 128              		.cfi_restore 1
 129 0070 03340100 		ld	s0,0(sp)
 130              		.cfi_restore 8
 131              		.cfi_def_cfa 2, 16
 132 0074 13010101 		addi	sp,sp,16
 133              		.cfi_def_cfa_offset 0
 134 0078 67800000 		jr	ra
 135              		.cfi_endproc
 136              	.LFE39:
 137              		.globl	__gxx_personality_v0
 138              		.section	.gcc_except_table,"a",@progbits
 139              	.LLSDA39:
 140 0000 FF       		.byte	0xff
 141 0001 FF       		.byte	0xff
 142 0002 03       		.byte	0x3
 143 0003 00       		.byte	0
 144              		.text
 146              		.globl	_ZN9SemaphoreD1Ev
 147              		.set	_ZN9SemaphoreD1Ev,_ZN9SemaphoreD2Ev
 148              		.align	2
 149              		.globl	_Znwm
 151              	_Znwm:
 152              	.LFB18:
  10:src/syscall_cpp.cpp ****     return mem_alloc(size);
 153              		.loc 2 10 1 is_stmt 1
 154              		.cfi_startproc
 155              	.LVL8:
 156 007c 130101FF 		addi	sp,sp,-16
 157              		.cfi_def_cfa_offset 16
 158 0080 23341100 		sd	ra,8(sp)
 159 0084 23308100 		sd	s0,0(sp)
 160              		.cfi_offset 1, -8
 161              		.cfi_offset 8, -16
 162 0088 13040101 		addi	s0,sp,16
 163              		.cfi_def_cfa 8, 0
  11:src/syscall_cpp.cpp **** }
 164              		.loc 2 11 5
  11:src/syscall_cpp.cpp **** }
 165              		.loc 2 11 21 is_stmt 0
 166 008c 97000000 		call	_Z9mem_allocm@plt
 166      E7800000 
 167              	.LVL9:
  12:src/syscall_cpp.cpp **** 
 168              		.loc 2 12 1
 169 0094 83308100 		ld	ra,8(sp)
GAS LISTING /tmp/cc71pHMn.s 			page 6


 170              		.cfi_restore 1
 171 0098 03340100 		ld	s0,0(sp)
 172              		.cfi_restore 8
 173              		.cfi_def_cfa 2, 16
 174 009c 13010101 		addi	sp,sp,16
 175              		.cfi_def_cfa_offset 0
 176 00a0 67800000 		jr	ra
 177              		.cfi_endproc
 178              	.LFE18:
 180              		.align	2
 181              		.globl	_ZdlPv
 183              	_ZdlPv:
 184              	.LFB19:
  15:src/syscall_cpp.cpp ****     mem_free(ptr);
 185              		.loc 2 15 1 is_stmt 1
 186              		.cfi_startproc
 187              	.LVL10:
 188 00a4 130101FF 		addi	sp,sp,-16
 189              		.cfi_def_cfa_offset 16
 190 00a8 23341100 		sd	ra,8(sp)
 191 00ac 23308100 		sd	s0,0(sp)
 192              		.cfi_offset 1, -8
 193              		.cfi_offset 8, -16
 194 00b0 13040101 		addi	s0,sp,16
 195              		.cfi_def_cfa 8, 0
  16:src/syscall_cpp.cpp **** }
 196              		.loc 2 16 5
  16:src/syscall_cpp.cpp **** }
 197              		.loc 2 16 13 is_stmt 0
 198 00b4 97000000 		call	_Z8mem_freePv@plt
 198      E7800000 
 199              	.LVL11:
  17:src/syscall_cpp.cpp **** 
 200              		.loc 2 17 1
 201 00bc 83308100 		ld	ra,8(sp)
 202              		.cfi_restore 1
 203 00c0 03340100 		ld	s0,0(sp)
 204              		.cfi_restore 8
 205              		.cfi_def_cfa 2, 16
 206 00c4 13010101 		addi	sp,sp,16
 207              		.cfi_def_cfa_offset 0
 208 00c8 67800000 		jr	ra
 209              		.cfi_endproc
 210              	.LFE19:
 212              		.align	2
 213              		.globl	_ZN6ThreadD0Ev
 215              	_ZN6ThreadD0Ev:
 216              	.LFB26:
  33:src/syscall_cpp.cpp **** {
 217              		.loc 2 33 1 is_stmt 1
 218              		.cfi_startproc
 219              	.LVL12:
 220 00cc 130101FF 		addi	sp,sp,-16
 221              		.cfi_def_cfa_offset 16
 222 00d0 23341100 		sd	ra,8(sp)
 223 00d4 23308100 		sd	s0,0(sp)
 224              		.cfi_offset 1, -8
GAS LISTING /tmp/cc71pHMn.s 			page 7


 225              		.cfi_offset 8, -16
 226 00d8 13040101 		addi	s0,sp,16
 227              		.cfi_def_cfa 8, 0
  37:src/syscall_cpp.cpp **** 
 228              		.loc 2 37 1 is_stmt 0
 229 00dc 97000000 		call	_ZdlPv
 229      E7800000 
 230              	.LVL13:
 231 00e4 83308100 		ld	ra,8(sp)
 232              		.cfi_restore 1
 233 00e8 03340100 		ld	s0,0(sp)
 234              		.cfi_restore 8
 235              		.cfi_def_cfa 2, 16
 236 00ec 13010101 		addi	sp,sp,16
 237              		.cfi_def_cfa_offset 0
 238 00f0 67800000 		jr	ra
 239              		.cfi_endproc
 240              	.LFE26:
 242              		.align	2
 243              		.globl	_ZN9SemaphoreD0Ev
 245              	_ZN9SemaphoreD0Ev:
 246              	.LFB41:
  90:src/syscall_cpp.cpp **** {
 247              		.loc 2 90 1 is_stmt 1
 248              		.cfi_startproc
 249              	.LVL14:
 250 00f4 130101FE 		addi	sp,sp,-32
 251              		.cfi_def_cfa_offset 32
 252 00f8 233C1100 		sd	ra,24(sp)
 253 00fc 23388100 		sd	s0,16(sp)
 254 0100 23349100 		sd	s1,8(sp)
 255              		.cfi_offset 1, -8
 256              		.cfi_offset 8, -16
 257              		.cfi_offset 9, -24
 258 0104 13040102 		addi	s0,sp,32
 259              		.cfi_def_cfa 8, 0
 260 0108 93040500 		mv	s1,a0
 261              		.loc 2 93 1 is_stmt 0
 262 010c 97000000 		call	_ZN9SemaphoreD1Ev
 262      E7800000 
 263              	.LVL15:
 264 0114 13850400 		mv	a0,s1
 265 0118 97000000 		call	_ZdlPv
 265      E7800000 
 266              	.LVL16:
 267 0120 83308101 		ld	ra,24(sp)
 268              		.cfi_restore 1
 269 0124 03340101 		ld	s0,16(sp)
 270              		.cfi_restore 8
 271              		.cfi_def_cfa 2, 32
 272 0128 83348100 		ld	s1,8(sp)
 273              		.cfi_restore 9
 274              	.LVL17:
 275 012c 13010102 		addi	sp,sp,32
 276              		.cfi_def_cfa_offset 0
 277 0130 67800000 		jr	ra
 278              		.cfi_endproc
GAS LISTING /tmp/cc71pHMn.s 			page 8


 279              	.LFE41:
 281              		.align	2
 282              		.globl	_ZN6Thread5startEv
 284              	_ZN6Thread5startEv:
 285              	.LFB27:
  40:src/syscall_cpp.cpp ****     if (this->body != nullptr)
 286              		.loc 2 40 1 is_stmt 1
 287              		.cfi_startproc
 288              	.LVL18:
  41:src/syscall_cpp.cpp ****     {
 289              		.loc 2 41 5
 290              	.LBB3:
  41:src/syscall_cpp.cpp ****     {
 291              		.loc 2 41 15 is_stmt 0
 292 0134 83350501 		ld	a1,16(a0)
  41:src/syscall_cpp.cpp ****     {
 293              		.loc 2 41 5
 294 0138 63880504 		beqz	a1,.L19
 295              	.LBE3:
  40:src/syscall_cpp.cpp ****     if (this->body != nullptr)
 296              		.loc 2 40 1
 297 013c 130101FE 		addi	sp,sp,-32
 298              		.cfi_def_cfa_offset 32
 299 0140 233C1100 		sd	ra,24(sp)
 300 0144 23388100 		sd	s0,16(sp)
 301 0148 23349100 		sd	s1,8(sp)
 302              		.cfi_offset 1, -8
 303              		.cfi_offset 8, -16
 304              		.cfi_offset 9, -24
 305 014c 13040102 		addi	s0,sp,32
 306              		.cfi_def_cfa 8, 0
 307 0150 93040500 		mv	s1,a0
 308              	.LBB5:
 309              	.LBB4:
  43:src/syscall_cpp.cpp **** 
 310              		.loc 2 43 9 is_stmt 1
  43:src/syscall_cpp.cpp **** 
 311              		.loc 2 43 35 is_stmt 0
 312 0154 03368501 		ld	a2,24(a0)
 313 0158 13058500 		addi	a0,a0,8
 314              	.LVL19:
 315 015c 97000000 		call	_Z13thread_createPP7_threadPFvPvES2_@plt
 315      E7800000 
 316              	.LVL20:
  45:src/syscall_cpp.cpp ****             return retVal;
 317              		.loc 2 45 9 is_stmt 1
 318 0164 63480500 		bltz	a0,.L18
  48:src/syscall_cpp.cpp ****         this->arg = nullptr;
 319              		.loc 2 48 9
  48:src/syscall_cpp.cpp ****         this->arg = nullptr;
 320              		.loc 2 48 20 is_stmt 0
 321 0168 23B80400 		sd	zero,16(s1)
  49:src/syscall_cpp.cpp ****         return 0; // thread started successfully
 322              		.loc 2 49 9 is_stmt 1
  49:src/syscall_cpp.cpp ****         return 0; // thread started successfully
 323              		.loc 2 49 19 is_stmt 0
 324 016c 23BC0400 		sd	zero,24(s1)
GAS LISTING /tmp/cc71pHMn.s 			page 9


  50:src/syscall_cpp.cpp ****     }
 325              		.loc 2 50 9 is_stmt 1
  50:src/syscall_cpp.cpp ****     }
 326              		.loc 2 50 16 is_stmt 0
 327 0170 13050000 		li	a0,0
 328              	.LVL21:
 329              	.L18:
 330              	.LBE4:
 331              	.LBE5:
  54:src/syscall_cpp.cpp **** 
 332              		.loc 2 54 1
 333 0174 83308101 		ld	ra,24(sp)
 334              		.cfi_restore 1
 335 0178 03340101 		ld	s0,16(sp)
 336              		.cfi_restore 8
 337              		.cfi_def_cfa 2, 32
 338 017c 83348100 		ld	s1,8(sp)
 339              		.cfi_restore 9
 340              	.LVL22:
 341 0180 13010102 		addi	sp,sp,32
 342              		.cfi_def_cfa_offset 0
 343 0184 67800000 		jr	ra
 344              	.LVL23:
 345              	.L19:
  53:src/syscall_cpp.cpp **** }
 346              		.loc 2 53 13
 347 0188 1305D0FF 		li	a0,-3
 348              	.LVL24:
  54:src/syscall_cpp.cpp **** 
 349              		.loc 2 54 1
 350 018c 67800000 		ret
 351              		.cfi_endproc
 352              	.LFE27:
 354              		.align	2
 355              		.globl	_ZN6Thread4joinEv
 357              	_ZN6Thread4joinEv:
 358              	.LFB28:
  57:src/syscall_cpp.cpp ****     if (this->myHandle)
 359              		.loc 2 57 1 is_stmt 1
 360              		.cfi_startproc
 361              	.LVL25:
  58:src/syscall_cpp.cpp ****         thread_join(this->myHandle);
 362              		.loc 2 58 5
  58:src/syscall_cpp.cpp ****         thread_join(this->myHandle);
 363              		.loc 2 58 15 is_stmt 0
 364 0190 03358500 		ld	a0,8(a0)
 365              	.LVL26:
  58:src/syscall_cpp.cpp ****         thread_join(this->myHandle);
 366              		.loc 2 58 5
 367 0194 63060502 		beqz	a0,.L27
  57:src/syscall_cpp.cpp ****     if (this->myHandle)
 368              		.loc 2 57 1
 369 0198 130101FF 		addi	sp,sp,-16
 370              		.cfi_def_cfa_offset 16
 371 019c 23341100 		sd	ra,8(sp)
 372 01a0 23308100 		sd	s0,0(sp)
 373              		.cfi_offset 1, -8
GAS LISTING /tmp/cc71pHMn.s 			page 10


 374              		.cfi_offset 8, -16
 375 01a4 13040101 		addi	s0,sp,16
 376              		.cfi_def_cfa 8, 0
  59:src/syscall_cpp.cpp **** }
 377              		.loc 2 59 9 is_stmt 1
  59:src/syscall_cpp.cpp **** }
 378              		.loc 2 59 20 is_stmt 0
 379 01a8 97000000 		call	_Z11thread_joinP7_thread@plt
 379      E7800000 
 380              	.LVL27:
  60:src/syscall_cpp.cpp **** 
 381              		.loc 2 60 1
 382 01b0 83308100 		ld	ra,8(sp)
 383              		.cfi_restore 1
 384 01b4 03340100 		ld	s0,0(sp)
 385              		.cfi_restore 8
 386              		.cfi_def_cfa 2, 16
 387 01b8 13010101 		addi	sp,sp,16
 388              		.cfi_def_cfa_offset 0
 389 01bc 67800000 		jr	ra
 390              	.L27:
 391 01c0 67800000 		ret
 392              		.cfi_endproc
 393              	.LFE28:
 395              		.align	2
 396              		.globl	_ZN6Thread8dispatchEv
 398              	_ZN6Thread8dispatchEv:
 399              	.LFB29:
  63:src/syscall_cpp.cpp ****     thread_dispatch();
 400              		.loc 2 63 1 is_stmt 1
 401              		.cfi_startproc
 402 01c4 130101FF 		addi	sp,sp,-16
 403              		.cfi_def_cfa_offset 16
 404 01c8 23341100 		sd	ra,8(sp)
 405 01cc 23308100 		sd	s0,0(sp)
 406              		.cfi_offset 1, -8
 407              		.cfi_offset 8, -16
 408 01d0 13040101 		addi	s0,sp,16
 409              		.cfi_def_cfa 8, 0
  64:src/syscall_cpp.cpp **** }
 410              		.loc 2 64 5
  64:src/syscall_cpp.cpp **** }
 411              		.loc 2 64 20 is_stmt 0
 412 01d4 97000000 		call	_Z15thread_dispatchv@plt
 412      E7800000 
 413              	.LVL28:
  65:src/syscall_cpp.cpp **** 
 414              		.loc 2 65 1
 415 01dc 83308100 		ld	ra,8(sp)
 416              		.cfi_restore 1
 417 01e0 03340100 		ld	s0,0(sp)
 418              		.cfi_restore 8
 419              		.cfi_def_cfa 2, 16
 420 01e4 13010101 		addi	sp,sp,16
 421              		.cfi_def_cfa_offset 0
 422 01e8 67800000 		jr	ra
 423              		.cfi_endproc
GAS LISTING /tmp/cc71pHMn.s 			page 11


 424              	.LFE29:
 426              		.align	2
 427              		.globl	_ZN6Thread5sleepEm
 429              	_ZN6Thread5sleepEm:
 430              	.LFB30:
  67:src/syscall_cpp.cpp ****     return 0;
 431              		.loc 2 67 27 is_stmt 1
 432              		.cfi_startproc
 433 01ec 130101FF 		addi	sp,sp,-16
 434              		.cfi_def_cfa_offset 16
 435 01f0 23348100 		sd	s0,8(sp)
 436              		.cfi_offset 8, -8
 437 01f4 13040101 		addi	s0,sp,16
 438              		.cfi_def_cfa 8, 0
  68:src/syscall_cpp.cpp **** }
 439              		.loc 2 68 5
  69:src/syscall_cpp.cpp **** 
 440              		.loc 2 69 1 is_stmt 0
 441 01f8 13050000 		li	a0,0
 442 01fc 03348100 		ld	s0,8(sp)
 443              		.cfi_restore 8
 444              		.cfi_def_cfa 2, 16
 445 0200 13010101 		addi	sp,sp,16
 446              		.cfi_def_cfa_offset 0
 447 0204 67800000 		jr	ra
 448              		.cfi_endproc
 449              	.LFE30:
 451              		.align	2
 452              		.globl	_ZN6ThreadC2Ev
 454              	_ZN6ThreadC2Ev:
 455              	.LFB32:
  71:src/syscall_cpp.cpp **** {
 456              		.loc 2 71 1 is_stmt 1
 457              		.cfi_startproc
 458              	.LVL29:
 459 0208 130101FF 		addi	sp,sp,-16
 460              		.cfi_def_cfa_offset 16
 461 020c 23348100 		sd	s0,8(sp)
 462              		.cfi_offset 8, -8
 463 0210 13040101 		addi	s0,sp,16
 464              		.cfi_def_cfa 8, 0
 465              	.LBB6:
  71:src/syscall_cpp.cpp **** {
 466              		.loc 2 71 16 is_stmt 0
 467 0214 97070000 		lla	a5,_ZTV6Thread+16
 467      93870700 
 468 021c 2330F500 		sd	a5,0(a0)
 469 0220 23340500 		sd	zero,8(a0)
  73:src/syscall_cpp.cpp ****     body = &wrapper;
 470              		.loc 2 73 5 is_stmt 1
  74:src/syscall_cpp.cpp ****     arg = this;
 471              		.loc 2 74 5
  74:src/syscall_cpp.cpp ****     arg = this;
 472              		.loc 2 74 10 is_stmt 0
 473 0224 97070000 		lla	a5,_ZN6Thread7wrapperEPv
 473      93870700 
 474 022c 2338F500 		sd	a5,16(a0)
GAS LISTING /tmp/cc71pHMn.s 			page 12


  75:src/syscall_cpp.cpp **** }
 475              		.loc 2 75 5 is_stmt 1
  75:src/syscall_cpp.cpp **** }
 476              		.loc 2 75 9 is_stmt 0
 477 0230 233CA500 		sd	a0,24(a0)
 478              	.LBE6:
  76:src/syscall_cpp.cpp **** 
 479              		.loc 2 76 1
 480 0234 03348100 		ld	s0,8(sp)
 481              		.cfi_restore 8
 482              		.cfi_def_cfa 2, 16
 483 0238 13010101 		addi	sp,sp,16
 484              		.cfi_def_cfa_offset 0
 485 023c 67800000 		jr	ra
 486              		.cfi_endproc
 487              	.LFE32:
 489              		.globl	_ZN6ThreadC1Ev
 490              		.set	_ZN6ThreadC1Ev,_ZN6ThreadC2Ev
 491              		.align	2
 492              		.globl	_ZN6ThreadC2EPFvPvES0_
 494              	_ZN6ThreadC2EPFvPvES0_:
 495              	.LFB21:
  19:src/syscall_cpp.cpp **** {
 496              		.loc 2 19 1 is_stmt 1
 497              		.cfi_startproc
 498              	.LVL30:
 499              	.LBB7:
  19:src/syscall_cpp.cpp **** {
 500              		.loc 2 19 47 is_stmt 0
 501 0240 97070000 		lla	a5,_ZTV6Thread+16
 501      93870700 
 502 0248 2330F500 		sd	a5,0(a0)
 503 024c 23340500 		sd	zero,8(a0)
  21:src/syscall_cpp.cpp ****     {
 504              		.loc 2 21 5 is_stmt 1
 505 0250 63880500 		beqz	a1,.L37
  23:src/syscall_cpp.cpp ****         this->arg = arg;
 506              		.loc 2 23 9
  23:src/syscall_cpp.cpp ****         this->arg = arg;
 507              		.loc 2 23 20 is_stmt 0
 508 0254 2338B500 		sd	a1,16(a0)
  24:src/syscall_cpp.cpp ****         this->myHandle = nullptr;
 509              		.loc 2 24 9 is_stmt 1
  24:src/syscall_cpp.cpp ****         this->myHandle = nullptr;
 510              		.loc 2 24 19 is_stmt 0
 511 0258 233CC500 		sd	a2,24(a0)
  25:src/syscall_cpp.cpp ****     }
 512              		.loc 2 25 9 is_stmt 1
 513 025c 67800000 		ret
 514              	.L37:
 515              	.LBE7:
  19:src/syscall_cpp.cpp **** {
 516              		.loc 2 19 1 is_stmt 0
 517 0260 130101FD 		addi	sp,sp,-48
 518              		.cfi_def_cfa_offset 48
 519 0264 23341102 		sd	ra,40(sp)
 520 0268 23308102 		sd	s0,32(sp)
GAS LISTING /tmp/cc71pHMn.s 			page 13


 521              		.cfi_offset 1, -8
 522              		.cfi_offset 8, -16
 523 026c 13040103 		addi	s0,sp,48
 524              		.cfi_def_cfa 8, 0
 525              	.LBB8:
  29:src/syscall_cpp.cpp ****     }
 526              		.loc 2 29 9 is_stmt 1
 527 0270 130504FD 		addi	a0,s0,-48
 528              	.LVL31:
 529 0274 97000000 		call	_ZN6ThreadC1Ev
 529      E7800000 
 530              	.LVL32:
 531              	.LBE8:
  31:src/syscall_cpp.cpp **** 
 532              		.loc 2 31 1 is_stmt 0
 533 027c 83308102 		ld	ra,40(sp)
 534              		.cfi_restore 1
 535 0280 03340102 		ld	s0,32(sp)
 536              		.cfi_restore 8
 537              		.cfi_def_cfa 2, 48
 538 0284 13010103 		addi	sp,sp,48
 539              		.cfi_def_cfa_offset 0
 540 0288 67800000 		jr	ra
 541              		.cfi_endproc
 542              	.LFE21:
 544              		.globl	_ZN6ThreadC1EPFvPvES0_
 545              		.set	_ZN6ThreadC1EPFvPvES0_,_ZN6ThreadC2EPFvPvES0_
 546              		.align	2
 547              		.globl	_ZN9SemaphoreC2Ej
 549              	_ZN9SemaphoreC2Ej:
 550              	.LFB36:
  85:src/syscall_cpp.cpp **** {
 551              		.loc 2 85 1 is_stmt 1
 552              		.cfi_startproc
 553              	.LVL33:
 554 028c 130101FF 		addi	sp,sp,-16
 555              		.cfi_def_cfa_offset 16
 556 0290 23341100 		sd	ra,8(sp)
 557 0294 23308100 		sd	s0,0(sp)
 558              		.cfi_offset 1, -8
 559              		.cfi_offset 8, -16
 560 0298 13040101 		addi	s0,sp,16
 561              		.cfi_def_cfa 8, 0
 562              	.LBB9:
  85:src/syscall_cpp.cpp **** {
 563              		.loc 2 85 39 is_stmt 0
 564 029c 97070000 		lla	a5,_ZTV9Semaphore+16
 564      93870700 
 565 02a4 2330F500 		sd	a5,0(a0)
  87:src/syscall_cpp.cpp **** }
 566              		.loc 2 87 5 is_stmt 1
  87:src/syscall_cpp.cpp **** }
 567              		.loc 2 87 13 is_stmt 0
 568 02a8 13058500 		addi	a0,a0,8
 569              	.LVL34:
 570 02ac 97000000 		call	_Z8sem_openPP4_semj@plt
 570      E7800000 
GAS LISTING /tmp/cc71pHMn.s 			page 14


 571              	.LVL35:
 572              	.LBE9:
  88:src/syscall_cpp.cpp **** 
 573              		.loc 2 88 1
 574 02b4 83308100 		ld	ra,8(sp)
 575              		.cfi_restore 1
 576 02b8 03340100 		ld	s0,0(sp)
 577              		.cfi_restore 8
 578              		.cfi_def_cfa 2, 16
 579 02bc 13010101 		addi	sp,sp,16
 580              		.cfi_def_cfa_offset 0
 581 02c0 67800000 		jr	ra
 582              		.cfi_endproc
 583              	.LFE36:
 585              		.globl	_ZN9SemaphoreC1Ej
 586              		.set	_ZN9SemaphoreC1Ej,_ZN9SemaphoreC2Ej
 587              		.align	2
 588              		.globl	_ZN9Semaphore4waitEv
 590              	_ZN9Semaphore4waitEv:
 591              	.LFB42:
  94:src/syscall_cpp.cpp **** 
  95:src/syscall_cpp.cpp **** int Semaphore::wait()
  96:src/syscall_cpp.cpp **** {
 592              		.loc 2 96 1 is_stmt 1
 593              		.cfi_startproc
 594              	.LVL36:
 595 02c4 130101FF 		addi	sp,sp,-16
 596              		.cfi_def_cfa_offset 16
 597 02c8 23341100 		sd	ra,8(sp)
 598 02cc 23308100 		sd	s0,0(sp)
 599              		.cfi_offset 1, -8
 600              		.cfi_offset 8, -16
 601 02d0 13040101 		addi	s0,sp,16
 602              		.cfi_def_cfa 8, 0
  97:src/syscall_cpp.cpp ****     return sem_wait(myHandle);
 603              		.loc 2 97 5
 604              		.loc 2 97 20 is_stmt 0
 605 02d4 03358500 		ld	a0,8(a0)
 606              	.LVL37:
 607 02d8 97000000 		call	_Z8sem_waitP4_sem@plt
 607      E7800000 
 608              	.LVL38:
  98:src/syscall_cpp.cpp **** }
 609              		.loc 2 98 1
 610 02e0 83308100 		ld	ra,8(sp)
 611              		.cfi_restore 1
 612 02e4 03340100 		ld	s0,0(sp)
 613              		.cfi_restore 8
 614              		.cfi_def_cfa 2, 16
 615 02e8 13010101 		addi	sp,sp,16
 616              		.cfi_def_cfa_offset 0
 617 02ec 67800000 		jr	ra
 618              		.cfi_endproc
 619              	.LFE42:
 621              		.align	2
 622              		.globl	_ZN9Semaphore6signalEv
 624              	_ZN9Semaphore6signalEv:
GAS LISTING /tmp/cc71pHMn.s 			page 15


 625              	.LFB43:
  99:src/syscall_cpp.cpp **** 
 100:src/syscall_cpp.cpp **** int Semaphore::signal() {
 626              		.loc 2 100 25 is_stmt 1
 627              		.cfi_startproc
 628              	.LVL39:
 629 02f0 130101FF 		addi	sp,sp,-16
 630              		.cfi_def_cfa_offset 16
 631 02f4 23341100 		sd	ra,8(sp)
 632 02f8 23308100 		sd	s0,0(sp)
 633              		.cfi_offset 1, -8
 634              		.cfi_offset 8, -16
 635 02fc 13040101 		addi	s0,sp,16
 636              		.cfi_def_cfa 8, 0
 101:src/syscall_cpp.cpp ****     return sem_signal(myHandle);
 637              		.loc 2 101 5
 638              		.loc 2 101 22 is_stmt 0
 639 0300 03358500 		ld	a0,8(a0)
 640              	.LVL40:
 641 0304 97000000 		call	_Z10sem_signalP4_sem@plt
 641      E7800000 
 642              	.LVL41:
 102:src/syscall_cpp.cpp **** }
 643              		.loc 2 102 1
 644 030c 83308100 		ld	ra,8(sp)
 645              		.cfi_restore 1
 646 0310 03340100 		ld	s0,0(sp)
 647              		.cfi_restore 8
 648              		.cfi_def_cfa 2, 16
 649 0314 13010101 		addi	sp,sp,16
 650              		.cfi_def_cfa_offset 0
 651 0318 67800000 		jr	ra
 652              		.cfi_endproc
 653              	.LFE43:
 655              		.align	2
 656              		.globl	_ZN7Console4getcEv
 658              	_ZN7Console4getcEv:
 659              	.LFB44:
 103:src/syscall_cpp.cpp **** 
 104:src/syscall_cpp.cpp **** char Console::getc() {
 660              		.loc 2 104 22 is_stmt 1
 661              		.cfi_startproc
 662 031c 130101FF 		addi	sp,sp,-16
 663              		.cfi_def_cfa_offset 16
 664 0320 23341100 		sd	ra,8(sp)
 665 0324 23308100 		sd	s0,0(sp)
 666              		.cfi_offset 1, -8
 667              		.cfi_offset 8, -16
 668 0328 13040101 		addi	s0,sp,16
 669              		.cfi_def_cfa 8, 0
 105:src/syscall_cpp.cpp ****     return ::getc() ;
 670              		.loc 2 105 5
 671              		.loc 2 105 18 is_stmt 0
 672 032c 97000000 		call	_Z4getcv@plt
 672      E7800000 
 673              	.LVL42:
 106:src/syscall_cpp.cpp **** }
GAS LISTING /tmp/cc71pHMn.s 			page 16


 674              		.loc 2 106 1
 675 0334 83308100 		ld	ra,8(sp)
 676              		.cfi_restore 1
 677 0338 03340100 		ld	s0,0(sp)
 678              		.cfi_restore 8
 679              		.cfi_def_cfa 2, 16
 680 033c 13010101 		addi	sp,sp,16
 681              		.cfi_def_cfa_offset 0
 682 0340 67800000 		jr	ra
 683              		.cfi_endproc
 684              	.LFE44:
 686              		.align	2
 687              		.globl	_ZN7Console4putcEc
 689              	_ZN7Console4putcEc:
 690              	.LFB45:
 107:src/syscall_cpp.cpp **** 
 108:src/syscall_cpp.cpp **** void Console::putc(char c) {
 691              		.loc 2 108 28 is_stmt 1
 692              		.cfi_startproc
 693              	.LVL43:
 694 0344 130101FF 		addi	sp,sp,-16
 695              		.cfi_def_cfa_offset 16
 696 0348 23341100 		sd	ra,8(sp)
 697 034c 23308100 		sd	s0,0(sp)
 698              		.cfi_offset 1, -8
 699              		.cfi_offset 8, -16
 700 0350 13040101 		addi	s0,sp,16
 701              		.cfi_def_cfa 8, 0
 109:src/syscall_cpp.cpp ****     ::putc(c);
 702              		.loc 2 109 5
 703              		.loc 2 109 11 is_stmt 0
 704 0354 97000000 		call	_Z4putcc@plt
 704      E7800000 
 705              	.LVL44:
 110:src/syscall_cpp.cpp **** }
 706              		.loc 2 110 1
 707 035c 83308100 		ld	ra,8(sp)
 708              		.cfi_restore 1
 709 0360 03340100 		ld	s0,0(sp)
 710              		.cfi_restore 8
 711              		.cfi_def_cfa 2, 16
 712 0364 13010101 		addi	sp,sp,16
 713              		.cfi_def_cfa_offset 0
 714 0368 67800000 		jr	ra
 715              		.cfi_endproc
 716              	.LFE45:
 718              		.weak	_ZTV6Thread
 719              		.section	.data.rel.ro.local._ZTV6Thread,"awG",@progbits,_ZTV6Thread,comdat
 720              		.align	3
 723              	_ZTV6Thread:
 724 0000 00000000 		.dword	0
 724      00000000 
 725 0008 00000000 		.dword	0
 725      00000000 
 726 0010 00000000 		.dword	_ZN6ThreadD1Ev
 726      00000000 
 727 0018 00000000 		.dword	_ZN6ThreadD0Ev
GAS LISTING /tmp/cc71pHMn.s 			page 17


 727      00000000 
 728 0020 00000000 		.dword	_ZN6Thread3runEv
 728      00000000 
 729              		.weak	_ZTV9Semaphore
 730              		.section	.data.rel.ro.local._ZTV9Semaphore,"awG",@progbits,_ZTV9Semaphore,comdat
 731              		.align	3
 734              	_ZTV9Semaphore:
 735 0000 00000000 		.dword	0
 735      00000000 
 736 0008 00000000 		.dword	0
 736      00000000 
 737 0010 00000000 		.dword	_ZN9SemaphoreD1Ev
 737      00000000 
 738 0018 00000000 		.dword	_ZN9SemaphoreD0Ev
 738      00000000 
 739              		.text
 740              	.Letext0:
 741              		.file 3 "src/../h/../lib/hw.h"
 742              		.file 4 "src/../h/../h/thread.hpp"
 743              		.file 5 "src/../h/../h/sem.hpp"
 744              		.file 6 "src/../h/syscall_c.hpp"
 3868              		.align	3
 3871              	DW.ref.__gxx_personality_v0:
 3872 0000 00000000 		.dword	__gxx_personality_v0
 3872      00000000 
 3873              		.ident	"GCC: (Ubuntu 9.4.0-1ubuntu1~20.04) 9.4.0"
 3874              		.section	.note.GNU-stack,"",@progbits
GAS LISTING /tmp/cc71pHMn.s 			page 18


DEFINED SYMBOLS
                            *ABS*:0000000000000000 syscall_cpp.cpp
     /tmp/cc71pHMn.s:10     .text._ZN6Thread3runEv:0000000000000000 _ZN6Thread3runEv
     /tmp/cc71pHMn.s:14     .text._ZN6Thread3runEv:0000000000000000 .L0 
     /tmp/cc71pHMn.s:16     .text._ZN6Thread3runEv:0000000000000000 .L0 
     /tmp/cc71pHMn.s:17     .text._ZN6Thread3runEv:0000000000000004 .L0 
     /tmp/cc71pHMn.s:19     .text._ZN6Thread3runEv:0000000000000008 .L0 
     /tmp/cc71pHMn.s:21     .text._ZN6Thread3runEv:000000000000000c .L0 
     /tmp/cc71pHMn.s:23     .text._ZN6Thread3runEv:000000000000000c .L0 
     /tmp/cc71pHMn.s:24     .text._ZN6Thread3runEv:0000000000000010 .L0 
     /tmp/cc71pHMn.s:25     .text._ZN6Thread3runEv:0000000000000010 .L0 
     /tmp/cc71pHMn.s:27     .text._ZN6Thread3runEv:0000000000000014 .L0 
     /tmp/cc71pHMn.s:29     .text._ZN6Thread3runEv:0000000000000018 .L0 
     /tmp/cc71pHMn.s:36     .text:0000000000000000 _ZN6ThreadD2Ev
     /tmp/cc71pHMn.s:40     .text:0000000000000000 .L0 
     /tmp/cc71pHMn.s:42     .text:0000000000000000 .L0 
     /tmp/cc71pHMn.s:43     .text:0000000000000004 .L0 
     /tmp/cc71pHMn.s:45     .text:0000000000000008 .L0 
     /tmp/cc71pHMn.s:47     .text:000000000000000c .L0 
     /tmp/cc71pHMn.s:49     .text:000000000000000c .L0 
     /tmp/cc71pHMn.s:50     .text:0000000000000010 .L0 
     /tmp/cc71pHMn.s:51     .text:0000000000000010 .L0 
     /tmp/cc71pHMn.s:53     .text:0000000000000014 .L0 
     /tmp/cc71pHMn.s:55     .text:0000000000000018 .L0 
     /tmp/cc71pHMn.s:36     .text:0000000000000000 _ZN6ThreadD1Ev
     /tmp/cc71pHMn.s:63     .text:0000000000000018 _ZN6Thread7wrapperEPv
     /tmp/cc71pHMn.s:66     .text:0000000000000018 .L0 
     /tmp/cc71pHMn.s:68     .text:0000000000000018 .L0 
     /tmp/cc71pHMn.s:69     .text:000000000000001c .L0 
     /tmp/cc71pHMn.s:72     .text:0000000000000024 .L0 
     /tmp/cc71pHMn.s:73     .text:0000000000000024 .L0 
     /tmp/cc71pHMn.s:75     .text:0000000000000028 .L0 
     /tmp/cc71pHMn.s:78     .text:0000000000000028 .L0 
     /tmp/cc71pHMn.s:79     .text:0000000000000028 .L0 
     /tmp/cc71pHMn.s:80     .text:0000000000000028 .L0 
     /tmp/cc71pHMn.s:83     .text:0000000000000030 .L0 
     /tmp/cc71pHMn.s:86     .text:0000000000000034 .L0 
     /tmp/cc71pHMn.s:87     .text:0000000000000038 .L0 
     /tmp/cc71pHMn.s:89     .text:000000000000003c .L0 
     /tmp/cc71pHMn.s:90     .text:000000000000003c .L0 
     /tmp/cc71pHMn.s:92     .text:0000000000000040 .L0 
     /tmp/cc71pHMn.s:94     .text:0000000000000044 .L0 
     /tmp/cc71pHMn.s:100    .text:0000000000000044 _ZN9SemaphoreD2Ev
     /tmp/cc71pHMn.s:103    .text:0000000000000044 .L0 
     /tmp/cc71pHMn.s:3871   .data.rel.local.DW.ref.__gxx_personality_v0:0000000000000000 DW.ref.__gxx_personality_v0
     /tmp/cc71pHMn.s:107    .text:0000000000000044 .L0 
     /tmp/cc71pHMn.s:108    .text:0000000000000048 .L0 
     /tmp/cc71pHMn.s:111    .text:0000000000000050 .L0 
     /tmp/cc71pHMn.s:112    .text:0000000000000050 .L0 
     /tmp/cc71pHMn.s:114    .text:0000000000000054 .L0 
     /tmp/cc71pHMn.s:734    .data.rel.ro.local._ZTV9Semaphore:0000000000000000 _ZTV9Semaphore
     /tmp/cc71pHMn.s:117    .text:0000000000000054 .L0 
     /tmp/cc71pHMn.s:120    .text:0000000000000060 .L0 
     /tmp/cc71pHMn.s:121    .text:0000000000000060 .L0 
     /tmp/cc71pHMn.s:127    .text:000000000000006c .L0 
     /tmp/cc71pHMn.s:128    .text:0000000000000070 .L0 
     /tmp/cc71pHMn.s:130    .text:0000000000000074 .L0 
GAS LISTING /tmp/cc71pHMn.s 			page 19


     /tmp/cc71pHMn.s:131    .text:0000000000000074 .L0 
     /tmp/cc71pHMn.s:133    .text:0000000000000078 .L0 
     /tmp/cc71pHMn.s:135    .text:000000000000007c .L0 
     /tmp/cc71pHMn.s:100    .text:0000000000000044 _ZN9SemaphoreD1Ev
     /tmp/cc71pHMn.s:151    .text:000000000000007c _Znwm
     /tmp/cc71pHMn.s:154    .text:000000000000007c .L0 
     /tmp/cc71pHMn.s:156    .text:000000000000007c .L0 
     /tmp/cc71pHMn.s:157    .text:0000000000000080 .L0 
     /tmp/cc71pHMn.s:160    .text:0000000000000088 .L0 
     /tmp/cc71pHMn.s:161    .text:0000000000000088 .L0 
     /tmp/cc71pHMn.s:163    .text:000000000000008c .L0 
     /tmp/cc71pHMn.s:165    .text:000000000000008c .L0 
     /tmp/cc71pHMn.s:166    .text:000000000000008c .L0 
     /tmp/cc71pHMn.s:169    .text:0000000000000094 .L0 
     /tmp/cc71pHMn.s:170    .text:0000000000000098 .L0 
     /tmp/cc71pHMn.s:172    .text:000000000000009c .L0 
     /tmp/cc71pHMn.s:173    .text:000000000000009c .L0 
     /tmp/cc71pHMn.s:175    .text:00000000000000a0 .L0 
     /tmp/cc71pHMn.s:177    .text:00000000000000a4 .L0 
     /tmp/cc71pHMn.s:183    .text:00000000000000a4 _ZdlPv
     /tmp/cc71pHMn.s:186    .text:00000000000000a4 .L0 
     /tmp/cc71pHMn.s:188    .text:00000000000000a4 .L0 
     /tmp/cc71pHMn.s:189    .text:00000000000000a8 .L0 
     /tmp/cc71pHMn.s:192    .text:00000000000000b0 .L0 
     /tmp/cc71pHMn.s:193    .text:00000000000000b0 .L0 
     /tmp/cc71pHMn.s:195    .text:00000000000000b4 .L0 
     /tmp/cc71pHMn.s:197    .text:00000000000000b4 .L0 
     /tmp/cc71pHMn.s:198    .text:00000000000000b4 .L0 
     /tmp/cc71pHMn.s:201    .text:00000000000000bc .L0 
     /tmp/cc71pHMn.s:202    .text:00000000000000c0 .L0 
     /tmp/cc71pHMn.s:204    .text:00000000000000c4 .L0 
     /tmp/cc71pHMn.s:205    .text:00000000000000c4 .L0 
     /tmp/cc71pHMn.s:207    .text:00000000000000c8 .L0 
     /tmp/cc71pHMn.s:209    .text:00000000000000cc .L0 
     /tmp/cc71pHMn.s:215    .text:00000000000000cc _ZN6ThreadD0Ev
     /tmp/cc71pHMn.s:218    .text:00000000000000cc .L0 
     /tmp/cc71pHMn.s:220    .text:00000000000000cc .L0 
     /tmp/cc71pHMn.s:221    .text:00000000000000d0 .L0 
     /tmp/cc71pHMn.s:224    .text:00000000000000d8 .L0 
     /tmp/cc71pHMn.s:225    .text:00000000000000d8 .L0 
     /tmp/cc71pHMn.s:227    .text:00000000000000dc .L0 
     /tmp/cc71pHMn.s:229    .text:00000000000000dc .L0 
     /tmp/cc71pHMn.s:232    .text:00000000000000e8 .L0 
     /tmp/cc71pHMn.s:234    .text:00000000000000ec .L0 
     /tmp/cc71pHMn.s:235    .text:00000000000000ec .L0 
     /tmp/cc71pHMn.s:237    .text:00000000000000f0 .L0 
     /tmp/cc71pHMn.s:239    .text:00000000000000f4 .L0 
     /tmp/cc71pHMn.s:245    .text:00000000000000f4 _ZN9SemaphoreD0Ev
     /tmp/cc71pHMn.s:248    .text:00000000000000f4 .L0 
     /tmp/cc71pHMn.s:250    .text:00000000000000f4 .L0 
     /tmp/cc71pHMn.s:251    .text:00000000000000f8 .L0 
     /tmp/cc71pHMn.s:255    .text:0000000000000104 .L0 
     /tmp/cc71pHMn.s:256    .text:0000000000000104 .L0 
     /tmp/cc71pHMn.s:257    .text:0000000000000104 .L0 
     /tmp/cc71pHMn.s:259    .text:0000000000000108 .L0 
     /tmp/cc71pHMn.s:262    .text:000000000000010c .L0 
     /tmp/cc71pHMn.s:268    .text:0000000000000124 .L0 
GAS LISTING /tmp/cc71pHMn.s 			page 20


     /tmp/cc71pHMn.s:270    .text:0000000000000128 .L0 
     /tmp/cc71pHMn.s:271    .text:0000000000000128 .L0 
     /tmp/cc71pHMn.s:273    .text:000000000000012c .L0 
     /tmp/cc71pHMn.s:276    .text:0000000000000130 .L0 
     /tmp/cc71pHMn.s:278    .text:0000000000000134 .L0 
     /tmp/cc71pHMn.s:284    .text:0000000000000134 _ZN6Thread5startEv
     /tmp/cc71pHMn.s:287    .text:0000000000000134 .L0 
     /tmp/cc71pHMn.s:289    .text:0000000000000134 .L0 
     /tmp/cc71pHMn.s:291    .text:0000000000000134 .L0 
     /tmp/cc71pHMn.s:292    .text:0000000000000134 .L0 
     /tmp/cc71pHMn.s:294    .text:0000000000000138 .L0 
     /tmp/cc71pHMn.s:297    .text:000000000000013c .L0 
     /tmp/cc71pHMn.s:298    .text:0000000000000140 .L0 
     /tmp/cc71pHMn.s:302    .text:000000000000014c .L0 
     /tmp/cc71pHMn.s:303    .text:000000000000014c .L0 
     /tmp/cc71pHMn.s:304    .text:000000000000014c .L0 
     /tmp/cc71pHMn.s:306    .text:0000000000000150 .L0 
     /tmp/cc71pHMn.s:311    .text:0000000000000154 .L0 
     /tmp/cc71pHMn.s:312    .text:0000000000000154 .L0 
     /tmp/cc71pHMn.s:318    .text:0000000000000164 .L0 
     /tmp/cc71pHMn.s:320    .text:0000000000000168 .L0 
     /tmp/cc71pHMn.s:321    .text:0000000000000168 .L0 
     /tmp/cc71pHMn.s:323    .text:000000000000016c .L0 
     /tmp/cc71pHMn.s:324    .text:000000000000016c .L0 
     /tmp/cc71pHMn.s:326    .text:0000000000000170 .L0 
     /tmp/cc71pHMn.s:327    .text:0000000000000170 .L0 
     /tmp/cc71pHMn.s:333    .text:0000000000000174 .L0 
     /tmp/cc71pHMn.s:334    .text:0000000000000178 .L0 
     /tmp/cc71pHMn.s:336    .text:000000000000017c .L0 
     /tmp/cc71pHMn.s:337    .text:000000000000017c .L0 
     /tmp/cc71pHMn.s:339    .text:0000000000000180 .L0 
     /tmp/cc71pHMn.s:342    .text:0000000000000184 .L0 
     /tmp/cc71pHMn.s:347    .text:0000000000000188 .L0 
     /tmp/cc71pHMn.s:350    .text:000000000000018c .L0 
     /tmp/cc71pHMn.s:351    .text:0000000000000190 .L0 
     /tmp/cc71pHMn.s:357    .text:0000000000000190 _ZN6Thread4joinEv
     /tmp/cc71pHMn.s:360    .text:0000000000000190 .L0 
     /tmp/cc71pHMn.s:362    .text:0000000000000190 .L0 
     /tmp/cc71pHMn.s:363    .text:0000000000000190 .L0 
     /tmp/cc71pHMn.s:364    .text:0000000000000190 .L0 
     /tmp/cc71pHMn.s:367    .text:0000000000000194 .L0 
     /tmp/cc71pHMn.s:369    .text:0000000000000198 .L0 
     /tmp/cc71pHMn.s:370    .text:000000000000019c .L0 
     /tmp/cc71pHMn.s:373    .text:00000000000001a4 .L0 
     /tmp/cc71pHMn.s:374    .text:00000000000001a4 .L0 
     /tmp/cc71pHMn.s:376    .text:00000000000001a8 .L0 
     /tmp/cc71pHMn.s:378    .text:00000000000001a8 .L0 
     /tmp/cc71pHMn.s:379    .text:00000000000001a8 .L0 
     /tmp/cc71pHMn.s:382    .text:00000000000001b0 .L0 
     /tmp/cc71pHMn.s:383    .text:00000000000001b4 .L0 
     /tmp/cc71pHMn.s:385    .text:00000000000001b8 .L0 
     /tmp/cc71pHMn.s:386    .text:00000000000001b8 .L0 
     /tmp/cc71pHMn.s:388    .text:00000000000001bc .L0 
     /tmp/cc71pHMn.s:392    .text:00000000000001c4 .L0 
     /tmp/cc71pHMn.s:398    .text:00000000000001c4 _ZN6Thread8dispatchEv
     /tmp/cc71pHMn.s:401    .text:00000000000001c4 .L0 
     /tmp/cc71pHMn.s:402    .text:00000000000001c4 .L0 
GAS LISTING /tmp/cc71pHMn.s 			page 21


     /tmp/cc71pHMn.s:403    .text:00000000000001c8 .L0 
     /tmp/cc71pHMn.s:406    .text:00000000000001d0 .L0 
     /tmp/cc71pHMn.s:407    .text:00000000000001d0 .L0 
     /tmp/cc71pHMn.s:409    .text:00000000000001d4 .L0 
     /tmp/cc71pHMn.s:411    .text:00000000000001d4 .L0 
     /tmp/cc71pHMn.s:412    .text:00000000000001d4 .L0 
     /tmp/cc71pHMn.s:415    .text:00000000000001dc .L0 
     /tmp/cc71pHMn.s:416    .text:00000000000001e0 .L0 
     /tmp/cc71pHMn.s:418    .text:00000000000001e4 .L0 
     /tmp/cc71pHMn.s:419    .text:00000000000001e4 .L0 
     /tmp/cc71pHMn.s:421    .text:00000000000001e8 .L0 
     /tmp/cc71pHMn.s:423    .text:00000000000001ec .L0 
     /tmp/cc71pHMn.s:429    .text:00000000000001ec _ZN6Thread5sleepEm
     /tmp/cc71pHMn.s:432    .text:00000000000001ec .L0 
     /tmp/cc71pHMn.s:433    .text:00000000000001ec .L0 
     /tmp/cc71pHMn.s:434    .text:00000000000001f0 .L0 
     /tmp/cc71pHMn.s:436    .text:00000000000001f4 .L0 
     /tmp/cc71pHMn.s:438    .text:00000000000001f8 .L0 
     /tmp/cc71pHMn.s:440    .text:00000000000001f8 .L0 
     /tmp/cc71pHMn.s:441    .text:00000000000001f8 .L0 
     /tmp/cc71pHMn.s:443    .text:0000000000000200 .L0 
     /tmp/cc71pHMn.s:444    .text:0000000000000200 .L0 
     /tmp/cc71pHMn.s:446    .text:0000000000000204 .L0 
     /tmp/cc71pHMn.s:448    .text:0000000000000208 .L0 
     /tmp/cc71pHMn.s:454    .text:0000000000000208 _ZN6ThreadC2Ev
     /tmp/cc71pHMn.s:457    .text:0000000000000208 .L0 
     /tmp/cc71pHMn.s:459    .text:0000000000000208 .L0 
     /tmp/cc71pHMn.s:460    .text:000000000000020c .L0 
     /tmp/cc71pHMn.s:462    .text:0000000000000210 .L0 
     /tmp/cc71pHMn.s:464    .text:0000000000000214 .L0 
     /tmp/cc71pHMn.s:723    .data.rel.ro.local._ZTV6Thread:0000000000000000 _ZTV6Thread
     /tmp/cc71pHMn.s:467    .text:0000000000000214 .L0 
     /tmp/cc71pHMn.s:471    .text:0000000000000224 .L0 
     /tmp/cc71pHMn.s:472    .text:0000000000000224 .L0 
     /tmp/cc71pHMn.s:473    .text:0000000000000224 .L0 
     /tmp/cc71pHMn.s:476    .text:0000000000000230 .L0 
     /tmp/cc71pHMn.s:477    .text:0000000000000230 .L0 
     /tmp/cc71pHMn.s:480    .text:0000000000000234 .L0 
     /tmp/cc71pHMn.s:481    .text:0000000000000238 .L0 
     /tmp/cc71pHMn.s:482    .text:0000000000000238 .L0 
     /tmp/cc71pHMn.s:484    .text:000000000000023c .L0 
     /tmp/cc71pHMn.s:486    .text:0000000000000240 .L0 
     /tmp/cc71pHMn.s:454    .text:0000000000000208 _ZN6ThreadC1Ev
     /tmp/cc71pHMn.s:494    .text:0000000000000240 _ZN6ThreadC2EPFvPvES0_
     /tmp/cc71pHMn.s:497    .text:0000000000000240 .L0 
     /tmp/cc71pHMn.s:500    .text:0000000000000240 .L0 
     /tmp/cc71pHMn.s:501    .text:0000000000000240 .L0 
     /tmp/cc71pHMn.s:505    .text:0000000000000250 .L0 
     /tmp/cc71pHMn.s:507    .text:0000000000000254 .L0 
     /tmp/cc71pHMn.s:508    .text:0000000000000254 .L0 
     /tmp/cc71pHMn.s:510    .text:0000000000000258 .L0 
     /tmp/cc71pHMn.s:511    .text:0000000000000258 .L0 
     /tmp/cc71pHMn.s:513    .text:000000000000025c .L0 
     /tmp/cc71pHMn.s:517    .text:0000000000000260 .L0 
     /tmp/cc71pHMn.s:518    .text:0000000000000264 .L0 
     /tmp/cc71pHMn.s:521    .text:000000000000026c .L0 
     /tmp/cc71pHMn.s:522    .text:000000000000026c .L0 
GAS LISTING /tmp/cc71pHMn.s 			page 22


     /tmp/cc71pHMn.s:524    .text:0000000000000270 .L0 
     /tmp/cc71pHMn.s:527    .text:0000000000000270 .L0 
     /tmp/cc71pHMn.s:533    .text:000000000000027c .L0 
     /tmp/cc71pHMn.s:534    .text:0000000000000280 .L0 
     /tmp/cc71pHMn.s:536    .text:0000000000000284 .L0 
     /tmp/cc71pHMn.s:537    .text:0000000000000284 .L0 
     /tmp/cc71pHMn.s:539    .text:0000000000000288 .L0 
     /tmp/cc71pHMn.s:541    .text:000000000000028c .L0 
     /tmp/cc71pHMn.s:494    .text:0000000000000240 _ZN6ThreadC1EPFvPvES0_
     /tmp/cc71pHMn.s:549    .text:000000000000028c _ZN9SemaphoreC2Ej
     /tmp/cc71pHMn.s:552    .text:000000000000028c .L0 
     /tmp/cc71pHMn.s:554    .text:000000000000028c .L0 
     /tmp/cc71pHMn.s:555    .text:0000000000000290 .L0 
     /tmp/cc71pHMn.s:558    .text:0000000000000298 .L0 
     /tmp/cc71pHMn.s:559    .text:0000000000000298 .L0 
     /tmp/cc71pHMn.s:561    .text:000000000000029c .L0 
     /tmp/cc71pHMn.s:564    .text:000000000000029c .L0 
     /tmp/cc71pHMn.s:567    .text:00000000000002a8 .L0 
     /tmp/cc71pHMn.s:568    .text:00000000000002a8 .L0 
     /tmp/cc71pHMn.s:574    .text:00000000000002b4 .L0 
     /tmp/cc71pHMn.s:575    .text:00000000000002b8 .L0 
     /tmp/cc71pHMn.s:577    .text:00000000000002bc .L0 
     /tmp/cc71pHMn.s:578    .text:00000000000002bc .L0 
     /tmp/cc71pHMn.s:580    .text:00000000000002c0 .L0 
     /tmp/cc71pHMn.s:582    .text:00000000000002c4 .L0 
     /tmp/cc71pHMn.s:549    .text:000000000000028c _ZN9SemaphoreC1Ej
     /tmp/cc71pHMn.s:590    .text:00000000000002c4 _ZN9Semaphore4waitEv
     /tmp/cc71pHMn.s:593    .text:00000000000002c4 .L0 
     /tmp/cc71pHMn.s:595    .text:00000000000002c4 .L0 
     /tmp/cc71pHMn.s:596    .text:00000000000002c8 .L0 
     /tmp/cc71pHMn.s:599    .text:00000000000002d0 .L0 
     /tmp/cc71pHMn.s:600    .text:00000000000002d0 .L0 
     /tmp/cc71pHMn.s:602    .text:00000000000002d4 .L0 
     /tmp/cc71pHMn.s:604    .text:00000000000002d4 .L0 
     /tmp/cc71pHMn.s:605    .text:00000000000002d4 .L0 
     /tmp/cc71pHMn.s:610    .text:00000000000002e0 .L0 
     /tmp/cc71pHMn.s:611    .text:00000000000002e4 .L0 
     /tmp/cc71pHMn.s:613    .text:00000000000002e8 .L0 
     /tmp/cc71pHMn.s:614    .text:00000000000002e8 .L0 
     /tmp/cc71pHMn.s:616    .text:00000000000002ec .L0 
     /tmp/cc71pHMn.s:618    .text:00000000000002f0 .L0 
     /tmp/cc71pHMn.s:624    .text:00000000000002f0 _ZN9Semaphore6signalEv
     /tmp/cc71pHMn.s:627    .text:00000000000002f0 .L0 
     /tmp/cc71pHMn.s:629    .text:00000000000002f0 .L0 
     /tmp/cc71pHMn.s:630    .text:00000000000002f4 .L0 
     /tmp/cc71pHMn.s:633    .text:00000000000002fc .L0 
     /tmp/cc71pHMn.s:634    .text:00000000000002fc .L0 
     /tmp/cc71pHMn.s:636    .text:0000000000000300 .L0 
     /tmp/cc71pHMn.s:638    .text:0000000000000300 .L0 
     /tmp/cc71pHMn.s:639    .text:0000000000000300 .L0 
     /tmp/cc71pHMn.s:644    .text:000000000000030c .L0 
     /tmp/cc71pHMn.s:645    .text:0000000000000310 .L0 
     /tmp/cc71pHMn.s:647    .text:0000000000000314 .L0 
     /tmp/cc71pHMn.s:648    .text:0000000000000314 .L0 
     /tmp/cc71pHMn.s:650    .text:0000000000000318 .L0 
     /tmp/cc71pHMn.s:652    .text:000000000000031c .L0 
     /tmp/cc71pHMn.s:658    .text:000000000000031c _ZN7Console4getcEv
GAS LISTING /tmp/cc71pHMn.s 			page 23


     /tmp/cc71pHMn.s:661    .text:000000000000031c .L0 
     /tmp/cc71pHMn.s:662    .text:000000000000031c .L0 
     /tmp/cc71pHMn.s:663    .text:0000000000000320 .L0 
     /tmp/cc71pHMn.s:666    .text:0000000000000328 .L0 
     /tmp/cc71pHMn.s:667    .text:0000000000000328 .L0 
     /tmp/cc71pHMn.s:669    .text:000000000000032c .L0 
     /tmp/cc71pHMn.s:671    .text:000000000000032c .L0 
     /tmp/cc71pHMn.s:672    .text:000000000000032c .L0 
     /tmp/cc71pHMn.s:675    .text:0000000000000334 .L0 
     /tmp/cc71pHMn.s:676    .text:0000000000000338 .L0 
     /tmp/cc71pHMn.s:678    .text:000000000000033c .L0 
     /tmp/cc71pHMn.s:679    .text:000000000000033c .L0 
     /tmp/cc71pHMn.s:681    .text:0000000000000340 .L0 
     /tmp/cc71pHMn.s:683    .text:0000000000000344 .L0 
     /tmp/cc71pHMn.s:689    .text:0000000000000344 _ZN7Console4putcEc
     /tmp/cc71pHMn.s:692    .text:0000000000000344 .L0 
     /tmp/cc71pHMn.s:694    .text:0000000000000344 .L0 
     /tmp/cc71pHMn.s:695    .text:0000000000000348 .L0 
     /tmp/cc71pHMn.s:698    .text:0000000000000350 .L0 
     /tmp/cc71pHMn.s:699    .text:0000000000000350 .L0 
     /tmp/cc71pHMn.s:701    .text:0000000000000354 .L0 
     /tmp/cc71pHMn.s:703    .text:0000000000000354 .L0 
     /tmp/cc71pHMn.s:704    .text:0000000000000354 .L0 
     /tmp/cc71pHMn.s:707    .text:000000000000035c .L0 
     /tmp/cc71pHMn.s:708    .text:0000000000000360 .L0 
     /tmp/cc71pHMn.s:710    .text:0000000000000364 .L0 
     /tmp/cc71pHMn.s:711    .text:0000000000000364 .L0 
     /tmp/cc71pHMn.s:713    .text:0000000000000368 .L0 
     /tmp/cc71pHMn.s:715    .text:000000000000036c .L0 
     /tmp/cc71pHMn.s:32     .text._ZN6Thread3runEv:0000000000000018 .L0 
     /tmp/cc71pHMn.s:745    .text:000000000000036c .L0 
     /tmp/cc71pHMn.s:117    .text:0000000000000054 .L0 
     /tmp/cc71pHMn.s:467    .text:0000000000000214 .L0 
     /tmp/cc71pHMn.s:473    .text:0000000000000224 .L0 
     /tmp/cc71pHMn.s:501    .text:0000000000000240 .L0 
     /tmp/cc71pHMn.s:564    .text:000000000000029c .L0 
     /tmp/cc71pHMn.s:345    .text:0000000000000188 .L19
     /tmp/cc71pHMn.s:329    .text:0000000000000174 .L18
     /tmp/cc71pHMn.s:390    .text:00000000000001c0 .L27
     /tmp/cc71pHMn.s:514    .text:0000000000000260 .L37
     /tmp/cc71pHMn.s:2163   .debug_abbrev:0000000000000000 .Ldebug_abbrev0
     /tmp/cc71pHMn.s:3813   .debug_str:000000000000066a .LASF137
     /tmp/cc71pHMn.s:3683   .debug_str:000000000000031a .LASF138
     /tmp/cc71pHMn.s:3655   .debug_str:000000000000024a .LASF139
     /tmp/cc71pHMn.s:3559   .debug_ranges:0000000000000000 .Ldebug_ranges0
     /tmp/cc71pHMn.s:3567   .debug_line:0000000000000000 .Ldebug_line0
     /tmp/cc71pHMn.s:3673   .debug_str:00000000000002de .LASF0
     /tmp/cc71pHMn.s:3697   .debug_str:0000000000000371 .LASF1
     /tmp/cc71pHMn.s:3765   .debug_str:0000000000000540 .LASF2
     /tmp/cc71pHMn.s:3771   .debug_str:0000000000000571 .LASF4
     /tmp/cc71pHMn.s:3685   .debug_str:000000000000032e .LASF3
     /tmp/cc71pHMn.s:3579   .debug_str:0000000000000039 .LASF5
     /tmp/cc71pHMn.s:3743   .debug_str:000000000000049a .LASF6
     /tmp/cc71pHMn.s:3741   .debug_str:0000000000000487 .LASF7
     /tmp/cc71pHMn.s:3691   .debug_str:0000000000000354 .LASF8
     /tmp/cc71pHMn.s:3653   .debug_str:000000000000023a .LASF9
     /tmp/cc71pHMn.s:3657   .debug_str:0000000000000268 .LASF10
GAS LISTING /tmp/cc71pHMn.s 			page 24


     /tmp/cc71pHMn.s:3607   .debug_str:00000000000000fb .LASF11
     /tmp/cc71pHMn.s:3649   .debug_str:0000000000000226 .LASF12
     /tmp/cc71pHMn.s:3619   .debug_str:000000000000014f .LASF13
     /tmp/cc71pHMn.s:3605   .debug_str:00000000000000eb .LASF14
     /tmp/cc71pHMn.s:3791   .debug_str:00000000000005e5 .LASF15
     /tmp/cc71pHMn.s:3637   .debug_str:00000000000001de .LASF16
     /tmp/cc71pHMn.s:3783   .debug_str:00000000000005bd .LASF17
     /tmp/cc71pHMn.s:3591   .debug_str:0000000000000094 .LASF18
     /tmp/cc71pHMn.s:3799   .debug_str:0000000000000613 .LASF19
     /tmp/cc71pHMn.s:3827   .debug_str:0000000000000793 .LASF20
     /tmp/cc71pHMn.s:3693   .debug_str:0000000000000367 .LASF21
     /tmp/cc71pHMn.s:3609   .debug_str:000000000000010a .LASF22
     /tmp/cc71pHMn.s:3571   .debug_str:0000000000000007 .LASF23
     /tmp/cc71pHMn.s:3595   .debug_str:00000000000000a1 .LASF24
     /tmp/cc71pHMn.s:3781   .debug_str:00000000000005b4 .LASF25
     /tmp/cc71pHMn.s:3851   .debug_str:0000000000000878 .LASF26
     /tmp/cc71pHMn.s:3825   .debug_str:000000000000078b .LASF27
     /tmp/cc71pHMn.s:3823   .debug_str:0000000000000781 .LASF28
     /tmp/cc71pHMn.s:3719   .debug_str:0000000000000402 .LASF29
     /tmp/cc71pHMn.s:3761   .debug_str:0000000000000521 .LASF30
     /tmp/cc71pHMn.s:3687   .debug_str:0000000000000340 .LASF31
     /tmp/cc71pHMn.s:3721   .debug_str:000000000000040d .LASF32
     /tmp/cc71pHMn.s:3737   .debug_str:0000000000000461 .LASF34
     /tmp/cc71pHMn.s:3643   .debug_str:0000000000000206 .LASF33
     /tmp/cc71pHMn.s:3849   .debug_str:000000000000085e .LASF35
     /tmp/cc71pHMn.s:3795   .debug_str:00000000000005fa .LASF36
     /tmp/cc71pHMn.s:3835   .debug_str:00000000000007ba .LASF37
     /tmp/cc71pHMn.s:3703   .debug_str:00000000000003a9 .LASF38
     /tmp/cc71pHMn.s:3617   .debug_str:0000000000000145 .LASF39
     /tmp/cc71pHMn.s:3785   .debug_str:00000000000005d3 .LASF40
     /tmp/cc71pHMn.s:3727   .debug_str:000000000000042b .LASF41
     /tmp/cc71pHMn.s:3711   .debug_str:00000000000003d6 .LASF56
     /tmp/cc71pHMn.s:3597   .debug_str:00000000000000a9 .LASF69
     /tmp/cc71pHMn.s:3709   .debug_str:00000000000003cf .LASF42
     /tmp/cc71pHMn.s:3773   .debug_str:0000000000000578 .LASF44
     /tmp/cc71pHMn.s:3639   .debug_str:00000000000001f4 .LASF43
     /tmp/cc71pHMn.s:3715   .debug_str:00000000000003e3 .LASF45
     /tmp/cc71pHMn.s:3701   .debug_str:000000000000039c .LASF46
     /tmp/cc71pHMn.s:3811   .debug_str:0000000000000662 .LASF47
     /tmp/cc71pHMn.s:3777   .debug_str:000000000000059f .LASF48
     /tmp/cc71pHMn.s:3839   .debug_str:00000000000007e4 .LASF49
     /tmp/cc71pHMn.s:3603   .debug_str:00000000000000dd .LASF50
     /tmp/cc71pHMn.s:3753   .debug_str:00000000000004d7 .LASF51
     /tmp/cc71pHMn.s:3615   .debug_str:0000000000000136 .LASF52
     /tmp/cc71pHMn.s:3665   .debug_str:0000000000000296 .LASF53
     /tmp/cc71pHMn.s:3713   .debug_str:00000000000003de .LASF54
     /tmp/cc71pHMn.s:3787   .debug_str:00000000000005d8 .LASF55
     /tmp/cc71pHMn.s:3815   .debug_str:000000000000072e .LASF57
     /tmp/cc71pHMn.s:3739   .debug_str:000000000000047b .LASF58
     /tmp/cc71pHMn.s:3699   .debug_str:0000000000000384 .LASF60
     /tmp/cc71pHMn.s:3863   .debug_str:00000000000008d6 .LASF59
     /tmp/cc71pHMn.s:3853   .debug_str:000000000000087e .LASF61
     /tmp/cc71pHMn.s:3627   .debug_str:000000000000019c .LASF62
     /tmp/cc71pHMn.s:3755   .debug_str:00000000000004f4 .LASF63
     /tmp/cc71pHMn.s:3789   .debug_str:00000000000005dd .LASF64
     /tmp/cc71pHMn.s:3859   .debug_str:00000000000008b8 .LASF65
     /tmp/cc71pHMn.s:3599   .debug_str:00000000000000c1 .LASF66
GAS LISTING /tmp/cc71pHMn.s 			page 25


     /tmp/cc71pHMn.s:3621   .debug_str:000000000000015f .LASF67
     /tmp/cc71pHMn.s:3689   .debug_str:000000000000034b .LASF68
     /tmp/cc71pHMn.s:3843   .debug_str:0000000000000834 .LASF70
     /tmp/cc71pHMn.s:3837   .debug_str:00000000000007db .LASF71
     /tmp/cc71pHMn.s:3731   .debug_str:000000000000043c .LASF140
     /tmp/cc71pHMn.s:3675   .debug_str:00000000000002eb .LASF118
     /tmp/cc71pHMn.s:3625   .debug_str:0000000000000189 .LASF141
     /tmp/cc71pHMn.s:3717   .debug_str:00000000000003fd .LASF72
     /tmp/cc71pHMn.s:3635   .debug_str:00000000000001cb .LASF73
     /tmp/cc71pHMn.s:3801   .debug_str:000000000000061b .LASF74
     /tmp/cc71pHMn.s:3829   .debug_str:0000000000000798 .LASF75
     /tmp/cc71pHMn.s:3807   .debug_str:0000000000000637 .LASF83
     /tmp/cc71pHMn.s:3587   .debug_str:000000000000007e .LASF85
     /tmp/cc71pHMn.s:3803   .debug_str:0000000000000620 .LASF76
     /tmp/cc71pHMn.s:3749   .debug_str:00000000000004c2 .LASF88
     /tmp/cc71pHMn.s:3775   .debug_str:000000000000058d .LASF90
     /tmp/cc71pHMn.s:3631   .debug_str:00000000000001ad .LASF77
     /tmp/cc71pHMn.s:3613   .debug_str:0000000000000121 .LASF79
     /tmp/cc71pHMn.s:3797   .debug_str:000000000000060c .LASF78
     /tmp/cc71pHMn.s:3581   .debug_str:0000000000000040 .LASF80
     /tmp/cc71pHMn.s:3677   .debug_str:00000000000002f0 .LASF81
     /tmp/cc71pHMn.s:3671   .debug_str:00000000000002ce .LASF142
     /tmp/cc71pHMn.s:3663   .debug_str:000000000000028f .LASF82
     /tmp/cc71pHMn.s:3601   .debug_str:00000000000000cb .LASF84
     /tmp/cc71pHMn.s:3759   .debug_str:0000000000000514 .LASF86
     /tmp/cc71pHMn.s:3855   .debug_str:0000000000000894 .LASF87
     /tmp/cc71pHMn.s:3779   .debug_str:00000000000005ac .LASF89
     /tmp/cc71pHMn.s:3645   .debug_str:0000000000000211 .LASF91
     /tmp/cc71pHMn.s:3847   .debug_str:0000000000000858 .LASF92
     /tmp/cc71pHMn.s:3575   .debug_str:000000000000001c .LASF93
     /tmp/cc71pHMn.s:3805   .debug_str:0000000000000632 .LASF94
     /tmp/cc71pHMn.s:3745   .debug_str:00000000000004a1 .LASF95
     /tmp/cc71pHMn.s:3629   .debug_str:00000000000001a4 .LASF143
     /tmp/cc71pHMn.s:3735   .debug_str:000000000000044b .LASF144
     /tmp/cc71pHMn.s:3589   .debug_str:000000000000008e .LASF96
     /tmp/cc71pHMn.s:3817   .debug_str:0000000000000749 .LASF97
     /tmp/cc71pHMn.s:3679   .debug_str:00000000000002f9 .LASF98
     /tmp/cc71pHMn.s:3669   .debug_str:00000000000002bd .LASF145
     /tmp/cc71pHMn.s:3831   .debug_str:00000000000007a2 .LASF146
     /tmp/cc71pHMn.s:3809   .debug_str:000000000000064c .LASF147
     /tmp/cc71pHMn.s:690    .text:0000000000000344 .LFB45
     /tmp/cc71pHMn.s:716    .text:000000000000036c .LFE45
     /tmp/cc71pHMn.s:3274   .debug_loc:0000000000000000 .LLST17
     /tmp/cc71pHMn.s:705    .text:000000000000035c .LVL44
     /tmp/cc71pHMn.s:659    .text:000000000000031c .LFB44
     /tmp/cc71pHMn.s:684    .text:0000000000000344 .LFE44
     /tmp/cc71pHMn.s:673    .text:0000000000000334 .LVL42
     /tmp/cc71pHMn.s:625    .text:00000000000002f0 .LFB43
     /tmp/cc71pHMn.s:653    .text:000000000000031c .LFE43
     /tmp/cc71pHMn.s:3651   .debug_str:0000000000000235 .LASF99
     /tmp/cc71pHMn.s:3288   .debug_loc:0000000000000039 .LLST16
     /tmp/cc71pHMn.s:642    .text:000000000000030c .LVL41
     /tmp/cc71pHMn.s:591    .text:00000000000002c4 .LFB42
     /tmp/cc71pHMn.s:619    .text:00000000000002f0 .LFE42
     /tmp/cc71pHMn.s:3302   .debug_loc:0000000000000072 .LLST15
     /tmp/cc71pHMn.s:608    .text:00000000000002e0 .LVL38
     /tmp/cc71pHMn.s:3577   .debug_str:000000000000002f .LASF100
GAS LISTING /tmp/cc71pHMn.s 			page 26


     /tmp/cc71pHMn.s:3705   .debug_str:00000000000003ae .LASF101
     /tmp/cc71pHMn.s:246    .text:00000000000000f4 .LFB41
     /tmp/cc71pHMn.s:279    .text:0000000000000134 .LFE41
     /tmp/cc71pHMn.s:3316   .debug_loc:00000000000000ab .LLST6
     /tmp/cc71pHMn.s:263    .text:0000000000000114 .LVL15
     /tmp/cc71pHMn.s:266    .text:0000000000000120 .LVL16
     /tmp/cc71pHMn.s:3585   .debug_str:000000000000006c .LASF102
     /tmp/cc71pHMn.s:101    .text:0000000000000044 .LFB39
     /tmp/cc71pHMn.s:136    .text:000000000000007c .LFE39
     /tmp/cc71pHMn.s:3334   .debug_loc:00000000000000f7 .LLST2
     /tmp/cc71pHMn.s:124    .text:000000000000006c .LVL7
     /tmp/cc71pHMn.s:3593   .debug_str:000000000000009c .LASF109
     /tmp/cc71pHMn.s:3611   .debug_str:000000000000010f .LASF103
     /tmp/cc71pHMn.s:550    .text:000000000000028c .LFB36
     /tmp/cc71pHMn.s:583    .text:00000000000002c4 .LFE36
     /tmp/cc71pHMn.s:3348   .debug_loc:0000000000000130 .LLST13
     /tmp/cc71pHMn.s:3368   .debug_loc:000000000000017e .LLST14
     /tmp/cc71pHMn.s:571    .text:00000000000002b4 .LVL35
     /tmp/cc71pHMn.s:64     .text:0000000000000018 .LFB34
     /tmp/cc71pHMn.s:95     .text:0000000000000044 .LFE34
     /tmp/cc71pHMn.s:3641   .debug_str:00000000000001ff .LASF104
     /tmp/cc71pHMn.s:3382   .debug_loc:00000000000001b7 .LLST0
     /tmp/cc71pHMn.s:3396   .debug_loc:00000000000001f0 .LLST1
     /tmp/cc71pHMn.s:84     .text:0000000000000034 .LVL4
     /tmp/cc71pHMn.s:3767   .debug_str:000000000000054e .LASF105
     /tmp/cc71pHMn.s:455    .text:0000000000000208 .LFB32
     /tmp/cc71pHMn.s:487    .text:0000000000000240 .LFE32
     /tmp/cc71pHMn.s:430    .text:00000000000001ec .LFB30
     /tmp/cc71pHMn.s:449    .text:0000000000000208 .LFE30
     /tmp/cc71pHMn.s:399    .text:00000000000001c4 .LFB29
     /tmp/cc71pHMn.s:424    .text:00000000000001ec .LFE29
     /tmp/cc71pHMn.s:413    .text:00000000000001dc .LVL28
     /tmp/cc71pHMn.s:358    .text:0000000000000190 .LFB28
     /tmp/cc71pHMn.s:393    .text:00000000000001c4 .LFE28
     /tmp/cc71pHMn.s:3410   .debug_loc:0000000000000229 .LLST9
     /tmp/cc71pHMn.s:380    .text:00000000000001b0 .LVL27
     /tmp/cc71pHMn.s:285    .text:0000000000000134 .LFB27
     /tmp/cc71pHMn.s:352    .text:0000000000000190 .LFE27
     /tmp/cc71pHMn.s:3424   .debug_loc:0000000000000262 .LLST7
     /tmp/cc71pHMn.s:309    .text:0000000000000154 .LBB4
     /tmp/cc71pHMn.s:330    .text:0000000000000174 .LBE4
     /tmp/cc71pHMn.s:3569   .debug_str:0000000000000000 .LASF106
     /tmp/cc71pHMn.s:3453   .debug_loc:00000000000002d7 .LLST8
     /tmp/cc71pHMn.s:316    .text:0000000000000164 .LVL20
     /tmp/cc71pHMn.s:3707   .debug_str:00000000000003c0 .LASF107
     /tmp/cc71pHMn.s:216    .text:00000000000000cc .LFB26
     /tmp/cc71pHMn.s:240    .text:00000000000000f4 .LFE26
     /tmp/cc71pHMn.s:3460   .debug_loc:00000000000002fa .LLST5
     /tmp/cc71pHMn.s:230    .text:00000000000000e4 .LVL13
     /tmp/cc71pHMn.s:3747   .debug_str:00000000000004b3 .LASF108
     /tmp/cc71pHMn.s:37     .text:0000000000000000 .LFB24
     /tmp/cc71pHMn.s:56     .text:0000000000000018 .LFE24
     /tmp/cc71pHMn.s:3821   .debug_str:000000000000076a .LASF110
     /tmp/cc71pHMn.s:495    .text:0000000000000240 .LFB21
     /tmp/cc71pHMn.s:542    .text:000000000000028c .LFE21
     /tmp/cc71pHMn.s:3474   .debug_loc:0000000000000333 .LLST10
     /tmp/cc71pHMn.s:3488   .debug_loc:000000000000036c .LLST11
GAS LISTING /tmp/cc71pHMn.s 			page 27


     /tmp/cc71pHMn.s:3502   .debug_loc:00000000000003a5 .LLST12
     /tmp/cc71pHMn.s:530    .text:000000000000027c .LVL32
     /tmp/cc71pHMn.s:3573   .debug_str:000000000000000c .LASF111
     /tmp/cc71pHMn.s:3733   .debug_str:0000000000000444 .LASF112
     /tmp/cc71pHMn.s:184    .text:00000000000000a4 .LFB19
     /tmp/cc71pHMn.s:210    .text:00000000000000cc .LFE19
     /tmp/cc71pHMn.s:3516   .debug_loc:00000000000003de .LLST4
     /tmp/cc71pHMn.s:199    .text:00000000000000bc .LVL11
     /tmp/cc71pHMn.s:3857   .debug_str:00000000000008ab .LASF113
     /tmp/cc71pHMn.s:3647   .debug_str:0000000000000220 .LASF114
     /tmp/cc71pHMn.s:152    .text:000000000000007c .LFB18
     /tmp/cc71pHMn.s:178    .text:00000000000000a4 .LFE18
     /tmp/cc71pHMn.s:3695   .debug_str:000000000000036c .LASF115
     /tmp/cc71pHMn.s:3530   .debug_loc:0000000000000417 .LLST3
     /tmp/cc71pHMn.s:167    .text:0000000000000094 .LVL9
     /tmp/cc71pHMn.s:11     .text._ZN6Thread3runEv:0000000000000000 .LFB16
     /tmp/cc71pHMn.s:30     .text._ZN6Thread3runEv:0000000000000018 .LFE16
     /tmp/cc71pHMn.s:3793   .debug_str:00000000000005f1 .LASF116
     /tmp/cc71pHMn.s:3725   .debug_str:0000000000000422 .LASF117
     /tmp/cc71pHMn.s:3763   .debug_str:000000000000052b .LASF119
     /tmp/cc71pHMn.s:3661   .debug_str:0000000000000284 .LASF120
     /tmp/cc71pHMn.s:3681   .debug_str:0000000000000308 .LASF121
     /tmp/cc71pHMn.s:3861   .debug_str:00000000000008cd .LASF122
     /tmp/cc71pHMn.s:3623   .debug_str:0000000000000176 .LASF123
     /tmp/cc71pHMn.s:3751   .debug_str:00000000000004cd .LASF124
     /tmp/cc71pHMn.s:3769   .debug_str:000000000000055d .LASF125
     /tmp/cc71pHMn.s:3757   .debug_str:000000000000050b .LASF126
     /tmp/cc71pHMn.s:3583   .debug_str:0000000000000057 .LASF127
     /tmp/cc71pHMn.s:3833   .debug_str:00000000000007aa .LASF128
     /tmp/cc71pHMn.s:3633   .debug_str:00000000000001b2 .LASF129
     /tmp/cc71pHMn.s:3729   .debug_str:0000000000000430 .LASF130
     /tmp/cc71pHMn.s:3841   .debug_str:000000000000080f .LASF131
     /tmp/cc71pHMn.s:3819   .debug_str:000000000000075c .LASF132
     /tmp/cc71pHMn.s:3845   .debug_str:000000000000084a .LASF133
     /tmp/cc71pHMn.s:3667   .debug_str:00000000000002b4 .LASF134
     /tmp/cc71pHMn.s:3659   .debug_str:0000000000000276 .LASF135
     /tmp/cc71pHMn.s:3723   .debug_str:0000000000000418 .LASF136
     /tmp/cc71pHMn.s:693    .text:0000000000000344 .LVL43
     /tmp/cc71pHMn.s:628    .text:00000000000002f0 .LVL39
     /tmp/cc71pHMn.s:640    .text:0000000000000304 .LVL40
     /tmp/cc71pHMn.s:594    .text:00000000000002c4 .LVL36
     /tmp/cc71pHMn.s:606    .text:00000000000002d8 .LVL37
     /tmp/cc71pHMn.s:249    .text:00000000000000f4 .LVL14
     /tmp/cc71pHMn.s:274    .text:000000000000012c .LVL17
     /tmp/cc71pHMn.s:106    .text:0000000000000044 .LVL5
     /tmp/cc71pHMn.s:122    .text:0000000000000064 .LVL6
     /tmp/cc71pHMn.s:553    .text:000000000000028c .LVL33
     /tmp/cc71pHMn.s:569    .text:00000000000002ac .LVL34
     /tmp/cc71pHMn.s:67     .text:0000000000000018 .LVL2
     /tmp/cc71pHMn.s:77     .text:0000000000000028 .LVL3
     /tmp/cc71pHMn.s:361    .text:0000000000000190 .LVL25
     /tmp/cc71pHMn.s:365    .text:0000000000000194 .LVL26
     /tmp/cc71pHMn.s:288    .text:0000000000000134 .LVL18
     /tmp/cc71pHMn.s:314    .text:000000000000015c .LVL19
     /tmp/cc71pHMn.s:340    .text:0000000000000180 .LVL22
     /tmp/cc71pHMn.s:344    .text:0000000000000188 .LVL23
     /tmp/cc71pHMn.s:348    .text:000000000000018c .LVL24
GAS LISTING /tmp/cc71pHMn.s 			page 28


     /tmp/cc71pHMn.s:328    .text:0000000000000174 .LVL21
     /tmp/cc71pHMn.s:219    .text:00000000000000cc .LVL12
     /tmp/cc71pHMn.s:498    .text:0000000000000240 .LVL30
     /tmp/cc71pHMn.s:528    .text:0000000000000274 .LVL31
     /tmp/cc71pHMn.s:187    .text:00000000000000a4 .LVL10
     /tmp/cc71pHMn.s:155    .text:000000000000007c .LVL8
     /tmp/cc71pHMn.s:746    .debug_info:0000000000000000 .Ldebug_info0
     /tmp/cc71pHMn.s:5      .text:0000000000000000 .Ltext0
     /tmp/cc71pHMn.s:740    .text:000000000000036c .Letext0
     /tmp/cc71pHMn.s:139    .gcc_except_table:0000000000000000 .LLSDA39

UNDEFINED SYMBOLS
_Z9sem_closeP4_sem
__gxx_personality_v0
_Z9mem_allocm
_Z8mem_freePv
_Z13thread_createPP7_threadPFvPvES2_
_Z11thread_joinP7_thread
_Z15thread_dispatchv
_Z8sem_openPP4_semj
_Z8sem_waitP4_sem
_Z10sem_signalP4_sem
_Z4getcv
_Z4putcc
