GAS LISTING /tmp/cc0y7SrN.s 			page 1


   1              		.file	"thread.cpp"
   2              		.option pic
   3              		.option norelax
   4              		.text
   5              	.Ltext0:
   6              		.align	2
   7              		.globl	_ZN7_thread13threadWrapperEv
   9              	_ZN7_thread13threadWrapperEv:
  10              	.LFB26:
  11              		.file 1 "src/thread.cpp"
   1:src/thread.cpp **** //
   2:src/thread.cpp **** // Created by os on 8/12/23.
   3:src/thread.cpp **** //
   4:src/thread.cpp **** 
   5:src/thread.cpp **** #include "../h/thread.hpp"
   6:src/thread.cpp **** #include "../h/MemoryAllocator.hpp"
   7:src/thread.cpp **** #include "../h/scheduler.hpp"
   8:src/thread.cpp **** #include "../h/syscall_c.hpp"
   9:src/thread.cpp **** #include "../h/print.hpp"
  10:src/thread.cpp **** #include "../h/list.hpp"
  11:src/thread.cpp **** 
  12:src/thread.cpp **** thread_t _thread::running = nullptr;
  13:src/thread.cpp **** 
  14:src/thread.cpp **** 
  15:src/thread.cpp **** int _thread::threadCreate (thread_t* handle, void(*start_routine)(void*), void* arg, void* stack_sp
  16:src/thread.cpp **** //    size_t blockNum = MemoryAllocator::convert2Blocks(sizeof(_thread*));
  17:src/thread.cpp **** //    handle = (_thread**) MemoryAllocator::mem_alloc(blockNum);
  18:src/thread.cpp **** 
  19:src/thread.cpp ****     size_t blockNum = MemoryAllocator::convert2Blocks(sizeof(_thread));
  20:src/thread.cpp ****     *handle = (_thread*) MemoryAllocator::mem_alloc(blockNum);
  21:src/thread.cpp **** 
  22:src/thread.cpp ****     (*handle)->finished = false;
  23:src/thread.cpp ****     (*handle)->timeSlice = 0;
  24:src/thread.cpp ****     (*handle)->body = start_routine;
  25:src/thread.cpp ****     (*handle)->arg = arg;
  26:src/thread.cpp **** 
  27:src/thread.cpp ****     if (start_routine != nullptr)
  28:src/thread.cpp ****         (*handle)->stack = (uint64*) stack_space;
  29:src/thread.cpp ****     else
  30:src/thread.cpp ****         (*handle)->stack = nullptr;
  31:src/thread.cpp **** 
  32:src/thread.cpp ****     // (*handle)->context.ra = (uint64) &threadWrapper;
  33:src/thread.cpp **** 
  34:src/thread.cpp ****     if ((*handle)->stack != nullptr)
  35:src/thread.cpp ****     {
  36:src/thread.cpp ****         (*handle)->context.sp = (uint64) &((*handle)->stack[DEFAULT_STACK_SIZE]);
  37:src/thread.cpp ****         (*handle)->context.ra = (uint64) &threadWrapper;
  38:src/thread.cpp ****     }
  39:src/thread.cpp ****     else
  40:src/thread.cpp ****     {
  41:src/thread.cpp ****         // asm volatile("sd ra, %0" : "=m" ((*handle)->context.ra));
  42:src/thread.cpp ****         // (*handle)->context.ra = (uint64) &threadWrapper;
  43:src/thread.cpp ****         (*handle)->context.sp = 0;
  44:src/thread.cpp ****     }
  45:src/thread.cpp **** 
  46:src/thread.cpp ****     if ((*handle)->body != nullptr)
  47:src/thread.cpp ****         Scheduler::put(*handle);
GAS LISTING /tmp/cc0y7SrN.s 			page 2


  48:src/thread.cpp **** 
  49:src/thread.cpp **** //    printString("\nnew thread: ");
  50:src/thread.cpp **** //    printInteger((uint64) *handle);
  51:src/thread.cpp **** //    printString("\n");
  52:src/thread.cpp **** 
  53:src/thread.cpp ****     return 0;
  54:src/thread.cpp **** }
  55:src/thread.cpp **** 
  56:src/thread.cpp **** 
  57:src/thread.cpp **** void _thread::threadWrapper()
  58:src/thread.cpp **** {
  12              		.loc 1 58 1
  13              		.cfi_startproc
  14 0000 130101FF 		addi	sp,sp,-16
  15              		.cfi_def_cfa_offset 16
  16 0004 23341100 		sd	ra,8(sp)
  17 0008 23308100 		sd	s0,0(sp)
  18              		.cfi_offset 1, -8
  19              		.cfi_offset 8, -16
  20 000c 13040101 		addi	s0,sp,16
  21              		.cfi_def_cfa 8, 0
  59:src/thread.cpp ****     Riscv::popSppSpie();
  22              		.loc 1 59 5
  23              		.loc 1 59 22 is_stmt 0
  24 0010 97000000 		call	_ZN5Riscv10popSppSpieEv@plt
  24      E7800000 
  25              	.LVL0:
  60:src/thread.cpp **** 
  61:src/thread.cpp ****     //_thread::running->body(handle->arg);
  62:src/thread.cpp ****     _thread::running->body(_thread::running->arg);
  26              		.loc 1 62 5 is_stmt 1
  27              		.loc 1 62 23 is_stmt 0
  28 0018 97070000 		ld	a5,.LANCHOR0
  28      83B70700 
  29 0020 03B70700 		ld	a4,0(a5)
  30              		.loc 1 62 27
  31 0024 03B58702 		ld	a0,40(a5)
  32 0028 E7000700 		jalr	a4
  33              	.LVL1:
  63:src/thread.cpp **** 
  64:src/thread.cpp ****     thread_exit();
  34              		.loc 1 64 5 is_stmt 1
  35              		.loc 1 64 16 is_stmt 0
  36 002c 97000000 		call	_Z11thread_exitv@plt
  36      E7800000 
  37              	.LVL2:
  65:src/thread.cpp **** }
  38              		.loc 1 65 1
  39 0034 83308100 		ld	ra,8(sp)
  40              		.cfi_restore 1
  41 0038 03340100 		ld	s0,0(sp)
  42              		.cfi_restore 8
  43              		.cfi_def_cfa 2, 16
  44 003c 13010101 		addi	sp,sp,16
  45              		.cfi_def_cfa_offset 0
  46 0040 67800000 		jr	ra
  47              		.cfi_endproc
GAS LISTING /tmp/cc0y7SrN.s 			page 3


  48              	.LFE26:
  50              		.align	2
  51              		.globl	_ZN7_thread12threadCreateEPPS_PFvPvES2_S2_
  53              	_ZN7_thread12threadCreateEPPS_PFvPvES2_S2_:
  54              	.LFB25:
  15:src/thread.cpp **** //    size_t blockNum = MemoryAllocator::convert2Blocks(sizeof(_thread*));
  55              		.loc 1 15 105 is_stmt 1
  56              		.cfi_startproc
  57              	.LVL3:
  58 0044 130101FD 		addi	sp,sp,-48
  59              		.cfi_def_cfa_offset 48
  60 0048 23341102 		sd	ra,40(sp)
  61 004c 23308102 		sd	s0,32(sp)
  62 0050 233C9100 		sd	s1,24(sp)
  63 0054 23382101 		sd	s2,16(sp)
  64 0058 23343101 		sd	s3,8(sp)
  65 005c 23304101 		sd	s4,0(sp)
  66              		.cfi_offset 1, -8
  67              		.cfi_offset 8, -16
  68              		.cfi_offset 9, -24
  69              		.cfi_offset 18, -32
  70              		.cfi_offset 19, -40
  71              		.cfi_offset 20, -48
  72 0060 13040103 		addi	s0,sp,48
  73              		.cfi_def_cfa 8, 0
  74 0064 93040500 		mv	s1,a0
  75 0068 13890500 		mv	s2,a1
  76 006c 93090600 		mv	s3,a2
  77 0070 138A0600 		mv	s4,a3
  19:src/thread.cpp ****     *handle = (_thread*) MemoryAllocator::mem_alloc(blockNum);
  78              		.loc 1 19 5
  19:src/thread.cpp ****     *handle = (_thread*) MemoryAllocator::mem_alloc(blockNum);
  79              		.loc 1 19 54 is_stmt 0
  80 0074 13058003 		li	a0,56
  81              	.LVL4:
  82 0078 97000000 		call	_ZN15MemoryAllocator14convert2BlocksEm@plt
  82      E7800000 
  83              	.LVL5:
  20:src/thread.cpp **** 
  84              		.loc 1 20 5 is_stmt 1
  20:src/thread.cpp **** 
  85              		.loc 1 20 52 is_stmt 0
  86 0080 97000000 		call	_ZN15MemoryAllocator9mem_allocEm@plt
  86      E7800000 
  87              	.LVL6:
  20:src/thread.cpp **** 
  88              		.loc 1 20 13
  89 0088 23B0A400 		sd	a0,0(s1)
  22:src/thread.cpp ****     (*handle)->timeSlice = 0;
  90              		.loc 1 22 5 is_stmt 1
  22:src/thread.cpp ****     (*handle)->timeSlice = 0;
  91              		.loc 1 22 25 is_stmt 0
  92 008c 23040500 		sb	zero,8(a0)
  23:src/thread.cpp ****     (*handle)->body = start_routine;
  93              		.loc 1 23 5 is_stmt 1
  23:src/thread.cpp ****     (*handle)->body = start_routine;
  94              		.loc 1 23 6 is_stmt 0
GAS LISTING /tmp/cc0y7SrN.s 			page 4


  95 0090 83B70400 		ld	a5,0(s1)
  23:src/thread.cpp ****     (*handle)->body = start_routine;
  96              		.loc 1 23 26
  97 0094 23B80702 		sd	zero,48(a5)
  24:src/thread.cpp ****     (*handle)->arg = arg;
  98              		.loc 1 24 5 is_stmt 1
  24:src/thread.cpp ****     (*handle)->arg = arg;
  99              		.loc 1 24 6 is_stmt 0
 100 0098 83B70400 		ld	a5,0(s1)
  24:src/thread.cpp ****     (*handle)->arg = arg;
 101              		.loc 1 24 21
 102 009c 23B02701 		sd	s2,0(a5)
  25:src/thread.cpp **** 
 103              		.loc 1 25 5 is_stmt 1
  25:src/thread.cpp **** 
 104              		.loc 1 25 6 is_stmt 0
 105 00a0 83B70400 		ld	a5,0(s1)
  25:src/thread.cpp **** 
 106              		.loc 1 25 20
 107 00a4 23B43703 		sd	s3,40(a5)
  27:src/thread.cpp ****         (*handle)->stack = (uint64*) stack_space;
 108              		.loc 1 27 5 is_stmt 1
 109 00a8 63060906 		beqz	s2,.L4
  28:src/thread.cpp ****     else
 110              		.loc 1 28 9
  28:src/thread.cpp ****     else
 111              		.loc 1 28 10 is_stmt 0
 112 00ac 83B70400 		ld	a5,0(s1)
  28:src/thread.cpp ****     else
 113              		.loc 1 28 26
 114 00b0 23B84701 		sd	s4,16(a5)
 115              	.L5:
  34:src/thread.cpp ****     {
 116              		.loc 1 34 5 is_stmt 1
  34:src/thread.cpp ****     {
 117              		.loc 1 34 10 is_stmt 0
 118 00b4 03B70400 		ld	a4,0(s1)
  34:src/thread.cpp ****     {
 119              		.loc 1 34 20
 120 00b8 83370701 		ld	a5,16(a4)
  34:src/thread.cpp ****     {
 121              		.loc 1 34 5
 122 00bc 63820706 		beqz	a5,.L6
  36:src/thread.cpp ****         (*handle)->context.ra = (uint64) &threadWrapper;
 123              		.loc 1 36 9 is_stmt 1
  36:src/thread.cpp ****         (*handle)->context.ra = (uint64) &threadWrapper;
 124              		.loc 1 36 42 is_stmt 0
 125 00c0 B7860000 		li	a3,32768
 126 00c4 B387D700 		add	a5,a5,a3
  36:src/thread.cpp ****         (*handle)->context.ra = (uint64) &threadWrapper;
 127              		.loc 1 36 31
 128 00c8 2330F702 		sd	a5,32(a4)
  37:src/thread.cpp ****     }
 129              		.loc 1 37 9 is_stmt 1
  37:src/thread.cpp ****     }
 130              		.loc 1 37 10 is_stmt 0
 131 00cc 83B70400 		ld	a5,0(s1)
GAS LISTING /tmp/cc0y7SrN.s 			page 5


  37:src/thread.cpp ****     }
 132              		.loc 1 37 31
 133 00d0 17070000 		lla	a4,_ZN7_thread13threadWrapperEv
 133      13070700 
 134 00d8 23BCE700 		sd	a4,24(a5)
 135              	.L7:
  46:src/thread.cpp ****         Scheduler::put(*handle);
 136              		.loc 1 46 5 is_stmt 1
  46:src/thread.cpp ****         Scheduler::put(*handle);
 137              		.loc 1 46 10 is_stmt 0
 138 00dc 03B50400 		ld	a0,0(s1)
  46:src/thread.cpp ****         Scheduler::put(*handle);
 139              		.loc 1 46 20
 140 00e0 83370500 		ld	a5,0(a0)
  46:src/thread.cpp ****         Scheduler::put(*handle);
 141              		.loc 1 46 5
 142 00e4 63860700 		beqz	a5,.L8
  47:src/thread.cpp **** 
 143              		.loc 1 47 9 is_stmt 1
  47:src/thread.cpp **** 
 144              		.loc 1 47 23 is_stmt 0
 145 00e8 97000000 		call	_ZN9Scheduler3putEP7_thread@plt
 145      E7800000 
 146              	.LVL7:
 147              	.L8:
  53:src/thread.cpp **** }
 148              		.loc 1 53 5 is_stmt 1
  54:src/thread.cpp **** 
 149              		.loc 1 54 1 is_stmt 0
 150 00f0 13050000 		li	a0,0
 151 00f4 83308102 		ld	ra,40(sp)
 152              		.cfi_remember_state
 153              		.cfi_restore 1
 154 00f8 03340102 		ld	s0,32(sp)
 155              		.cfi_restore 8
 156              		.cfi_def_cfa 2, 48
 157 00fc 83348101 		ld	s1,24(sp)
 158              		.cfi_restore 9
 159              	.LVL8:
 160 0100 03390101 		ld	s2,16(sp)
 161              		.cfi_restore 18
 162              	.LVL9:
 163 0104 83398100 		ld	s3,8(sp)
 164              		.cfi_restore 19
 165              	.LVL10:
 166 0108 033A0100 		ld	s4,0(sp)
 167              		.cfi_restore 20
 168              	.LVL11:
 169 010c 13010103 		addi	sp,sp,48
 170              		.cfi_def_cfa_offset 0
 171 0110 67800000 		jr	ra
 172              	.LVL12:
 173              	.L4:
 174              		.cfi_restore_state
  30:src/thread.cpp **** 
 175              		.loc 1 30 9 is_stmt 1
  30:src/thread.cpp **** 
GAS LISTING /tmp/cc0y7SrN.s 			page 6


 176              		.loc 1 30 10 is_stmt 0
 177 0114 83B70400 		ld	a5,0(s1)
  30:src/thread.cpp **** 
 178              		.loc 1 30 26
 179 0118 23B80700 		sd	zero,16(a5)
 180 011c 6FF09FF9 		j	.L5
 181              	.L6:
  43:src/thread.cpp ****     }
 182              		.loc 1 43 9 is_stmt 1
  43:src/thread.cpp ****     }
 183              		.loc 1 43 31 is_stmt 0
 184 0120 23300702 		sd	zero,32(a4)
 185 0124 6FF09FFB 		j	.L7
 186              		.cfi_endproc
 187              	.LFE25:
 189              		.align	2
 190              		.globl	_ZN7_thread14threadDispatchEv
 192              	_ZN7_thread14threadDispatchEv:
 193              	.LFB27:
  66:src/thread.cpp **** 
  67:src/thread.cpp **** void _thread::threadDispatch ()
  68:src/thread.cpp **** {
 194              		.loc 1 68 1 is_stmt 1
 195              		.cfi_startproc
 196 0128 130101FE 		addi	sp,sp,-32
 197              		.cfi_def_cfa_offset 32
 198 012c 233C1100 		sd	ra,24(sp)
 199 0130 23388100 		sd	s0,16(sp)
 200 0134 23349100 		sd	s1,8(sp)
 201              		.cfi_offset 1, -8
 202              		.cfi_offset 8, -16
 203              		.cfi_offset 9, -24
 204 0138 13040102 		addi	s0,sp,32
 205              		.cfi_def_cfa 8, 0
  69:src/thread.cpp ****     // Scheduler::readyThreadQueue.printAll();
  70:src/thread.cpp **** 
  71:src/thread.cpp ****     _thread *old = _thread::running;
 206              		.loc 1 71 5
 207              		.loc 1 71 14 is_stmt 0
 208 013c 97040000 		ld	s1,.LANCHOR0
 208      83B40400 
 209              	.LVL13:
  72:src/thread.cpp **** 
  73:src/thread.cpp ****     if (!old->finished)
 210              		.loc 1 73 5 is_stmt 1
 211              		.loc 1 73 15 is_stmt 0
 212 0144 83C78400 		lbu	a5,8(s1)
 213              		.loc 1 73 5
 214 0148 63940704 		bnez	a5,.L11
  74:src/thread.cpp ****     {
  75:src/thread.cpp ****         Scheduler::put(old);
 215              		.loc 1 75 9 is_stmt 1
 216              		.loc 1 75 23 is_stmt 0
 217 014c 13850400 		mv	a0,s1
 218 0150 97000000 		call	_ZN9Scheduler3putEP7_thread@plt
 218      E7800000 
 219              	.LVL14:
GAS LISTING /tmp/cc0y7SrN.s 			page 7


  76:src/thread.cpp ****         _thread::running = Scheduler::get();
 220              		.loc 1 76 9 is_stmt 1
 221              		.loc 1 76 42 is_stmt 0
 222 0158 97000000 		call	_ZN9Scheduler3getEv@plt
 222      E7800000 
 223              	.LVL15:
 224              		.loc 1 76 26
 225 0160 97070000 		sd	a0,.LANCHOR0,a5
 225      23B0A700 
  77:src/thread.cpp **** 
  78:src/thread.cpp **** //        printString("old: ");
  79:src/thread.cpp **** //        printInteger((uint64) old);
  80:src/thread.cpp **** //        printString("\nnew running: ");
  81:src/thread.cpp **** //        printInteger((uint64) _thread::running);
  82:src/thread.cpp **** //        printString("\n");
  83:src/thread.cpp **** 
  84:src/thread.cpp ****         if(old != _thread::running)
 226              		.loc 1 84 9 is_stmt 1
 227 0168 638AA400 		beq	s1,a0,.L10
  85:src/thread.cpp ****             contextSwitch(&old->context, &_thread::running->context);
 228              		.loc 1 85 13
 229              		.loc 1 85 26 is_stmt 0
 230 016c 93058501 		addi	a1,a0,24
 231 0170 13858401 		addi	a0,s1,24
 232 0174 97000000 		call	contextSwitch@plt
 232      E7800000 
 233              	.LVL16:
 234              	.L10:
  86:src/thread.cpp ****     }
  87:src/thread.cpp ****     else
  88:src/thread.cpp ****     {
  89:src/thread.cpp ****         // remove threads that are waiting for this one to finish
  90:src/thread.cpp **** 
  91:src/thread.cpp ****         // thread finished -> dealloc the stack and thread
  92:src/thread.cpp ****         MemoryAllocator::mem_free(old->stack);
  93:src/thread.cpp ****         MemoryAllocator::mem_free(old);
  94:src/thread.cpp ****         //MemoryAllocator::mem_free(&old);
  95:src/thread.cpp **** 
  96:src/thread.cpp ****         _thread::running = Scheduler::get();
  97:src/thread.cpp **** 
  98:src/thread.cpp ****         if (_thread::running)
  99:src/thread.cpp ****             contextSwitchThreadEnded(&_thread::running->context);
 100:src/thread.cpp ****     }
 101:src/thread.cpp **** }
 235              		.loc 1 101 1
 236 017c 83308101 		ld	ra,24(sp)
 237              		.cfi_remember_state
 238              		.cfi_restore 1
 239 0180 03340101 		ld	s0,16(sp)
 240              		.cfi_restore 8
 241              		.cfi_def_cfa 2, 32
 242 0184 83348100 		ld	s1,8(sp)
 243              		.cfi_restore 9
 244              	.LVL17:
 245 0188 13010102 		addi	sp,sp,32
 246              		.cfi_def_cfa_offset 0
 247 018c 67800000 		jr	ra
GAS LISTING /tmp/cc0y7SrN.s 			page 8


 248              	.LVL18:
 249              	.L11:
 250              		.cfi_restore_state
  92:src/thread.cpp ****         MemoryAllocator::mem_free(old);
 251              		.loc 1 92 9 is_stmt 1
  92:src/thread.cpp ****         MemoryAllocator::mem_free(old);
 252              		.loc 1 92 34 is_stmt 0
 253 0190 03B50401 		ld	a0,16(s1)
 254 0194 97000000 		call	_ZN15MemoryAllocator8mem_freeEPv@plt
 254      E7800000 
 255              	.LVL19:
  93:src/thread.cpp ****         //MemoryAllocator::mem_free(&old);
 256              		.loc 1 93 9 is_stmt 1
  93:src/thread.cpp ****         //MemoryAllocator::mem_free(&old);
 257              		.loc 1 93 34 is_stmt 0
 258 019c 13850400 		mv	a0,s1
 259 01a0 97000000 		call	_ZN15MemoryAllocator8mem_freeEPv@plt
 259      E7800000 
 260              	.LVL20:
  96:src/thread.cpp **** 
 261              		.loc 1 96 9 is_stmt 1
  96:src/thread.cpp **** 
 262              		.loc 1 96 42 is_stmt 0
 263 01a8 97000000 		call	_ZN9Scheduler3getEv@plt
 263      E7800000 
 264              	.LVL21:
  96:src/thread.cpp **** 
 265              		.loc 1 96 26
 266 01b0 97070000 		sd	a0,.LANCHOR0,a5
 266      23B0A700 
  98:src/thread.cpp ****             contextSwitchThreadEnded(&_thread::running->context);
 267              		.loc 1 98 9 is_stmt 1
 268 01b8 E30205FC 		beqz	a0,.L10
  99:src/thread.cpp ****     }
 269              		.loc 1 99 13
  99:src/thread.cpp ****     }
 270              		.loc 1 99 37 is_stmt 0
 271 01bc 13058501 		addi	a0,a0,24
 272 01c0 97000000 		call	contextSwitchThreadEnded@plt
 272      E7800000 
 273              	.LVL22:
 274              		.loc 1 101 1
 275 01c8 6FF05FFB 		j	.L10
 276              		.cfi_endproc
 277              	.LFE27:
 279              		.globl	_ZN7_thread7runningE
 280              		.bss
 281              		.align	3
 282              		.set	.LANCHOR0,. + 0
 285              	_ZN7_thread7runningE:
 286 0000 00000000 		.zero	8
 286      00000000 
 287              		.text
 288              	.Letext0:
 289              		.file 2 "src/../h/../lib/hw.h"
 290              		.file 3 "src/../h/riscv.hpp"
 291              		.file 4 "src/../h/thread.hpp"
GAS LISTING /tmp/cc0y7SrN.s 			page 9


 292              		.file 5 "src/../h/MemoryAllocator.hpp"
 293              		.file 6 "src/../h/scheduler.hpp"
 294              		.file 7 "src/../h/list.hpp"
 295              		.file 8 "src/../h/syscall_c.hpp"
GAS LISTING /tmp/cc0y7SrN.s 			page 10


DEFINED SYMBOLS
                            *ABS*:0000000000000000 thread.cpp
     /tmp/cc0y7SrN.s:9      .text:0000000000000000 _ZN7_thread13threadWrapperEv
     /tmp/cc0y7SrN.s:13     .text:0000000000000000 .L0 
     /tmp/cc0y7SrN.s:14     .text:0000000000000000 .L0 
     /tmp/cc0y7SrN.s:15     .text:0000000000000004 .L0 
     /tmp/cc0y7SrN.s:18     .text:000000000000000c .L0 
     /tmp/cc0y7SrN.s:19     .text:000000000000000c .L0 
     /tmp/cc0y7SrN.s:21     .text:0000000000000010 .L0 
     /tmp/cc0y7SrN.s:23     .text:0000000000000010 .L0 
     /tmp/cc0y7SrN.s:24     .text:0000000000000010 .L0 
     /tmp/cc0y7SrN.s:27     .text:0000000000000018 .L0 
     /tmp/cc0y7SrN.s:28     .text:0000000000000018 .L0 
     /tmp/cc0y7SrN.s:31     .text:0000000000000024 .L0 
     /tmp/cc0y7SrN.s:35     .text:000000000000002c .L0 
     /tmp/cc0y7SrN.s:36     .text:000000000000002c .L0 
     /tmp/cc0y7SrN.s:39     .text:0000000000000034 .L0 
     /tmp/cc0y7SrN.s:40     .text:0000000000000038 .L0 
     /tmp/cc0y7SrN.s:42     .text:000000000000003c .L0 
     /tmp/cc0y7SrN.s:43     .text:000000000000003c .L0 
     /tmp/cc0y7SrN.s:45     .text:0000000000000040 .L0 
     /tmp/cc0y7SrN.s:47     .text:0000000000000044 .L0 
     /tmp/cc0y7SrN.s:53     .text:0000000000000044 _ZN7_thread12threadCreateEPPS_PFvPvES2_S2_
     /tmp/cc0y7SrN.s:56     .text:0000000000000044 .L0 
     /tmp/cc0y7SrN.s:58     .text:0000000000000044 .L0 
     /tmp/cc0y7SrN.s:59     .text:0000000000000048 .L0 
     /tmp/cc0y7SrN.s:66     .text:0000000000000060 .L0 
     /tmp/cc0y7SrN.s:67     .text:0000000000000060 .L0 
     /tmp/cc0y7SrN.s:68     .text:0000000000000060 .L0 
     /tmp/cc0y7SrN.s:69     .text:0000000000000060 .L0 
     /tmp/cc0y7SrN.s:70     .text:0000000000000060 .L0 
     /tmp/cc0y7SrN.s:71     .text:0000000000000060 .L0 
     /tmp/cc0y7SrN.s:73     .text:0000000000000064 .L0 
     /tmp/cc0y7SrN.s:79     .text:0000000000000074 .L0 
     /tmp/cc0y7SrN.s:80     .text:0000000000000074 .L0 
     /tmp/cc0y7SrN.s:85     .text:0000000000000080 .L0 
     /tmp/cc0y7SrN.s:86     .text:0000000000000080 .L0 
     /tmp/cc0y7SrN.s:89     .text:0000000000000088 .L0 
     /tmp/cc0y7SrN.s:91     .text:000000000000008c .L0 
     /tmp/cc0y7SrN.s:92     .text:000000000000008c .L0 
     /tmp/cc0y7SrN.s:94     .text:0000000000000090 .L0 
     /tmp/cc0y7SrN.s:95     .text:0000000000000090 .L0 
     /tmp/cc0y7SrN.s:97     .text:0000000000000094 .L0 
     /tmp/cc0y7SrN.s:99     .text:0000000000000098 .L0 
     /tmp/cc0y7SrN.s:100    .text:0000000000000098 .L0 
     /tmp/cc0y7SrN.s:102    .text:000000000000009c .L0 
     /tmp/cc0y7SrN.s:104    .text:00000000000000a0 .L0 
     /tmp/cc0y7SrN.s:105    .text:00000000000000a0 .L0 
     /tmp/cc0y7SrN.s:107    .text:00000000000000a4 .L0 
     /tmp/cc0y7SrN.s:109    .text:00000000000000a8 .L0 
     /tmp/cc0y7SrN.s:111    .text:00000000000000ac .L0 
     /tmp/cc0y7SrN.s:112    .text:00000000000000ac .L0 
     /tmp/cc0y7SrN.s:114    .text:00000000000000b0 .L0 
     /tmp/cc0y7SrN.s:117    .text:00000000000000b4 .L0 
     /tmp/cc0y7SrN.s:118    .text:00000000000000b4 .L0 
     /tmp/cc0y7SrN.s:120    .text:00000000000000b8 .L0 
     /tmp/cc0y7SrN.s:122    .text:00000000000000bc .L0 
GAS LISTING /tmp/cc0y7SrN.s 			page 11


     /tmp/cc0y7SrN.s:124    .text:00000000000000c0 .L0 
     /tmp/cc0y7SrN.s:125    .text:00000000000000c0 .L0 
     /tmp/cc0y7SrN.s:128    .text:00000000000000c8 .L0 
     /tmp/cc0y7SrN.s:130    .text:00000000000000cc .L0 
     /tmp/cc0y7SrN.s:131    .text:00000000000000cc .L0 
     /tmp/cc0y7SrN.s:133    .text:00000000000000d0 .L0 
     /tmp/cc0y7SrN.s:137    .text:00000000000000dc .L0 
     /tmp/cc0y7SrN.s:138    .text:00000000000000dc .L0 
     /tmp/cc0y7SrN.s:140    .text:00000000000000e0 .L0 
     /tmp/cc0y7SrN.s:142    .text:00000000000000e4 .L0 
     /tmp/cc0y7SrN.s:144    .text:00000000000000e8 .L0 
     /tmp/cc0y7SrN.s:145    .text:00000000000000e8 .L0 
     /tmp/cc0y7SrN.s:149    .text:00000000000000f0 .L0 
     /tmp/cc0y7SrN.s:150    .text:00000000000000f0 .L0 
     /tmp/cc0y7SrN.s:152    .text:00000000000000f8 .L0 
     /tmp/cc0y7SrN.s:153    .text:00000000000000f8 .L0 
     /tmp/cc0y7SrN.s:155    .text:00000000000000fc .L0 
     /tmp/cc0y7SrN.s:156    .text:00000000000000fc .L0 
     /tmp/cc0y7SrN.s:158    .text:0000000000000100 .L0 
     /tmp/cc0y7SrN.s:161    .text:0000000000000104 .L0 
     /tmp/cc0y7SrN.s:164    .text:0000000000000108 .L0 
     /tmp/cc0y7SrN.s:167    .text:000000000000010c .L0 
     /tmp/cc0y7SrN.s:170    .text:0000000000000110 .L0 
     /tmp/cc0y7SrN.s:174    .text:0000000000000114 .L0 
     /tmp/cc0y7SrN.s:176    .text:0000000000000114 .L0 
     /tmp/cc0y7SrN.s:177    .text:0000000000000114 .L0 
     /tmp/cc0y7SrN.s:179    .text:0000000000000118 .L0 
     /tmp/cc0y7SrN.s:183    .text:0000000000000120 .L0 
     /tmp/cc0y7SrN.s:184    .text:0000000000000120 .L0 
     /tmp/cc0y7SrN.s:186    .text:0000000000000128 .L0 
     /tmp/cc0y7SrN.s:192    .text:0000000000000128 _ZN7_thread14threadDispatchEv
     /tmp/cc0y7SrN.s:195    .text:0000000000000128 .L0 
     /tmp/cc0y7SrN.s:196    .text:0000000000000128 .L0 
     /tmp/cc0y7SrN.s:197    .text:000000000000012c .L0 
     /tmp/cc0y7SrN.s:201    .text:0000000000000138 .L0 
     /tmp/cc0y7SrN.s:202    .text:0000000000000138 .L0 
     /tmp/cc0y7SrN.s:203    .text:0000000000000138 .L0 
     /tmp/cc0y7SrN.s:205    .text:000000000000013c .L0 
     /tmp/cc0y7SrN.s:207    .text:000000000000013c .L0 
     /tmp/cc0y7SrN.s:208    .text:000000000000013c .L0 
     /tmp/cc0y7SrN.s:211    .text:0000000000000144 .L0 
     /tmp/cc0y7SrN.s:212    .text:0000000000000144 .L0 
     /tmp/cc0y7SrN.s:214    .text:0000000000000148 .L0 
     /tmp/cc0y7SrN.s:216    .text:000000000000014c .L0 
     /tmp/cc0y7SrN.s:217    .text:000000000000014c .L0 
     /tmp/cc0y7SrN.s:221    .text:0000000000000158 .L0 
     /tmp/cc0y7SrN.s:222    .text:0000000000000158 .L0 
     /tmp/cc0y7SrN.s:225    .text:0000000000000160 .L0 
     /tmp/cc0y7SrN.s:227    .text:0000000000000168 .L0 
     /tmp/cc0y7SrN.s:229    .text:000000000000016c .L0 
     /tmp/cc0y7SrN.s:230    .text:000000000000016c .L0 
     /tmp/cc0y7SrN.s:236    .text:000000000000017c .L0 
     /tmp/cc0y7SrN.s:237    .text:0000000000000180 .L0 
     /tmp/cc0y7SrN.s:238    .text:0000000000000180 .L0 
     /tmp/cc0y7SrN.s:240    .text:0000000000000184 .L0 
     /tmp/cc0y7SrN.s:241    .text:0000000000000184 .L0 
     /tmp/cc0y7SrN.s:243    .text:0000000000000188 .L0 
GAS LISTING /tmp/cc0y7SrN.s 			page 12


     /tmp/cc0y7SrN.s:246    .text:000000000000018c .L0 
     /tmp/cc0y7SrN.s:250    .text:0000000000000190 .L0 
     /tmp/cc0y7SrN.s:252    .text:0000000000000190 .L0 
     /tmp/cc0y7SrN.s:253    .text:0000000000000190 .L0 
     /tmp/cc0y7SrN.s:257    .text:000000000000019c .L0 
     /tmp/cc0y7SrN.s:258    .text:000000000000019c .L0 
     /tmp/cc0y7SrN.s:262    .text:00000000000001a8 .L0 
     /tmp/cc0y7SrN.s:263    .text:00000000000001a8 .L0 
     /tmp/cc0y7SrN.s:266    .text:00000000000001b0 .L0 
     /tmp/cc0y7SrN.s:268    .text:00000000000001b8 .L0 
     /tmp/cc0y7SrN.s:270    .text:00000000000001bc .L0 
     /tmp/cc0y7SrN.s:271    .text:00000000000001bc .L0 
     /tmp/cc0y7SrN.s:275    .text:00000000000001c8 .L0 
     /tmp/cc0y7SrN.s:276    .text:00000000000001cc .L0 
     /tmp/cc0y7SrN.s:285    .bss:0000000000000000 _ZN7_thread7runningE
     /tmp/cc0y7SrN.s:282    .bss:0000000000000000 .LANCHOR0
     /tmp/cc0y7SrN.s:296    .text:00000000000001cc .L0 
     /tmp/cc0y7SrN.s:28     .text:0000000000000018 .L0 
     /tmp/cc0y7SrN.s:133    .text:00000000000000d0 .L0 
     /tmp/cc0y7SrN.s:208    .text:000000000000013c .L0 
     /tmp/cc0y7SrN.s:225    .text:0000000000000160 .L0 
     /tmp/cc0y7SrN.s:266    .text:00000000000001b0 .L0 
     /tmp/cc0y7SrN.s:173    .text:0000000000000114 .L4
     /tmp/cc0y7SrN.s:181    .text:0000000000000120 .L6
     /tmp/cc0y7SrN.s:147    .text:00000000000000f0 .L8
     /tmp/cc0y7SrN.s:115    .text:00000000000000b4 .L5
     /tmp/cc0y7SrN.s:135    .text:00000000000000dc .L7
     /tmp/cc0y7SrN.s:249    .text:0000000000000190 .L11
     /tmp/cc0y7SrN.s:234    .text:000000000000017c .L10
     /tmp/cc0y7SrN.s:1246   .debug_abbrev:0000000000000000 .Ldebug_abbrev0
     /tmp/cc0y7SrN.s:2360   .debug_str:00000000000005ff .LASF118
     /tmp/cc0y7SrN.s:2182   .debug_str:000000000000008e .LASF119
     /tmp/cc0y7SrN.s:2216   .debug_str:0000000000000179 .LASF120
     /tmp/cc0y7SrN.s:5      .text:0000000000000000 .Ltext0
     /tmp/cc0y7SrN.s:288    .text:00000000000001cc .Letext0
     /tmp/cc0y7SrN.s:2152   .debug_line:0000000000000000 .Ldebug_line0
     /tmp/cc0y7SrN.s:2290   .debug_str:00000000000003ea .LASF0
     /tmp/cc0y7SrN.s:2306   .debug_str:000000000000044e .LASF1
     /tmp/cc0y7SrN.s:2272   .debug_str:0000000000000365 .LASF2
     /tmp/cc0y7SrN.s:2246   .debug_str:00000000000002a4 .LASF4
     /tmp/cc0y7SrN.s:2340   .debug_str:0000000000000569 .LASF3
     /tmp/cc0y7SrN.s:2178   .debug_str:0000000000000077 .LASF5
     /tmp/cc0y7SrN.s:2312   .debug_str:000000000000047d .LASF6
     /tmp/cc0y7SrN.s:2288   .debug_str:00000000000003d7 .LASF7
     /tmp/cc0y7SrN.s:2374   .debug_str:0000000000000757 .LASF8
     /tmp/cc0y7SrN.s:2232   .debug_str:000000000000022c .LASF9
     /tmp/cc0y7SrN.s:2322   .debug_str:00000000000004d1 .LASF10
     /tmp/cc0y7SrN.s:2364   .debug_str:00000000000006de .LASF11
     /tmp/cc0y7SrN.s:2180   .debug_str:000000000000007e .LASF12
     /tmp/cc0y7SrN.s:2162   .debug_str:0000000000000027 .LASF13
     /tmp/cc0y7SrN.s:2190   .debug_str:00000000000000cd .LASF14
     /tmp/cc0y7SrN.s:2334   .debug_str:000000000000051a .LASF15
     /tmp/cc0y7SrN.s:2194   .debug_str:00000000000000e7 .LASF16
     /tmp/cc0y7SrN.s:2304   .debug_str:0000000000000448 .LASF74
     /tmp/cc0y7SrN.s:2332   .debug_str:000000000000050f .LASF49
     /tmp/cc0y7SrN.s:2394   .debug_str:0000000000000818 .LASF51
     /tmp/cc0y7SrN.s:2164   .debug_str:0000000000000037 .LASF17
GAS LISTING /tmp/cc0y7SrN.s 			page 13


     /tmp/cc0y7SrN.s:2346   .debug_str:0000000000000591 .LASF19
     /tmp/cc0y7SrN.s:2204   .debug_str:000000000000013f .LASF21
     /tmp/cc0y7SrN.s:2202   .debug_str:000000000000012a .LASF23
     /tmp/cc0y7SrN.s:2342   .debug_str:000000000000057b .LASF18
     /tmp/cc0y7SrN.s:2326   .debug_str:00000000000004e9 .LASF20
     /tmp/cc0y7SrN.s:2358   .debug_str:00000000000005f8 .LASF22
     /tmp/cc0y7SrN.s:2352   .debug_str:00000000000005c5 .LASF24
     /tmp/cc0y7SrN.s:2222   .debug_str:00000000000001bb .LASF25
     /tmp/cc0y7SrN.s:2196   .debug_str:00000000000000fd .LASF26
     /tmp/cc0y7SrN.s:2158   .debug_str:0000000000000010 .LASF27
     /tmp/cc0y7SrN.s:2238   .debug_str:000000000000026d .LASF28
     /tmp/cc0y7SrN.s:2208   .debug_str:0000000000000150 .LASF29
     /tmp/cc0y7SrN.s:2384   .debug_str:00000000000007c9 .LASF30
     /tmp/cc0y7SrN.s:2402   .debug_str:0000000000000870 .LASF31
     /tmp/cc0y7SrN.s:2210   .debug_str:0000000000000158 .LASF32
     /tmp/cc0y7SrN.s:2292   .debug_str:00000000000003f7 .LASF33
     /tmp/cc0y7SrN.s:2390   .debug_str:00000000000007ec .LASF34
     /tmp/cc0y7SrN.s:2176   .debug_str:0000000000000070 .LASF35
     /tmp/cc0y7SrN.s:2220   .debug_str:00000000000001a8 .LASF36
     /tmp/cc0y7SrN.s:2226   .debug_str:00000000000001e2 .LASF37
     /tmp/cc0y7SrN.s:2356   .debug_str:00000000000005e6 .LASF38
     /tmp/cc0y7SrN.s:2174   .debug_str:000000000000006a .LASF39
     /tmp/cc0y7SrN.s:2408   .debug_str:00000000000008a5 .LASF40
     /tmp/cc0y7SrN.s:2400   .debug_str:0000000000000865 .LASF41
     /tmp/cc0y7SrN.s:2338   .debug_str:0000000000000551 .LASF42
     /tmp/cc0y7SrN.s:2254   .debug_str:00000000000002c2 .LASF43
     /tmp/cc0y7SrN.s:2348   .debug_str:00000000000005a6 .LASF44
     /tmp/cc0y7SrN.s:2188   .debug_str:00000000000000c3 .LASF45
     /tmp/cc0y7SrN.s:2240   .debug_str:0000000000000281 .LASF46
     /tmp/cc0y7SrN.s:2280   .debug_str:000000000000038c .LASF47
     /tmp/cc0y7SrN.s:2234   .debug_str:000000000000023a .LASF48
     /tmp/cc0y7SrN.s:2344   .debug_str:0000000000000582 .LASF50
     /tmp/cc0y7SrN.s:2184   .debug_str:000000000000009d .LASF52
     /tmp/cc0y7SrN.s:2378   .debug_str:0000000000000771 .LASF62
     /tmp/cc0y7SrN.s:2258   .debug_str:00000000000002d5 .LASF64
     /tmp/cc0y7SrN.s:2242   .debug_str:0000000000000297 .LASF53
     /tmp/cc0y7SrN.s:2170   .debug_str:0000000000000056 .LASF54
     /tmp/cc0y7SrN.s:2252   .debug_str:00000000000002bd .LASF55
     /tmp/cc0y7SrN.s:2250   .debug_str:00000000000002b4 .LASF56
     /tmp/cc0y7SrN.s:2296   .debug_str:000000000000040d .LASF57
     /tmp/cc0y7SrN.s:2256   .debug_str:00000000000002cd .LASF58
     /tmp/cc0y7SrN.s:2302   .debug_str:000000000000043e .LASF59
     /tmp/cc0y7SrN.s:2206   .debug_str:0000000000000148 .LASF76
     /tmp/cc0y7SrN.s:2168   .debug_str:0000000000000049 .LASF60
     /tmp/cc0y7SrN.s:2368   .debug_str:00000000000006f2 .LASF61
     /tmp/cc0y7SrN.s:2266   .debug_str:0000000000000327 .LASF63
     /tmp/cc0y7SrN.s:2236   .debug_str:0000000000000250 .LASF65
     /tmp/cc0y7SrN.s:2160   .debug_str:0000000000000018 .LASF66
     /tmp/cc0y7SrN.s:2372   .debug_str:0000000000000739 .LASF67
     /tmp/cc0y7SrN.s:2212   .debug_str:000000000000016c .LASF68
     /tmp/cc0y7SrN.s:2154   .debug_str:0000000000000000 .LASF69
     /tmp/cc0y7SrN.s:2214   .debug_str:0000000000000171 .LASF70
     /tmp/cc0y7SrN.s:2314   .debug_str:0000000000000490 .LASF71
     /tmp/cc0y7SrN.s:2388   .debug_str:00000000000007e7 .LASF72
     /tmp/cc0y7SrN.s:2330   .debug_str:000000000000050a .LASF73
     /tmp/cc0y7SrN.s:2284   .debug_str:00000000000003a0 .LASF75
     /tmp/cc0y7SrN.s:2324   .debug_str:00000000000004e0 .LASF77
GAS LISTING /tmp/cc0y7SrN.s 			page 14


     /tmp/cc0y7SrN.s:2156   .debug_str:0000000000000009 .LASF78
     /tmp/cc0y7SrN.s:2198   .debug_str:0000000000000111 .LASF79
     /tmp/cc0y7SrN.s:2386   .debug_str:00000000000007dd .LASF80
     /tmp/cc0y7SrN.s:2316   .debug_str:0000000000000495 .LASF81
     /tmp/cc0y7SrN.s:2308   .debug_str:0000000000000461 .LASF82
     /tmp/cc0y7SrN.s:2228   .debug_str:00000000000001e8 .LASF83
     /tmp/cc0y7SrN.s:2376   .debug_str:0000000000000767 .LASF84
     /tmp/cc0y7SrN.s:2380   .debug_str:0000000000000786 .LASF86
     /tmp/cc0y7SrN.s:2248   .debug_str:00000000000002ab .LASF85
     /tmp/cc0y7SrN.s:2230   .debug_str:000000000000020b .LASF87
     /tmp/cc0y7SrN.s:2294   .debug_str:00000000000003fe .LASF88
     /tmp/cc0y7SrN.s:2286   .debug_str:00000000000003b0 .LASF89
     /tmp/cc0y7SrN.s:2318   .debug_str:00000000000004be .LASF90
     /tmp/cc0y7SrN.s:2218   .debug_str:0000000000000197 .LASF121
     /tmp/cc0y7SrN.s:2200   .debug_str:0000000000000116 .LASF122
     /tmp/cc0y7SrN.s:2370   .debug_str:000000000000071d .LASF123
     /tmp/cc0y7SrN.s:2354   .debug_str:00000000000005d8 .LASF91
     /tmp/cc0y7SrN.s:2366   .debug_str:00000000000006ed .LASF124
     /tmp/cc0y7SrN.s:2278   .debug_str:0000000000000387 .LASF92
     /tmp/cc0y7SrN.s:2244   .debug_str:000000000000029f .LASF93
     /tmp/cc0y7SrN.s:2398   .debug_str:000000000000084e .LASF94
     /tmp/cc0y7SrN.s:2268   .debug_str:0000000000000335 .LASF100
     /tmp/cc0y7SrN.s:2282   .debug_str:0000000000000396 .LASF125
     /tmp/cc0y7SrN.s:2362   .debug_str:00000000000006c3 .LASF126
     /tmp/cc0y7SrN.s:2264   .debug_str:000000000000031e .LASF95
     /tmp/cc0y7SrN.s:2404   .debug_str:0000000000000878 .LASF96
     /tmp/cc0y7SrN.s:2276   .debug_str:000000000000037f .LASF97
     /tmp/cc0y7SrN.s:2298   .debug_str:0000000000000413 .LASF98
     /tmp/cc0y7SrN.s:2274   .debug_str:0000000000000373 .LASF99
     /tmp/cc0y7SrN.s:2382   .debug_str:00000000000007a7 .LASF101
     /tmp/cc0y7SrN.s:2186   .debug_str:00000000000000b9 .LASF102
     /tmp/cc0y7SrN.s:2224   .debug_str:00000000000001c3 .LASF103
     /tmp/cc0y7SrN.s:2300   .debug_str:0000000000000433 .LASF104
     /tmp/cc0y7SrN.s:2336   .debug_str:0000000000000530 .LASF105
     /tmp/cc0y7SrN.s:2262   .debug_str:0000000000000315 .LASF106
     /tmp/cc0y7SrN.s:2260   .debug_str:00000000000002f7 .LASF107
     /tmp/cc0y7SrN.s:2320   .debug_str:00000000000004c8 .LASF108
     /tmp/cc0y7SrN.s:2396   .debug_str:0000000000000830 .LASF109
     /tmp/cc0y7SrN.s:2270   .debug_str:0000000000000350 .LASF127
     /tmp/cc0y7SrN.s:193    .text:0000000000000128 .LFB27
     /tmp/cc0y7SrN.s:277    .text:00000000000001cc .LFE27
     /tmp/cc0y7SrN.s:2033   .debug_loc:0000000000000000 .LLST5
     /tmp/cc0y7SrN.s:219    .text:0000000000000158 .LVL14
     /tmp/cc0y7SrN.s:223    .text:0000000000000160 .LVL15
     /tmp/cc0y7SrN.s:233    .text:000000000000017c .LVL16
     /tmp/cc0y7SrN.s:255    .text:000000000000019c .LVL19
     /tmp/cc0y7SrN.s:260    .text:00000000000001a8 .LVL20
     /tmp/cc0y7SrN.s:264    .text:00000000000001b0 .LVL21
     /tmp/cc0y7SrN.s:273    .text:00000000000001c8 .LVL22
     /tmp/cc0y7SrN.s:10     .text:0000000000000000 .LFB26
     /tmp/cc0y7SrN.s:48     .text:0000000000000044 .LFE26
     /tmp/cc0y7SrN.s:25     .text:0000000000000018 .LVL0
     /tmp/cc0y7SrN.s:37     .text:0000000000000034 .LVL2
     /tmp/cc0y7SrN.s:54     .text:0000000000000044 .LFB25
     /tmp/cc0y7SrN.s:187    .text:0000000000000128 .LFE25
     /tmp/cc0y7SrN.s:2350   .debug_str:00000000000005be .LASF110
     /tmp/cc0y7SrN.s:2044   .debug_loc:0000000000000036 .LLST0
GAS LISTING /tmp/cc0y7SrN.s 			page 15


     /tmp/cc0y7SrN.s:2328   .debug_str:00000000000004fc .LASF111
     /tmp/cc0y7SrN.s:2066   .debug_loc:0000000000000095 .LLST1
     /tmp/cc0y7SrN.s:2088   .debug_loc:00000000000000f4 .LLST2
     /tmp/cc0y7SrN.s:2406   .debug_str:0000000000000899 .LASF112
     /tmp/cc0y7SrN.s:2110   .debug_loc:0000000000000153 .LLST3
     /tmp/cc0y7SrN.s:2166   .debug_str:0000000000000040 .LASF113
     /tmp/cc0y7SrN.s:2132   .debug_loc:00000000000001b2 .LLST4
     /tmp/cc0y7SrN.s:83     .text:0000000000000080 .LVL5
     /tmp/cc0y7SrN.s:87     .text:0000000000000088 .LVL6
     /tmp/cc0y7SrN.s:146    .text:00000000000000f0 .LVL7
     /tmp/cc0y7SrN.s:2192   .debug_str:00000000000000d9 .LASF114
     /tmp/cc0y7SrN.s:2392   .debug_str:00000000000007ff .LASF115
     /tmp/cc0y7SrN.s:2310   .debug_str:000000000000046c .LASF116
     /tmp/cc0y7SrN.s:2172   .debug_str:000000000000005e .LASF117
     /tmp/cc0y7SrN.s:209    .text:0000000000000144 .LVL13
     /tmp/cc0y7SrN.s:244    .text:0000000000000188 .LVL17
     /tmp/cc0y7SrN.s:248    .text:0000000000000190 .LVL18
     /tmp/cc0y7SrN.s:57     .text:0000000000000044 .LVL3
     /tmp/cc0y7SrN.s:81     .text:0000000000000078 .LVL4
     /tmp/cc0y7SrN.s:159    .text:0000000000000100 .LVL8
     /tmp/cc0y7SrN.s:172    .text:0000000000000114 .LVL12
     /tmp/cc0y7SrN.s:162    .text:0000000000000104 .LVL9
     /tmp/cc0y7SrN.s:165    .text:0000000000000108 .LVL10
     /tmp/cc0y7SrN.s:168    .text:000000000000010c .LVL11
     /tmp/cc0y7SrN.s:297    .debug_info:0000000000000000 .Ldebug_info0

UNDEFINED SYMBOLS
_ZN5Riscv10popSppSpieEv
_Z11thread_exitv
_ZN15MemoryAllocator14convert2BlocksEm
_ZN15MemoryAllocator9mem_allocEm
_ZN9Scheduler3putEP7_thread
_ZN9Scheduler3getEv
contextSwitch
_ZN15MemoryAllocator8mem_freeEPv
contextSwitchThreadEnded
