GAS LISTING /tmp/ccxkXahu.s 			page 1


   1              		.file	"thread.cpp"
   2              		.option pic
   3              		.option norelax
   4              		.text
   5              	.Ltext0:
   6              		.align	2
   7              		.globl	_ZN7_thread13threadWrapperEv
   9              	_ZN7_thread13threadWrapperEv:
  10              	.LFB25:
  11              		.file 1 "src/thread.cpp"
   1:src/thread.cpp **** //
   2:src/thread.cpp **** // Created by os on 8/12/23.
   3:src/thread.cpp **** //
   4:src/thread.cpp **** 
   5:src/thread.cpp **** #include "../h/thread.hpp"
   6:src/thread.cpp **** #include "../h/MemoryAllocator.hpp"
   7:src/thread.cpp **** #include "../h/scheduler.hpp"
   8:src/thread.cpp **** #include "../h/syscall_c.hpp"
   9:src/thread.cpp **** #include "../h/print.hpp"
  10:src/thread.cpp **** 
  11:src/thread.cpp **** thread_t _thread::running = nullptr;
  12:src/thread.cpp **** 
  13:src/thread.cpp **** 
  14:src/thread.cpp **** int _thread::threadCreate (thread_t* handle, void(*start_routine)(void*), void* arg, void* stack_sp
  15:src/thread.cpp **** //    size_t blockNum = MemoryAllocator::convert2Blocks(sizeof(_thread*));
  16:src/thread.cpp **** //    handle = (_thread**) MemoryAllocator::mem_alloc(blockNum);
  17:src/thread.cpp **** 
  18:src/thread.cpp ****     size_t blockNum = MemoryAllocator::convert2Blocks(sizeof(_thread));
  19:src/thread.cpp ****     *handle = (_thread*) MemoryAllocator::mem_alloc(blockNum);
  20:src/thread.cpp **** 
  21:src/thread.cpp ****     (*handle)->finished = false;
  22:src/thread.cpp ****     (*handle)->timeSlice = DEFAULT_TIME_SLICE;
  23:src/thread.cpp ****     (*handle)->body = start_routine;
  24:src/thread.cpp ****     (*handle)->arg = arg;
  25:src/thread.cpp **** 
  26:src/thread.cpp ****     if (start_routine != nullptr)
  27:src/thread.cpp ****         (*handle)->stack = (uint64*) stack_space;
  28:src/thread.cpp ****     else
  29:src/thread.cpp ****         (*handle)->stack = nullptr;
  30:src/thread.cpp **** 
  31:src/thread.cpp ****     // (*handle)->context.ra = (uint64) &threadWrapper;
  32:src/thread.cpp **** 
  33:src/thread.cpp ****     if ((*handle)->stack != nullptr)
  34:src/thread.cpp ****     {
  35:src/thread.cpp ****         (*handle)->context.sp = (uint64) &((*handle)->stack[DEFAULT_STACK_SIZE]);
  36:src/thread.cpp ****         (*handle)->context.ra = (uint64) &threadWrapper;
  37:src/thread.cpp ****     }
  38:src/thread.cpp ****     else
  39:src/thread.cpp ****     {
  40:src/thread.cpp ****         asm volatile("sd ra, %0" : "=m" ((*handle)->context.ra));
  41:src/thread.cpp ****         (*handle)->context.sp = 0;
  42:src/thread.cpp ****     }
  43:src/thread.cpp **** 
  44:src/thread.cpp ****     if ((*handle)->body != nullptr)
  45:src/thread.cpp ****         Scheduler::put(*handle);
  46:src/thread.cpp **** 
  47:src/thread.cpp ****     return 0;
GAS LISTING /tmp/ccxkXahu.s 			page 2


  48:src/thread.cpp **** }
  49:src/thread.cpp **** 
  50:src/thread.cpp **** void _thread::threadWrapper()
  51:src/thread.cpp **** {
  12              		.loc 1 51 1
  13              		.cfi_startproc
  14 0000 130101FF 		addi	sp,sp,-16
  15              		.cfi_def_cfa_offset 16
  16 0004 23341100 		sd	ra,8(sp)
  17 0008 23308100 		sd	s0,0(sp)
  18              		.cfi_offset 1, -8
  19              		.cfi_offset 8, -16
  20 000c 13040101 		addi	s0,sp,16
  21              		.cfi_def_cfa 8, 0
  52:src/thread.cpp ****     Riscv::popSppSpie();
  22              		.loc 1 52 5
  23              		.loc 1 52 22 is_stmt 0
  24 0010 97000000 		call	_ZN5Riscv10popSppSpieEv@plt
  24      E7800000 
  25              	.LVL0:
  53:src/thread.cpp **** 
  54:src/thread.cpp ****     //_thread::running->body(handle->arg);
  55:src/thread.cpp ****     _thread::running->body(_thread::running->arg);
  26              		.loc 1 55 5 is_stmt 1
  27              		.loc 1 55 23 is_stmt 0
  28 0018 97070000 		ld	a5,.LANCHOR0
  28      83B70700 
  29 0020 03B70700 		ld	a4,0(a5)
  30              		.loc 1 55 27
  31 0024 03B58702 		ld	a0,40(a5)
  32 0028 E7000700 		jalr	a4
  33              	.LVL1:
  56:src/thread.cpp **** 
  57:src/thread.cpp ****     thread_exit();
  34              		.loc 1 57 5 is_stmt 1
  35              		.loc 1 57 16 is_stmt 0
  36 002c 97000000 		call	_Z11thread_exitv@plt
  36      E7800000 
  37              	.LVL2:
  58:src/thread.cpp **** }
  38              		.loc 1 58 1
  39 0034 83308100 		ld	ra,8(sp)
  40              		.cfi_restore 1
  41 0038 03340100 		ld	s0,0(sp)
  42              		.cfi_restore 8
  43              		.cfi_def_cfa 2, 16
  44 003c 13010101 		addi	sp,sp,16
  45              		.cfi_def_cfa_offset 0
  46 0040 67800000 		jr	ra
  47              		.cfi_endproc
  48              	.LFE25:
  50              		.align	2
  51              		.globl	_ZN7_thread12threadCreateEPPS_PFvPvES2_S2_
  53              	_ZN7_thread12threadCreateEPPS_PFvPvES2_S2_:
  54              	.LFB24:
  14:src/thread.cpp **** //    size_t blockNum = MemoryAllocator::convert2Blocks(sizeof(_thread*));
  55              		.loc 1 14 105 is_stmt 1
GAS LISTING /tmp/ccxkXahu.s 			page 3


  56              		.cfi_startproc
  57              	.LVL3:
  58 0044 130101FD 		addi	sp,sp,-48
  59              		.cfi_def_cfa_offset 48
  60 0048 23341102 		sd	ra,40(sp)
  61 004c 23308102 		sd	s0,32(sp)
  62 0050 233C9100 		sd	s1,24(sp)
  63 0054 23382101 		sd	s2,16(sp)
  64 0058 23343101 		sd	s3,8(sp)
  65 005c 23304101 		sd	s4,0(sp)
  66              		.cfi_offset 1, -8
  67              		.cfi_offset 8, -16
  68              		.cfi_offset 9, -24
  69              		.cfi_offset 18, -32
  70              		.cfi_offset 19, -40
  71              		.cfi_offset 20, -48
  72 0060 13040103 		addi	s0,sp,48
  73              		.cfi_def_cfa 8, 0
  74 0064 93040500 		mv	s1,a0
  75 0068 13890500 		mv	s2,a1
  76 006c 93090600 		mv	s3,a2
  77 0070 138A0600 		mv	s4,a3
  18:src/thread.cpp ****     *handle = (_thread*) MemoryAllocator::mem_alloc(blockNum);
  78              		.loc 1 18 5
  18:src/thread.cpp ****     *handle = (_thread*) MemoryAllocator::mem_alloc(blockNum);
  79              		.loc 1 18 54 is_stmt 0
  80 0074 13058003 		li	a0,56
  81              	.LVL4:
  82 0078 97000000 		call	_ZN15MemoryAllocator14convert2BlocksEm@plt
  82      E7800000 
  83              	.LVL5:
  19:src/thread.cpp **** 
  84              		.loc 1 19 5 is_stmt 1
  19:src/thread.cpp **** 
  85              		.loc 1 19 52 is_stmt 0
  86 0080 97000000 		call	_ZN15MemoryAllocator9mem_allocEm@plt
  86      E7800000 
  87              	.LVL6:
  19:src/thread.cpp **** 
  88              		.loc 1 19 13
  89 0088 23B0A400 		sd	a0,0(s1)
  21:src/thread.cpp ****     (*handle)->timeSlice = DEFAULT_TIME_SLICE;
  90              		.loc 1 21 5 is_stmt 1
  21:src/thread.cpp ****     (*handle)->timeSlice = DEFAULT_TIME_SLICE;
  91              		.loc 1 21 25 is_stmt 0
  92 008c 23040500 		sb	zero,8(a0)
  22:src/thread.cpp ****     (*handle)->body = start_routine;
  93              		.loc 1 22 5 is_stmt 1
  22:src/thread.cpp ****     (*handle)->body = start_routine;
  94              		.loc 1 22 6 is_stmt 0
  95 0090 83B70400 		ld	a5,0(s1)
  22:src/thread.cpp ****     (*handle)->body = start_routine;
  96              		.loc 1 22 26
  97 0094 13072000 		li	a4,2
  98 0098 23B8E702 		sd	a4,48(a5)
  23:src/thread.cpp ****     (*handle)->arg = arg;
  99              		.loc 1 23 5 is_stmt 1
GAS LISTING /tmp/ccxkXahu.s 			page 4


  23:src/thread.cpp ****     (*handle)->arg = arg;
 100              		.loc 1 23 6 is_stmt 0
 101 009c 83B70400 		ld	a5,0(s1)
  23:src/thread.cpp ****     (*handle)->arg = arg;
 102              		.loc 1 23 21
 103 00a0 23B02701 		sd	s2,0(a5)
  24:src/thread.cpp **** 
 104              		.loc 1 24 5 is_stmt 1
  24:src/thread.cpp **** 
 105              		.loc 1 24 6 is_stmt 0
 106 00a4 83B70400 		ld	a5,0(s1)
  24:src/thread.cpp **** 
 107              		.loc 1 24 20
 108 00a8 23B43703 		sd	s3,40(a5)
  26:src/thread.cpp ****         (*handle)->stack = (uint64*) stack_space;
 109              		.loc 1 26 5 is_stmt 1
 110 00ac 63060906 		beqz	s2,.L4
  27:src/thread.cpp ****     else
 111              		.loc 1 27 9
  27:src/thread.cpp ****     else
 112              		.loc 1 27 10 is_stmt 0
 113 00b0 83B70400 		ld	a5,0(s1)
  27:src/thread.cpp ****     else
 114              		.loc 1 27 26
 115 00b4 23B84701 		sd	s4,16(a5)
 116              	.L5:
  33:src/thread.cpp ****     {
 117              		.loc 1 33 5 is_stmt 1
  33:src/thread.cpp ****     {
 118              		.loc 1 33 10 is_stmt 0
 119 00b8 03B70400 		ld	a4,0(s1)
  33:src/thread.cpp ****     {
 120              		.loc 1 33 20
 121 00bc 83370701 		ld	a5,16(a4)
  33:src/thread.cpp ****     {
 122              		.loc 1 33 5
 123 00c0 63820706 		beqz	a5,.L6
  35:src/thread.cpp ****         (*handle)->context.ra = (uint64) &threadWrapper;
 124              		.loc 1 35 9 is_stmt 1
  35:src/thread.cpp ****         (*handle)->context.ra = (uint64) &threadWrapper;
 125              		.loc 1 35 42 is_stmt 0
 126 00c4 B7860000 		li	a3,32768
 127 00c8 B387D700 		add	a5,a5,a3
  35:src/thread.cpp ****         (*handle)->context.ra = (uint64) &threadWrapper;
 128              		.loc 1 35 31
 129 00cc 2330F702 		sd	a5,32(a4)
  36:src/thread.cpp ****     }
 130              		.loc 1 36 9 is_stmt 1
  36:src/thread.cpp ****     }
 131              		.loc 1 36 10 is_stmt 0
 132 00d0 83B70400 		ld	a5,0(s1)
  36:src/thread.cpp ****     }
 133              		.loc 1 36 31
 134 00d4 17070000 		lla	a4,_ZN7_thread13threadWrapperEv
 134      13070700 
 135 00dc 23BCE700 		sd	a4,24(a5)
 136              	.L7:
GAS LISTING /tmp/ccxkXahu.s 			page 5


  44:src/thread.cpp ****         Scheduler::put(*handle);
 137              		.loc 1 44 5 is_stmt 1
  44:src/thread.cpp ****         Scheduler::put(*handle);
 138              		.loc 1 44 10 is_stmt 0
 139 00e0 03B50400 		ld	a0,0(s1)
  44:src/thread.cpp ****         Scheduler::put(*handle);
 140              		.loc 1 44 20
 141 00e4 83370500 		ld	a5,0(a0)
  44:src/thread.cpp ****         Scheduler::put(*handle);
 142              		.loc 1 44 5
 143 00e8 63860700 		beqz	a5,.L8
  45:src/thread.cpp **** 
 144              		.loc 1 45 9 is_stmt 1
  45:src/thread.cpp **** 
 145              		.loc 1 45 23 is_stmt 0
 146 00ec 97000000 		call	_ZN9Scheduler3putEP7_thread@plt
 146      E7800000 
 147              	.LVL7:
 148              	.L8:
  47:src/thread.cpp **** }
 149              		.loc 1 47 5 is_stmt 1
  48:src/thread.cpp **** 
 150              		.loc 1 48 1 is_stmt 0
 151 00f4 13050000 		li	a0,0
 152 00f8 83308102 		ld	ra,40(sp)
 153              		.cfi_remember_state
 154              		.cfi_restore 1
 155 00fc 03340102 		ld	s0,32(sp)
 156              		.cfi_restore 8
 157              		.cfi_def_cfa 2, 48
 158 0100 83348101 		ld	s1,24(sp)
 159              		.cfi_restore 9
 160              	.LVL8:
 161 0104 03390101 		ld	s2,16(sp)
 162              		.cfi_restore 18
 163              	.LVL9:
 164 0108 83398100 		ld	s3,8(sp)
 165              		.cfi_restore 19
 166              	.LVL10:
 167 010c 033A0100 		ld	s4,0(sp)
 168              		.cfi_restore 20
 169              	.LVL11:
 170 0110 13010103 		addi	sp,sp,48
 171              		.cfi_def_cfa_offset 0
 172 0114 67800000 		jr	ra
 173              	.LVL12:
 174              	.L4:
 175              		.cfi_restore_state
  29:src/thread.cpp **** 
 176              		.loc 1 29 9 is_stmt 1
  29:src/thread.cpp **** 
 177              		.loc 1 29 10 is_stmt 0
 178 0118 83B70400 		ld	a5,0(s1)
  29:src/thread.cpp **** 
 179              		.loc 1 29 26
 180 011c 23B80700 		sd	zero,16(a5)
 181 0120 6FF09FF9 		j	.L5
GAS LISTING /tmp/ccxkXahu.s 			page 6


 182              	.L6:
  40:src/thread.cpp ****         (*handle)->context.sp = 0;
 183              		.loc 1 40 9 is_stmt 1
  40:src/thread.cpp ****         (*handle)->context.sp = 0;
 184              		.loc 1 40 65 is_stmt 0
 185              	#APP
 186              	# 40 "src/thread.cpp" 1
  41:src/thread.cpp ****     }
 187              		sd ra, 24(a4)
 188              	# 0 "" 2
 189              		.loc 1 41 9 is_stmt 1
  41:src/thread.cpp ****     }
 190              		.loc 1 41 10 is_stmt 0
 191              	#NO_APP
 192 0128 83B70400 		ld	a5,0(s1)
  41:src/thread.cpp ****     }
 193              		.loc 1 41 31
 194 012c 23B00702 		sd	zero,32(a5)
 195 0130 6FF01FFB 		j	.L7
 196              		.cfi_endproc
 197              	.LFE24:
 199              		.section	.rodata.str1.8,"aMS",@progbits,1
 200              		.align	3
 201              	.LC0:
 202 0000 6F6C643A 		.string	"old: "
 202      2000
 203 0006 0000     		.align	3
 204              	.LC1:
 205 0008 0A6E6577 		.string	"\nnew running: "
 205      2072756E 
 205      6E696E67 
 205      3A2000
 206 0017 00       		.align	3
 207              	.LC2:
 208 0018 0A00     		.string	"\n"
 209              		.text
 210              		.align	2
 211              		.globl	_ZN7_thread14threadDispatchEv
 213              	_ZN7_thread14threadDispatchEv:
 214              	.LFB26:
  59:src/thread.cpp **** 
  60:src/thread.cpp **** void _thread::threadDispatch ()
  61:src/thread.cpp **** {
 215              		.loc 1 61 1 is_stmt 1
 216              		.cfi_startproc
 217 0134 130101FD 		addi	sp,sp,-48
 218              		.cfi_def_cfa_offset 48
 219 0138 23341102 		sd	ra,40(sp)
 220 013c 23308102 		sd	s0,32(sp)
 221 0140 233C9100 		sd	s1,24(sp)
 222              		.cfi_offset 1, -8
 223              		.cfi_offset 8, -16
 224              		.cfi_offset 9, -24
 225 0144 13040103 		addi	s0,sp,48
 226              		.cfi_def_cfa 8, 0
  62:src/thread.cpp ****     _thread *old = _thread::running;
 227              		.loc 1 62 5
GAS LISTING /tmp/ccxkXahu.s 			page 7


 228              		.loc 1 62 14 is_stmt 0
 229 0148 17050000 		ld	a0,.LANCHOR0
 229      03350500 
 230 0150 233CA4FC 		sd	a0,-40(s0)
  63:src/thread.cpp **** 
  64:src/thread.cpp ****     if (!old->finished)
 231              		.loc 1 64 5 is_stmt 1
 232              		.loc 1 64 15 is_stmt 0
 233 0154 83478500 		lbu	a5,8(a0)
 234              		.loc 1 64 5
 235 0158 639C0708 		bnez	a5,.L11
  65:src/thread.cpp ****     {
  66:src/thread.cpp ****         Scheduler::put(old);
 236              		.loc 1 66 9 is_stmt 1
 237              		.loc 1 66 23 is_stmt 0
 238 015c 97000000 		call	_ZN9Scheduler3putEP7_thread@plt
 238      E7800000 
 239              	.LVL13:
  67:src/thread.cpp ****         _thread::running = Scheduler::get();
 240              		.loc 1 67 9 is_stmt 1
 241              		.loc 1 67 42 is_stmt 0
 242 0164 97000000 		call	_ZN9Scheduler3getEv@plt
 242      E7800000 
 243              	.LVL14:
 244              		.loc 1 67 26
 245 016c 97040000 		lla	s1,.LANCHOR0
 245      93840400 
 246 0174 23B0A400 		sd	a0,0(s1)
  68:src/thread.cpp **** 
  69:src/thread.cpp ****         printString("old: ");
 247              		.loc 1 69 9 is_stmt 1
 248              		.loc 1 69 20 is_stmt 0
 249 0178 17050000 		lla	a0,.LC0
 249      13050500 
 250 0180 97000000 		call	_Z11printStringPKc@plt
 250      E7800000 
 251              	.LVL15:
  70:src/thread.cpp ****         printInteger((uint64) old);
 252              		.loc 1 70 9 is_stmt 1
 253              		.loc 1 70 21 is_stmt 0
 254 0188 033584FD 		ld	a0,-40(s0)
 255 018c 97000000 		call	_Z12printIntegerm@plt
 255      E7800000 
 256              	.LVL16:
  71:src/thread.cpp ****         printString("\nnew running: ");
 257              		.loc 1 71 9 is_stmt 1
 258              		.loc 1 71 20 is_stmt 0
 259 0194 17050000 		lla	a0,.LC1
 259      13050500 
 260 019c 97000000 		call	_Z11printStringPKc@plt
 260      E7800000 
 261              	.LVL17:
  72:src/thread.cpp ****         printInteger((uint64) _thread::running);
 262              		.loc 1 72 9 is_stmt 1
 263              		.loc 1 72 21 is_stmt 0
 264 01a4 03B50400 		ld	a0,0(s1)
 265 01a8 97000000 		call	_Z12printIntegerm@plt
GAS LISTING /tmp/ccxkXahu.s 			page 8


 265      E7800000 
 266              	.LVL18:
  73:src/thread.cpp ****         printString("\n");
 267              		.loc 1 73 9 is_stmt 1
 268              		.loc 1 73 20 is_stmt 0
 269 01b0 17050000 		lla	a0,.LC2
 269      13050500 
 270 01b8 97000000 		call	_Z11printStringPKc@plt
 270      E7800000 
 271              	.LVL19:
  74:src/thread.cpp **** 
  75:src/thread.cpp ****         if(old != _thread::running)
 272              		.loc 1 75 9 is_stmt 1
 273              		.loc 1 75 16 is_stmt 0
 274 01c0 033584FD 		ld	a0,-40(s0)
 275 01c4 83B50400 		ld	a1,0(s1)
 276              		.loc 1 75 9
 277 01c8 630AB500 		beq	a0,a1,.L10
  76:src/thread.cpp ****             contextSwitch(&old->context, &_thread::running->context);
 278              		.loc 1 76 13 is_stmt 1
 279              		.loc 1 76 26 is_stmt 0
 280 01cc 93858501 		addi	a1,a1,24
 281 01d0 13058501 		addi	a0,a0,24
 282 01d4 97000000 		call	contextSwitch@plt
 282      E7800000 
 283              	.LVL20:
 284              	.L10:
  77:src/thread.cpp ****     }
  78:src/thread.cpp ****     else
  79:src/thread.cpp ****     {
  80:src/thread.cpp ****         // remove threads that are waiting for this one to finish
  81:src/thread.cpp **** 
  82:src/thread.cpp ****         // thread finished -> dealloc the stack and thread
  83:src/thread.cpp ****         MemoryAllocator::mem_free(old->stack);
  84:src/thread.cpp ****         MemoryAllocator::mem_free(old);
  85:src/thread.cpp ****         MemoryAllocator::mem_free(&old);
  86:src/thread.cpp **** 
  87:src/thread.cpp ****         _thread::running = Scheduler::get();
  88:src/thread.cpp **** 
  89:src/thread.cpp ****         if (_thread::running)
  90:src/thread.cpp ****             contextSwitchThreadEnded(&_thread::running->context);
  91:src/thread.cpp ****     }
  92:src/thread.cpp **** }
 285              		.loc 1 92 1
 286 01dc 83308102 		ld	ra,40(sp)
 287              		.cfi_remember_state
 288              		.cfi_restore 1
 289 01e0 03340102 		ld	s0,32(sp)
 290              		.cfi_restore 8
 291              		.cfi_def_cfa 2, 48
 292 01e4 83348101 		ld	s1,24(sp)
 293              		.cfi_restore 9
 294 01e8 13010103 		addi	sp,sp,48
 295              		.cfi_def_cfa_offset 0
 296 01ec 67800000 		jr	ra
 297              	.L11:
 298              		.cfi_restore_state
GAS LISTING /tmp/ccxkXahu.s 			page 9


  83:src/thread.cpp ****         MemoryAllocator::mem_free(old);
 299              		.loc 1 83 9 is_stmt 1
  83:src/thread.cpp ****         MemoryAllocator::mem_free(old);
 300              		.loc 1 83 34 is_stmt 0
 301 01f0 03350501 		ld	a0,16(a0)
 302 01f4 97000000 		call	_ZN15MemoryAllocator8mem_freeEPv@plt
 302      E7800000 
 303              	.LVL21:
  84:src/thread.cpp ****         MemoryAllocator::mem_free(&old);
 304              		.loc 1 84 9 is_stmt 1
  84:src/thread.cpp ****         MemoryAllocator::mem_free(&old);
 305              		.loc 1 84 34 is_stmt 0
 306 01fc 033584FD 		ld	a0,-40(s0)
 307 0200 97000000 		call	_ZN15MemoryAllocator8mem_freeEPv@plt
 307      E7800000 
 308              	.LVL22:
  85:src/thread.cpp **** 
 309              		.loc 1 85 9 is_stmt 1
  85:src/thread.cpp **** 
 310              		.loc 1 85 34 is_stmt 0
 311 0208 130584FD 		addi	a0,s0,-40
 312 020c 97000000 		call	_ZN15MemoryAllocator8mem_freeEPv@plt
 312      E7800000 
 313              	.LVL23:
  87:src/thread.cpp **** 
 314              		.loc 1 87 9 is_stmt 1
  87:src/thread.cpp **** 
 315              		.loc 1 87 42 is_stmt 0
 316 0214 97000000 		call	_ZN9Scheduler3getEv@plt
 316      E7800000 
 317              	.LVL24:
  87:src/thread.cpp **** 
 318              		.loc 1 87 26
 319 021c 97070000 		sd	a0,.LANCHOR0,a5
 319      23B0A700 
  89:src/thread.cpp ****             contextSwitchThreadEnded(&_thread::running->context);
 320              		.loc 1 89 9 is_stmt 1
 321 0224 E30C05FA 		beqz	a0,.L10
  90:src/thread.cpp ****     }
 322              		.loc 1 90 13
  90:src/thread.cpp ****     }
 323              		.loc 1 90 37 is_stmt 0
 324 0228 13058501 		addi	a0,a0,24
 325 022c 97000000 		call	contextSwitchThreadEnded@plt
 325      E7800000 
 326              	.LVL25:
 327              		.loc 1 92 1
 328 0234 6FF09FFA 		j	.L10
 329              		.cfi_endproc
 330              	.LFE26:
 332              		.globl	_ZN7_thread7runningE
 333              		.bss
 334              		.align	3
 335              		.set	.LANCHOR0,. + 0
 338              	_ZN7_thread7runningE:
 339 0000 00000000 		.zero	8
 339      00000000 
GAS LISTING /tmp/ccxkXahu.s 			page 10


 340              		.text
 341              	.Letext0:
 342              		.file 2 "src/../h/../lib/hw.h"
 343              		.file 3 "src/../h/riscv.hpp"
 344              		.file 4 "src/../h/thread.hpp"
 345              		.file 5 "src/../h/MemoryAllocator.hpp"
 346              		.file 6 "src/../h/scheduler.hpp"
 347              		.file 7 "src/../h/print.hpp"
 348              		.file 8 "src/../h/syscall_c.hpp"
GAS LISTING /tmp/ccxkXahu.s 			page 11


DEFINED SYMBOLS
                            *ABS*:0000000000000000 thread.cpp
     /tmp/ccxkXahu.s:9      .text:0000000000000000 _ZN7_thread13threadWrapperEv
     /tmp/ccxkXahu.s:13     .text:0000000000000000 .L0 
     /tmp/ccxkXahu.s:14     .text:0000000000000000 .L0 
     /tmp/ccxkXahu.s:15     .text:0000000000000004 .L0 
     /tmp/ccxkXahu.s:18     .text:000000000000000c .L0 
     /tmp/ccxkXahu.s:19     .text:000000000000000c .L0 
     /tmp/ccxkXahu.s:21     .text:0000000000000010 .L0 
     /tmp/ccxkXahu.s:23     .text:0000000000000010 .L0 
     /tmp/ccxkXahu.s:24     .text:0000000000000010 .L0 
     /tmp/ccxkXahu.s:27     .text:0000000000000018 .L0 
     /tmp/ccxkXahu.s:28     .text:0000000000000018 .L0 
     /tmp/ccxkXahu.s:31     .text:0000000000000024 .L0 
     /tmp/ccxkXahu.s:35     .text:000000000000002c .L0 
     /tmp/ccxkXahu.s:36     .text:000000000000002c .L0 
     /tmp/ccxkXahu.s:39     .text:0000000000000034 .L0 
     /tmp/ccxkXahu.s:40     .text:0000000000000038 .L0 
     /tmp/ccxkXahu.s:42     .text:000000000000003c .L0 
     /tmp/ccxkXahu.s:43     .text:000000000000003c .L0 
     /tmp/ccxkXahu.s:45     .text:0000000000000040 .L0 
     /tmp/ccxkXahu.s:47     .text:0000000000000044 .L0 
     /tmp/ccxkXahu.s:53     .text:0000000000000044 _ZN7_thread12threadCreateEPPS_PFvPvES2_S2_
     /tmp/ccxkXahu.s:56     .text:0000000000000044 .L0 
     /tmp/ccxkXahu.s:58     .text:0000000000000044 .L0 
     /tmp/ccxkXahu.s:59     .text:0000000000000048 .L0 
     /tmp/ccxkXahu.s:66     .text:0000000000000060 .L0 
     /tmp/ccxkXahu.s:67     .text:0000000000000060 .L0 
     /tmp/ccxkXahu.s:68     .text:0000000000000060 .L0 
     /tmp/ccxkXahu.s:69     .text:0000000000000060 .L0 
     /tmp/ccxkXahu.s:70     .text:0000000000000060 .L0 
     /tmp/ccxkXahu.s:71     .text:0000000000000060 .L0 
     /tmp/ccxkXahu.s:73     .text:0000000000000064 .L0 
     /tmp/ccxkXahu.s:79     .text:0000000000000074 .L0 
     /tmp/ccxkXahu.s:80     .text:0000000000000074 .L0 
     /tmp/ccxkXahu.s:85     .text:0000000000000080 .L0 
     /tmp/ccxkXahu.s:86     .text:0000000000000080 .L0 
     /tmp/ccxkXahu.s:89     .text:0000000000000088 .L0 
     /tmp/ccxkXahu.s:91     .text:000000000000008c .L0 
     /tmp/ccxkXahu.s:92     .text:000000000000008c .L0 
     /tmp/ccxkXahu.s:94     .text:0000000000000090 .L0 
     /tmp/ccxkXahu.s:95     .text:0000000000000090 .L0 
     /tmp/ccxkXahu.s:97     .text:0000000000000094 .L0 
     /tmp/ccxkXahu.s:100    .text:000000000000009c .L0 
     /tmp/ccxkXahu.s:101    .text:000000000000009c .L0 
     /tmp/ccxkXahu.s:103    .text:00000000000000a0 .L0 
     /tmp/ccxkXahu.s:105    .text:00000000000000a4 .L0 
     /tmp/ccxkXahu.s:106    .text:00000000000000a4 .L0 
     /tmp/ccxkXahu.s:108    .text:00000000000000a8 .L0 
     /tmp/ccxkXahu.s:110    .text:00000000000000ac .L0 
     /tmp/ccxkXahu.s:112    .text:00000000000000b0 .L0 
     /tmp/ccxkXahu.s:113    .text:00000000000000b0 .L0 
     /tmp/ccxkXahu.s:115    .text:00000000000000b4 .L0 
     /tmp/ccxkXahu.s:118    .text:00000000000000b8 .L0 
     /tmp/ccxkXahu.s:119    .text:00000000000000b8 .L0 
     /tmp/ccxkXahu.s:121    .text:00000000000000bc .L0 
     /tmp/ccxkXahu.s:123    .text:00000000000000c0 .L0 
GAS LISTING /tmp/ccxkXahu.s 			page 12


     /tmp/ccxkXahu.s:125    .text:00000000000000c4 .L0 
     /tmp/ccxkXahu.s:126    .text:00000000000000c4 .L0 
     /tmp/ccxkXahu.s:129    .text:00000000000000cc .L0 
     /tmp/ccxkXahu.s:131    .text:00000000000000d0 .L0 
     /tmp/ccxkXahu.s:132    .text:00000000000000d0 .L0 
     /tmp/ccxkXahu.s:134    .text:00000000000000d4 .L0 
     /tmp/ccxkXahu.s:138    .text:00000000000000e0 .L0 
     /tmp/ccxkXahu.s:139    .text:00000000000000e0 .L0 
     /tmp/ccxkXahu.s:141    .text:00000000000000e4 .L0 
     /tmp/ccxkXahu.s:143    .text:00000000000000e8 .L0 
     /tmp/ccxkXahu.s:145    .text:00000000000000ec .L0 
     /tmp/ccxkXahu.s:146    .text:00000000000000ec .L0 
     /tmp/ccxkXahu.s:150    .text:00000000000000f4 .L0 
     /tmp/ccxkXahu.s:151    .text:00000000000000f4 .L0 
     /tmp/ccxkXahu.s:153    .text:00000000000000fc .L0 
     /tmp/ccxkXahu.s:154    .text:00000000000000fc .L0 
     /tmp/ccxkXahu.s:156    .text:0000000000000100 .L0 
     /tmp/ccxkXahu.s:157    .text:0000000000000100 .L0 
     /tmp/ccxkXahu.s:159    .text:0000000000000104 .L0 
     /tmp/ccxkXahu.s:162    .text:0000000000000108 .L0 
     /tmp/ccxkXahu.s:165    .text:000000000000010c .L0 
     /tmp/ccxkXahu.s:168    .text:0000000000000110 .L0 
     /tmp/ccxkXahu.s:171    .text:0000000000000114 .L0 
     /tmp/ccxkXahu.s:175    .text:0000000000000118 .L0 
     /tmp/ccxkXahu.s:177    .text:0000000000000118 .L0 
     /tmp/ccxkXahu.s:178    .text:0000000000000118 .L0 
     /tmp/ccxkXahu.s:180    .text:000000000000011c .L0 
     /tmp/ccxkXahu.s:184    .text:0000000000000124 .L0 
      src/thread.cpp:40     .text:0000000000000124 .L0 
     /tmp/ccxkXahu.s:190    .text:0000000000000128 .L0 
     /tmp/ccxkXahu.s:192    .text:0000000000000128 .L0 
     /tmp/ccxkXahu.s:194    .text:000000000000012c .L0 
     /tmp/ccxkXahu.s:196    .text:0000000000000134 .L0 
     /tmp/ccxkXahu.s:213    .text:0000000000000134 _ZN7_thread14threadDispatchEv
     /tmp/ccxkXahu.s:216    .text:0000000000000134 .L0 
     /tmp/ccxkXahu.s:217    .text:0000000000000134 .L0 
     /tmp/ccxkXahu.s:218    .text:0000000000000138 .L0 
     /tmp/ccxkXahu.s:222    .text:0000000000000144 .L0 
     /tmp/ccxkXahu.s:223    .text:0000000000000144 .L0 
     /tmp/ccxkXahu.s:224    .text:0000000000000144 .L0 
     /tmp/ccxkXahu.s:226    .text:0000000000000148 .L0 
     /tmp/ccxkXahu.s:228    .text:0000000000000148 .L0 
     /tmp/ccxkXahu.s:229    .text:0000000000000148 .L0 
     /tmp/ccxkXahu.s:232    .text:0000000000000154 .L0 
     /tmp/ccxkXahu.s:233    .text:0000000000000154 .L0 
     /tmp/ccxkXahu.s:235    .text:0000000000000158 .L0 
     /tmp/ccxkXahu.s:237    .text:000000000000015c .L0 
     /tmp/ccxkXahu.s:238    .text:000000000000015c .L0 
     /tmp/ccxkXahu.s:241    .text:0000000000000164 .L0 
     /tmp/ccxkXahu.s:242    .text:0000000000000164 .L0 
     /tmp/ccxkXahu.s:245    .text:000000000000016c .L0 
     /tmp/ccxkXahu.s:248    .text:0000000000000178 .L0 
     /tmp/ccxkXahu.s:249    .text:0000000000000178 .L0 
     /tmp/ccxkXahu.s:253    .text:0000000000000188 .L0 
     /tmp/ccxkXahu.s:254    .text:0000000000000188 .L0 
     /tmp/ccxkXahu.s:258    .text:0000000000000194 .L0 
     /tmp/ccxkXahu.s:259    .text:0000000000000194 .L0 
GAS LISTING /tmp/ccxkXahu.s 			page 13


     /tmp/ccxkXahu.s:263    .text:00000000000001a4 .L0 
     /tmp/ccxkXahu.s:264    .text:00000000000001a4 .L0 
     /tmp/ccxkXahu.s:268    .text:00000000000001b0 .L0 
     /tmp/ccxkXahu.s:269    .text:00000000000001b0 .L0 
     /tmp/ccxkXahu.s:273    .text:00000000000001c0 .L0 
     /tmp/ccxkXahu.s:274    .text:00000000000001c0 .L0 
     /tmp/ccxkXahu.s:277    .text:00000000000001c8 .L0 
     /tmp/ccxkXahu.s:279    .text:00000000000001cc .L0 
     /tmp/ccxkXahu.s:280    .text:00000000000001cc .L0 
     /tmp/ccxkXahu.s:286    .text:00000000000001dc .L0 
     /tmp/ccxkXahu.s:287    .text:00000000000001e0 .L0 
     /tmp/ccxkXahu.s:288    .text:00000000000001e0 .L0 
     /tmp/ccxkXahu.s:290    .text:00000000000001e4 .L0 
     /tmp/ccxkXahu.s:291    .text:00000000000001e4 .L0 
     /tmp/ccxkXahu.s:293    .text:00000000000001e8 .L0 
     /tmp/ccxkXahu.s:295    .text:00000000000001ec .L0 
     /tmp/ccxkXahu.s:298    .text:00000000000001f0 .L0 
     /tmp/ccxkXahu.s:300    .text:00000000000001f0 .L0 
     /tmp/ccxkXahu.s:301    .text:00000000000001f0 .L0 
     /tmp/ccxkXahu.s:305    .text:00000000000001fc .L0 
     /tmp/ccxkXahu.s:306    .text:00000000000001fc .L0 
     /tmp/ccxkXahu.s:310    .text:0000000000000208 .L0 
     /tmp/ccxkXahu.s:311    .text:0000000000000208 .L0 
     /tmp/ccxkXahu.s:315    .text:0000000000000214 .L0 
     /tmp/ccxkXahu.s:316    .text:0000000000000214 .L0 
     /tmp/ccxkXahu.s:319    .text:000000000000021c .L0 
     /tmp/ccxkXahu.s:321    .text:0000000000000224 .L0 
     /tmp/ccxkXahu.s:323    .text:0000000000000228 .L0 
     /tmp/ccxkXahu.s:324    .text:0000000000000228 .L0 
     /tmp/ccxkXahu.s:328    .text:0000000000000234 .L0 
     /tmp/ccxkXahu.s:329    .text:0000000000000238 .L0 
     /tmp/ccxkXahu.s:338    .bss:0000000000000000 _ZN7_thread7runningE
     /tmp/ccxkXahu.s:335    .bss:0000000000000000 .LANCHOR0
     /tmp/ccxkXahu.s:349    .text:0000000000000238 .L0 
     /tmp/ccxkXahu.s:28     .text:0000000000000018 .L0 
     /tmp/ccxkXahu.s:134    .text:00000000000000d4 .L0 
     /tmp/ccxkXahu.s:229    .text:0000000000000148 .L0 
     /tmp/ccxkXahu.s:245    .text:000000000000016c .L0 
     /tmp/ccxkXahu.s:201    .rodata.str1.8:0000000000000000 .LC0
     /tmp/ccxkXahu.s:249    .text:0000000000000178 .L0 
     /tmp/ccxkXahu.s:204    .rodata.str1.8:0000000000000008 .LC1
     /tmp/ccxkXahu.s:259    .text:0000000000000194 .L0 
     /tmp/ccxkXahu.s:207    .rodata.str1.8:0000000000000018 .LC2
     /tmp/ccxkXahu.s:269    .text:00000000000001b0 .L0 
     /tmp/ccxkXahu.s:319    .text:000000000000021c .L0 
     /tmp/ccxkXahu.s:174    .text:0000000000000118 .L4
     /tmp/ccxkXahu.s:182    .text:0000000000000124 .L6
     /tmp/ccxkXahu.s:148    .text:00000000000000f4 .L8
     /tmp/ccxkXahu.s:116    .text:00000000000000b8 .L5
     /tmp/ccxkXahu.s:136    .text:00000000000000e0 .L7
     /tmp/ccxkXahu.s:297    .text:00000000000001f0 .L11
     /tmp/ccxkXahu.s:284    .text:00000000000001dc .L10
     /tmp/ccxkXahu.s:1166   .debug_abbrev:0000000000000000 .Ldebug_abbrev0
     /tmp/ccxkXahu.s:2085   .debug_str:0000000000000521 .LASF104
     /tmp/ccxkXahu.s:1935   .debug_str:000000000000008e .LASF105
     /tmp/ccxkXahu.s:1969   .debug_str:0000000000000183 .LASF106
     /tmp/ccxkXahu.s:5      .text:0000000000000000 .Ltext0
GAS LISTING /tmp/ccxkXahu.s 			page 14


     /tmp/ccxkXahu.s:341    .text:0000000000000238 .Letext0
     /tmp/ccxkXahu.s:1905   .debug_line:0000000000000000 .Ldebug_line0
     /tmp/ccxkXahu.s:2027   .debug_str:000000000000037d .LASF0
     /tmp/ccxkXahu.s:2039   .debug_str:00000000000003b6 .LASF1
     /tmp/ccxkXahu.s:2015   .debug_str:000000000000030e .LASF2
     /tmp/ccxkXahu.s:1997   .debug_str:0000000000000298 .LASF4
     /tmp/ccxkXahu.s:2067   .debug_str:0000000000000499 .LASF3
     /tmp/ccxkXahu.s:1931   .debug_str:0000000000000077 .LASF5
     /tmp/ccxkXahu.s:2045   .debug_str:00000000000003e5 .LASF6
     /tmp/ccxkXahu.s:2025   .debug_str:000000000000036a .LASF7
     /tmp/ccxkXahu.s:2097   .debug_str:000000000000066b .LASF8
     /tmp/ccxkXahu.s:1985   .debug_str:0000000000000225 .LASF9
     /tmp/ccxkXahu.s:2053   .debug_str:0000000000000430 .LASF10
     /tmp/ccxkXahu.s:2087   .debug_str:00000000000005e5 .LASF11
     /tmp/ccxkXahu.s:1933   .debug_str:000000000000007e .LASF12
     /tmp/ccxkXahu.s:1915   .debug_str:0000000000000027 .LASF13
     /tmp/ccxkXahu.s:1941   .debug_str:00000000000000c3 .LASF14
     /tmp/ccxkXahu.s:2063   .debug_str:000000000000046b .LASF15
     /tmp/ccxkXahu.s:1943   .debug_str:00000000000000cf .LASF16
     /tmp/ccxkXahu.s:2037   .debug_str:00000000000003b0 .LASF74
     /tmp/ccxkXahu.s:2061   .debug_str:0000000000000460 .LASF49
     /tmp/ccxkXahu.s:2117   .debug_str:0000000000000718 .LASF51
     /tmp/ccxkXahu.s:1917   .debug_str:0000000000000037 .LASF17
     /tmp/ccxkXahu.s:2073   .debug_str:00000000000004c1 .LASF19
     /tmp/ccxkXahu.s:1957   .debug_str:0000000000000149 .LASF21
     /tmp/ccxkXahu.s:1955   .debug_str:0000000000000134 .LASF23
     /tmp/ccxkXahu.s:2069   .debug_str:00000000000004ab .LASF18
     /tmp/ccxkXahu.s:2057   .debug_str:0000000000000448 .LASF20
     /tmp/ccxkXahu.s:2083   .debug_str:000000000000051a .LASF22
     /tmp/ccxkXahu.s:2079   .debug_str:00000000000004f5 .LASF24
     /tmp/ccxkXahu.s:1975   .debug_str:00000000000001c5 .LASF25
     /tmp/ccxkXahu.s:1945   .debug_str:00000000000000e5 .LASF26
     /tmp/ccxkXahu.s:1911   .debug_str:0000000000000010 .LASF27
     /tmp/ccxkXahu.s:1991   .debug_str:0000000000000266 .LASF28
     /tmp/ccxkXahu.s:1961   .debug_str:000000000000015a .LASF29
     /tmp/ccxkXahu.s:2107   .debug_str:00000000000006c9 .LASF30
     /tmp/ccxkXahu.s:2123   .debug_str:0000000000000747 .LASF31
     /tmp/ccxkXahu.s:1963   .debug_str:0000000000000162 .LASF32
     /tmp/ccxkXahu.s:2029   .debug_str:000000000000038a .LASF33
     /tmp/ccxkXahu.s:2113   .debug_str:00000000000006ec .LASF34
     /tmp/ccxkXahu.s:1929   .debug_str:0000000000000070 .LASF35
     /tmp/ccxkXahu.s:1973   .debug_str:00000000000001b2 .LASF36
     /tmp/ccxkXahu.s:1979   .debug_str:00000000000001db .LASF37
     /tmp/ccxkXahu.s:2081   .debug_str:0000000000000508 .LASF38
     /tmp/ccxkXahu.s:1927   .debug_str:000000000000006a .LASF39
     /tmp/ccxkXahu.s:2127   .debug_str:000000000000075b .LASF40
     /tmp/ccxkXahu.s:2121   .debug_str:000000000000073c .LASF41
     /tmp/ccxkXahu.s:2065   .debug_str:0000000000000481 .LASF42
     /tmp/ccxkXahu.s:2005   .debug_str:00000000000002b6 .LASF43
     /tmp/ccxkXahu.s:2075   .debug_str:00000000000004d6 .LASF44
     /tmp/ccxkXahu.s:1939   .debug_str:00000000000000b9 .LASF45
     /tmp/ccxkXahu.s:1993   .debug_str:000000000000027a .LASF46
     /tmp/ccxkXahu.s:2017   .debug_str:000000000000031c .LASF47
     /tmp/ccxkXahu.s:1987   .debug_str:0000000000000233 .LASF48
     /tmp/ccxkXahu.s:2071   .debug_str:00000000000004b2 .LASF50
     /tmp/ccxkXahu.s:1937   .debug_str:000000000000009d .LASF52
     /tmp/ccxkXahu.s:2101   .debug_str:0000000000000685 .LASF62
GAS LISTING /tmp/ccxkXahu.s 			page 15


     /tmp/ccxkXahu.s:2009   .debug_str:00000000000002c9 .LASF64
     /tmp/ccxkXahu.s:1995   .debug_str:0000000000000290 .LASF53
     /tmp/ccxkXahu.s:1923   .debug_str:0000000000000056 .LASF54
     /tmp/ccxkXahu.s:2003   .debug_str:00000000000002b1 .LASF55
     /tmp/ccxkXahu.s:2001   .debug_str:00000000000002a8 .LASF56
     /tmp/ccxkXahu.s:2033   .debug_str:00000000000003a0 .LASF57
     /tmp/ccxkXahu.s:2007   .debug_str:00000000000002c1 .LASF58
     /tmp/ccxkXahu.s:2035   .debug_str:00000000000003a6 .LASF59
     /tmp/ccxkXahu.s:1959   .debug_str:0000000000000152 .LASF76
     /tmp/ccxkXahu.s:1921   .debug_str:0000000000000049 .LASF60
     /tmp/ccxkXahu.s:2091   .debug_str:0000000000000606 .LASF61
     /tmp/ccxkXahu.s:2011   .debug_str:00000000000002eb .LASF63
     /tmp/ccxkXahu.s:1989   .debug_str:0000000000000249 .LASF65
     /tmp/ccxkXahu.s:1913   .debug_str:0000000000000018 .LASF66
     /tmp/ccxkXahu.s:2095   .debug_str:000000000000064d .LASF67
     /tmp/ccxkXahu.s:1965   .debug_str:0000000000000176 .LASF68
     /tmp/ccxkXahu.s:1907   .debug_str:0000000000000000 .LASF69
     /tmp/ccxkXahu.s:1967   .debug_str:000000000000017b .LASF70
     /tmp/ccxkXahu.s:2047   .debug_str:00000000000003f8 .LASF71
     /tmp/ccxkXahu.s:2111   .debug_str:00000000000006e7 .LASF72
     /tmp/ccxkXahu.s:2059   .debug_str:000000000000045b .LASF73
     /tmp/ccxkXahu.s:2021   .debug_str:0000000000000333 .LASF75
     /tmp/ccxkXahu.s:2055   .debug_str:000000000000043f .LASF77
     /tmp/ccxkXahu.s:1909   .debug_str:0000000000000009 .LASF78
     /tmp/ccxkXahu.s:1947   .debug_str:00000000000000f9 .LASF79
     /tmp/ccxkXahu.s:2109   .debug_str:00000000000006dd .LASF80
     /tmp/ccxkXahu.s:2049   .debug_str:00000000000003fd .LASF81
     /tmp/ccxkXahu.s:2041   .debug_str:00000000000003c9 .LASF82
     /tmp/ccxkXahu.s:1981   .debug_str:00000000000001e1 .LASF83
     /tmp/ccxkXahu.s:2099   .debug_str:000000000000067b .LASF84
     /tmp/ccxkXahu.s:2103   .debug_str:000000000000069a .LASF86
     /tmp/ccxkXahu.s:1999   .debug_str:000000000000029f .LASF85
     /tmp/ccxkXahu.s:1983   .debug_str:0000000000000204 .LASF87
     /tmp/ccxkXahu.s:2031   .debug_str:0000000000000391 .LASF88
     /tmp/ccxkXahu.s:2023   .debug_str:0000000000000343 .LASF89
     /tmp/ccxkXahu.s:2051   .debug_str:0000000000000426 .LASF90
     /tmp/ccxkXahu.s:1971   .debug_str:00000000000001a1 .LASF91
     /tmp/ccxkXahu.s:1953   .debug_str:0000000000000120 .LASF107
     /tmp/ccxkXahu.s:2093   .debug_str:0000000000000631 .LASF108
     /tmp/ccxkXahu.s:1951   .debug_str:0000000000000111 .LASF109
     /tmp/ccxkXahu.s:2013   .debug_str:00000000000002f9 .LASF110
     /tmp/ccxkXahu.s:214    .text:0000000000000134 .LFB26
     /tmp/ccxkXahu.s:330    .text:0000000000000238 .LFE26
     /tmp/ccxkXahu.s:239    .text:0000000000000164 .LVL13
     /tmp/ccxkXahu.s:243    .text:000000000000016c .LVL14
     /tmp/ccxkXahu.s:251    .text:0000000000000188 .LVL15
     /tmp/ccxkXahu.s:256    .text:0000000000000194 .LVL16
     /tmp/ccxkXahu.s:261    .text:00000000000001a4 .LVL17
     /tmp/ccxkXahu.s:266    .text:00000000000001b0 .LVL18
     /tmp/ccxkXahu.s:271    .text:00000000000001c0 .LVL19
     /tmp/ccxkXahu.s:283    .text:00000000000001dc .LVL20
     /tmp/ccxkXahu.s:303    .text:00000000000001fc .LVL21
     /tmp/ccxkXahu.s:308    .text:0000000000000208 .LVL22
     /tmp/ccxkXahu.s:313    .text:0000000000000214 .LVL23
     /tmp/ccxkXahu.s:317    .text:000000000000021c .LVL24
     /tmp/ccxkXahu.s:326    .text:0000000000000234 .LVL25
     /tmp/ccxkXahu.s:10     .text:0000000000000000 .LFB25
GAS LISTING /tmp/ccxkXahu.s 			page 16


     /tmp/ccxkXahu.s:48     .text:0000000000000044 .LFE25
     /tmp/ccxkXahu.s:25     .text:0000000000000018 .LVL0
     /tmp/ccxkXahu.s:37     .text:0000000000000034 .LVL2
     /tmp/ccxkXahu.s:54     .text:0000000000000044 .LFB24
     /tmp/ccxkXahu.s:197    .text:0000000000000134 .LFE24
     /tmp/ccxkXahu.s:2077   .debug_str:00000000000004ee .LASF92
     /tmp/ccxkXahu.s:1797   .debug_loc:0000000000000000 .LLST0
     /tmp/ccxkXahu.s:1977   .debug_str:00000000000001cd .LASF93
     /tmp/ccxkXahu.s:1819   .debug_loc:000000000000005f .LLST1
     /tmp/ccxkXahu.s:1841   .debug_loc:00000000000000be .LLST2
     /tmp/ccxkXahu.s:2125   .debug_str:000000000000074f .LASF94
     /tmp/ccxkXahu.s:1863   .debug_loc:000000000000011d .LLST3
     /tmp/ccxkXahu.s:1919   .debug_str:0000000000000040 .LASF95
     /tmp/ccxkXahu.s:1885   .debug_loc:000000000000017c .LLST4
     /tmp/ccxkXahu.s:83     .text:0000000000000080 .LVL5
     /tmp/ccxkXahu.s:87     .text:0000000000000088 .LVL6
     /tmp/ccxkXahu.s:147    .text:00000000000000f4 .LVL7
     /tmp/ccxkXahu.s:1949   .debug_str:00000000000000fe .LASF96
     /tmp/ccxkXahu.s:2119   .debug_str:0000000000000730 .LASF98
     /tmp/ccxkXahu.s:2089   .debug_str:00000000000005f4 .LASF97
     /tmp/ccxkXahu.s:2019   .debug_str:0000000000000326 .LASF99
     /tmp/ccxkXahu.s:2105   .debug_str:00000000000006bb .LASF100
     /tmp/ccxkXahu.s:2115   .debug_str:00000000000006ff .LASF101
     /tmp/ccxkXahu.s:2043   .debug_str:00000000000003d4 .LASF102
     /tmp/ccxkXahu.s:1925   .debug_str:000000000000005e .LASF103
     /tmp/ccxkXahu.s:57     .text:0000000000000044 .LVL3
     /tmp/ccxkXahu.s:81     .text:0000000000000078 .LVL4
     /tmp/ccxkXahu.s:160    .text:0000000000000104 .LVL8
     /tmp/ccxkXahu.s:173    .text:0000000000000118 .LVL12
     /tmp/ccxkXahu.s:163    .text:0000000000000108 .LVL9
     /tmp/ccxkXahu.s:166    .text:000000000000010c .LVL10
     /tmp/ccxkXahu.s:169    .text:0000000000000110 .LVL11
     /tmp/ccxkXahu.s:350    .debug_info:0000000000000000 .Ldebug_info0

UNDEFINED SYMBOLS
_ZN5Riscv10popSppSpieEv
_Z11thread_exitv
_ZN15MemoryAllocator14convert2BlocksEm
_ZN15MemoryAllocator9mem_allocEm
_ZN9Scheduler3putEP7_thread
_ZN9Scheduler3getEv
_Z11printStringPKc
_Z12printIntegerm
contextSwitch
_ZN15MemoryAllocator8mem_freeEPv
contextSwitchThreadEnded
