GAS LISTING /tmp/ccQoliln.s 			page 1


   1              		.file	"thread.cpp"
   2              		.option pic
   3              		.option norelax
   4              		.text
   5              	.Ltext0:
   6              		.align	2
   7              		.globl	_ZN7_thread13threadWrapperEv
   9              	_ZN7_thread13threadWrapperEv:
  10              	.LFB26:
  11              		.file 1 "src/thread.cpp"
   1:src/thread.cpp **** //
   2:src/thread.cpp **** // Created by os on 8/12/23.
   3:src/thread.cpp **** //
   4:src/thread.cpp **** 
   5:src/thread.cpp **** #include "../h/thread.hpp"
   6:src/thread.cpp **** #include "../h/MemoryAllocator.hpp"
   7:src/thread.cpp **** #include "../h/scheduler.hpp"
   8:src/thread.cpp **** #include "../h/syscall_c.hpp"
   9:src/thread.cpp **** #include "../test/printing.hpp"
  10:src/thread.cpp **** #include "../h/list.hpp"
  11:src/thread.cpp **** #include "../h/sem.hpp"
  12:src/thread.cpp **** 
  13:src/thread.cpp **** thread_t _thread::running = nullptr;
  14:src/thread.cpp **** 
  15:src/thread.cpp **** /////////////////////////////
  16:src/thread.cpp **** int _thread::id = 0;
  17:src/thread.cpp **** _thread::Elem* _thread::head = nullptr;
  18:src/thread.cpp **** _thread::Elem* _thread::tail = nullptr;
  19:src/thread.cpp **** /////////////////////////////
  20:src/thread.cpp **** 
  21:src/thread.cpp **** int _thread::threadCreate (thread_t* handle, void(*start_routine)(void*), void* arg, void* stack_sp
  22:src/thread.cpp **** {
  23:src/thread.cpp **** 
  24:src/thread.cpp ****     size_t blockNum = MemoryAllocator::convert2Blocks(sizeof(_thread));
  25:src/thread.cpp ****     *handle = (_thread*) MemoryAllocator::mem_alloc(blockNum);
  26:src/thread.cpp **** 
  27:src/thread.cpp ****     int retVal = _sem::semOpen(&(*handle)->semaphore, 0);
  28:src/thread.cpp **** 
  29:src/thread.cpp ****     if (*handle == nullptr || retVal < 0)
  30:src/thread.cpp ****         return -1;
  31:src/thread.cpp **** 
  32:src/thread.cpp ****     (*handle)->semWaitVal = 0;
  33:src/thread.cpp ****     (*handle)->finished = false;
  34:src/thread.cpp ****     (*handle)->timeSlice = 0;
  35:src/thread.cpp ****     (*handle)->body = start_routine;
  36:src/thread.cpp ****     (*handle)->arg = arg;
  37:src/thread.cpp **** 
  38:src/thread.cpp ****     if (start_routine != nullptr)
  39:src/thread.cpp ****         (*handle)->stack = (uint64*) stack_space;
  40:src/thread.cpp ****     else
  41:src/thread.cpp ****         (*handle)->stack = nullptr;
  42:src/thread.cpp **** 
  43:src/thread.cpp ****     // (*handle)->context.ra = (uint64) &threadWrapper;
  44:src/thread.cpp **** 
  45:src/thread.cpp ****     if ((*handle)->stack != nullptr)
  46:src/thread.cpp ****     {
  47:src/thread.cpp ****         (*handle)->context.sp = (uint64) &((*handle)->stack[DEFAULT_STACK_SIZE]);
GAS LISTING /tmp/ccQoliln.s 			page 2


  48:src/thread.cpp ****         (*handle)->context.ra = (uint64) &threadWrapper;
  49:src/thread.cpp ****     }
  50:src/thread.cpp ****     else
  51:src/thread.cpp ****     {
  52:src/thread.cpp ****         // asm volatile("sd ra, %0" : "=m" ((*handle)->context.ra));
  53:src/thread.cpp ****         // (*handle)->context.ra = (uint64) &threadWrapper;
  54:src/thread.cpp ****         (*handle)->context.sp = 0;
  55:src/thread.cpp ****     }
  56:src/thread.cpp **** 
  57:src/thread.cpp ****     if ((*handle)->body != nullptr)
  58:src/thread.cpp ****         Scheduler::put(*handle);
  59:src/thread.cpp **** 
  60:src/thread.cpp **** //    printString("\nnew thread: ");
  61:src/thread.cpp **** //    printInt((uint64) *handle);
  62:src/thread.cpp **** //    printString("\n");
  63:src/thread.cpp **** 
  64:src/thread.cpp **** 
  65:src/thread.cpp ****     /////////////////////////////////
  66:src/thread.cpp ****     (*handle)->myId = _thread::id++;
  67:src/thread.cpp ****     _thread::addLast(*handle);
  68:src/thread.cpp **** 
  69:src/thread.cpp ****     (*handle)->blockedOn = nullptr;
  70:src/thread.cpp **** 
  71:src/thread.cpp ****     /////////////////////////////////
  72:src/thread.cpp **** 
  73:src/thread.cpp ****     return 0;
  74:src/thread.cpp **** }
  75:src/thread.cpp **** 
  76:src/thread.cpp **** 
  77:src/thread.cpp **** void _thread::threadWrapper()
  78:src/thread.cpp **** {
  12              		.loc 1 78 1
  13              		.cfi_startproc
  14 0000 130101FF 		addi	sp,sp,-16
  15              		.cfi_def_cfa_offset 16
  16 0004 23341100 		sd	ra,8(sp)
  17 0008 23308100 		sd	s0,0(sp)
  18              		.cfi_offset 1, -8
  19              		.cfi_offset 8, -16
  20 000c 13040101 		addi	s0,sp,16
  21              		.cfi_def_cfa 8, 0
  79:src/thread.cpp ****     Riscv::popSppSpie();
  22              		.loc 1 79 5
  23              		.loc 1 79 22 is_stmt 0
  24 0010 97000000 		call	_ZN5Riscv10popSppSpieEv@plt
  24      E7800000 
  25              	.LVL0:
  80:src/thread.cpp **** 
  81:src/thread.cpp ****     _thread::running->body(_thread::running->arg);
  26              		.loc 1 81 5 is_stmt 1
  27              		.loc 1 81 23 is_stmt 0
  28 0018 97070000 		ld	a5,.LANCHOR0
  28      83B70700 
  29 0020 03B70700 		ld	a4,0(a5)
  30              		.loc 1 81 27
  31 0024 03B58702 		ld	a0,40(a5)
  32 0028 E7000700 		jalr	a4
GAS LISTING /tmp/ccQoliln.s 			page 3


  33              	.LVL1:
  82:src/thread.cpp **** 
  83:src/thread.cpp ****     thread_exit();
  34              		.loc 1 83 5 is_stmt 1
  35              		.loc 1 83 16 is_stmt 0
  36 002c 97000000 		call	_Z11thread_exitv@plt
  36      E7800000 
  37              	.LVL2:
  84:src/thread.cpp **** }
  38              		.loc 1 84 1
  39 0034 83308100 		ld	ra,8(sp)
  40              		.cfi_restore 1
  41 0038 03340100 		ld	s0,0(sp)
  42              		.cfi_restore 8
  43              		.cfi_def_cfa 2, 16
  44 003c 13010101 		addi	sp,sp,16
  45              		.cfi_def_cfa_offset 0
  46 0040 67800000 		jr	ra
  47              		.cfi_endproc
  48              	.LFE26:
  50              		.align	2
  51              		.globl	_ZN7_thread17threadWrapperExecEv
  53              	_ZN7_thread17threadWrapperExecEv:
  54              	.LFB27:
  85:src/thread.cpp **** 
  86:src/thread.cpp **** void _thread::threadWrapperExec()
  87:src/thread.cpp **** {
  55              		.loc 1 87 1 is_stmt 1
  56              		.cfi_startproc
  57 0044 130101FF 		addi	sp,sp,-16
  58              		.cfi_def_cfa_offset 16
  59 0048 23341100 		sd	ra,8(sp)
  60 004c 23308100 		sd	s0,0(sp)
  61              		.cfi_offset 1, -8
  62              		.cfi_offset 8, -16
  63 0050 13040101 		addi	s0,sp,16
  64              		.cfi_def_cfa 8, 0
  88:src/thread.cpp ****     _thread::running->body(_thread::running->arg);
  65              		.loc 1 88 5
  66              		.loc 1 88 23 is_stmt 0
  67 0054 97070000 		ld	a5,.LANCHOR0
  67      83B70700 
  68 005c 03B70700 		ld	a4,0(a5)
  69              		.loc 1 88 27
  70 0060 03B58702 		ld	a0,40(a5)
  71 0064 E7000700 		jalr	a4
  72              	.LVL3:
  89:src/thread.cpp **** 
  90:src/thread.cpp ****     thread_exit();
  73              		.loc 1 90 5 is_stmt 1
  74              		.loc 1 90 16 is_stmt 0
  75 0068 97000000 		call	_Z11thread_exitv@plt
  75      E7800000 
  76              	.LVL4:
  91:src/thread.cpp **** }
  77              		.loc 1 91 1
  78 0070 83308100 		ld	ra,8(sp)
GAS LISTING /tmp/ccQoliln.s 			page 4


  79              		.cfi_restore 1
  80 0074 03340100 		ld	s0,0(sp)
  81              		.cfi_restore 8
  82              		.cfi_def_cfa 2, 16
  83 0078 13010101 		addi	sp,sp,16
  84              		.cfi_def_cfa_offset 0
  85 007c 67800000 		jr	ra
  86              		.cfi_endproc
  87              	.LFE27:
  89              		.align	2
  90              		.globl	_ZN7_thread14threadDispatchEv
  92              	_ZN7_thread14threadDispatchEv:
  93              	.LFB28:
  92:src/thread.cpp **** 
  93:src/thread.cpp **** void _thread::threadDispatch ()
  94:src/thread.cpp **** {
  94              		.loc 1 94 1 is_stmt 1
  95              		.cfi_startproc
  96 0080 130101FE 		addi	sp,sp,-32
  97              		.cfi_def_cfa_offset 32
  98 0084 233C1100 		sd	ra,24(sp)
  99 0088 23388100 		sd	s0,16(sp)
 100 008c 23349100 		sd	s1,8(sp)
 101              		.cfi_offset 1, -8
 102              		.cfi_offset 8, -16
 103              		.cfi_offset 9, -24
 104 0090 13040102 		addi	s0,sp,32
 105              		.cfi_def_cfa 8, 0
  95:src/thread.cpp ****     // Scheduler::readyThreadQueue.printAll();
  96:src/thread.cpp **** 
  97:src/thread.cpp ****     _thread *old = _thread::running;
 106              		.loc 1 97 5
 107              		.loc 1 97 14 is_stmt 0
 108 0094 97040000 		ld	s1,.LANCHOR0
 108      83B40400 
 109              	.LVL5:
  98:src/thread.cpp **** 
  99:src/thread.cpp ****     if (!old->finished)
 110              		.loc 1 99 5 is_stmt 1
 111              		.loc 1 99 15 is_stmt 0
 112 009c 83C79400 		lbu	a5,9(s1)
 113              		.loc 1 99 5
 114 00a0 63940704 		bnez	a5,.L6
 100:src/thread.cpp ****     {
 101:src/thread.cpp ****         Scheduler::put(old);
 115              		.loc 1 101 9 is_stmt 1
 116              		.loc 1 101 23 is_stmt 0
 117 00a4 13850400 		mv	a0,s1
 118 00a8 97000000 		call	_ZN9Scheduler3putEP7_thread@plt
 118      E7800000 
 119              	.LVL6:
 102:src/thread.cpp ****         _thread::running = Scheduler::get();
 120              		.loc 1 102 9 is_stmt 1
 121              		.loc 1 102 42 is_stmt 0
 122 00b0 97000000 		call	_ZN9Scheduler3getEv@plt
 122      E7800000 
 123              	.LVL7:
GAS LISTING /tmp/ccQoliln.s 			page 5


 124              		.loc 1 102 26
 125 00b8 97070000 		sd	a0,.LANCHOR0,a5
 125      23B0A700 
 103:src/thread.cpp **** 
 104:src/thread.cpp ****         if(old != _thread::running)
 126              		.loc 1 104 9 is_stmt 1
 127 00c0 638AA400 		beq	s1,a0,.L5
 105:src/thread.cpp ****             contextSwitch(&old->context, &_thread::running->context);
 128              		.loc 1 105 13
 129              		.loc 1 105 26 is_stmt 0
 130 00c4 93058501 		addi	a1,a0,24
 131 00c8 13858401 		addi	a0,s1,24
 132 00cc 97000000 		call	contextSwitch@plt
 132      E7800000 
 133              	.LVL8:
 134              	.L5:
 106:src/thread.cpp ****     }
 107:src/thread.cpp ****     else
 108:src/thread.cpp ****     {
 109:src/thread.cpp ****         // dealloc the sem and release all waiting threads
 110:src/thread.cpp ****         _sem::semClose(_thread::running->semaphore);
 111:src/thread.cpp **** 
 112:src/thread.cpp ****         // thread finished -> dealloc the stack and thread
 113:src/thread.cpp ****         MemoryAllocator::mem_free(old->stack);
 114:src/thread.cpp ****         // MemoryAllocator::mem_free(old);
 115:src/thread.cpp ****         // MemoryAllocator::mem_free(&old);
 116:src/thread.cpp **** 
 117:src/thread.cpp ****         _thread::running = Scheduler::get();
 118:src/thread.cpp **** 
 119:src/thread.cpp ****         if (_thread::running)
 120:src/thread.cpp ****             contextSwitchThreadEnded(&_thread::running->context);
 121:src/thread.cpp ****     }
 122:src/thread.cpp **** }
 135              		.loc 1 122 1
 136 00d4 83308101 		ld	ra,24(sp)
 137              		.cfi_remember_state
 138              		.cfi_restore 1
 139 00d8 03340101 		ld	s0,16(sp)
 140              		.cfi_restore 8
 141              		.cfi_def_cfa 2, 32
 142 00dc 83348100 		ld	s1,8(sp)
 143              		.cfi_restore 9
 144              	.LVL9:
 145 00e0 13010102 		addi	sp,sp,32
 146              		.cfi_def_cfa_offset 0
 147 00e4 67800000 		jr	ra
 148              	.LVL10:
 149              	.L6:
 150              		.cfi_restore_state
 110:src/thread.cpp **** 
 151              		.loc 1 110 9 is_stmt 1
 110:src/thread.cpp **** 
 152              		.loc 1 110 23 is_stmt 0
 153 00e8 03B50404 		ld	a0,64(s1)
 154 00ec 97000000 		call	_ZN4_sem8semCloseEPS_@plt
 154      E7800000 
 155              	.LVL11:
GAS LISTING /tmp/ccQoliln.s 			page 6


 113:src/thread.cpp ****         // MemoryAllocator::mem_free(old);
 156              		.loc 1 113 9 is_stmt 1
 113:src/thread.cpp ****         // MemoryAllocator::mem_free(old);
 157              		.loc 1 113 34 is_stmt 0
 158 00f4 03B50401 		ld	a0,16(s1)
 159 00f8 97000000 		call	_ZN15MemoryAllocator8mem_freeEPv@plt
 159      E7800000 
 160              	.LVL12:
 117:src/thread.cpp **** 
 161              		.loc 1 117 9 is_stmt 1
 117:src/thread.cpp **** 
 162              		.loc 1 117 42 is_stmt 0
 163 0100 97000000 		call	_ZN9Scheduler3getEv@plt
 163      E7800000 
 164              	.LVL13:
 117:src/thread.cpp **** 
 165              		.loc 1 117 26
 166 0108 97070000 		sd	a0,.LANCHOR0,a5
 166      23B0A700 
 119:src/thread.cpp ****             contextSwitchThreadEnded(&_thread::running->context);
 167              		.loc 1 119 9 is_stmt 1
 168 0110 E30205FC 		beqz	a0,.L5
 120:src/thread.cpp ****     }
 169              		.loc 1 120 13
 120:src/thread.cpp ****     }
 170              		.loc 1 120 37 is_stmt 0
 171 0114 13058501 		addi	a0,a0,24
 172 0118 97000000 		call	contextSwitchThreadEnded@plt
 172      E7800000 
 173              	.LVL14:
 174              		.loc 1 122 1
 175 0120 6FF05FFB 		j	.L5
 176              		.cfi_endproc
 177              	.LFE28:
 179              		.align	2
 180              		.globl	_ZN7_thread10threadExecEv
 182              	_ZN7_thread10threadExecEv:
 183              	.LFB30:
 123:src/thread.cpp **** 
 124:src/thread.cpp **** void _thread::threadFork()
 125:src/thread.cpp **** {
 126:src/thread.cpp ****     size_t blockNum2 = MemoryAllocator::convert2Blocks(sizeof(_thread));
 127:src/thread.cpp ****     _thread* newHandle = (_thread *)(MemoryAllocator::mem_alloc(blockNum2));
 128:src/thread.cpp **** 
 129:src/thread.cpp ****     size_t blockNum = MemoryAllocator::convert2Blocks(sizeof(uint64) * DEFAULT_STACK_SIZE);
 130:src/thread.cpp ****     void* stack_space = MemoryAllocator::mem_alloc(blockNum);
 131:src/thread.cpp **** 
 132:src/thread.cpp ****     threadCreate(&newHandle, _thread::running->body, _thread::running->arg, stack_space);
 133:src/thread.cpp **** 
 134:src/thread.cpp **** //    printString("\nsepc = ");
 135:src/thread.cpp **** //    printInt(Riscv::r_sepc());
 136:src/thread.cpp **** //    printString("\n");
 137:src/thread.cpp ****     asm volatile ("csrr a0, sepc");
 138:src/thread.cpp ****     asm volatile("sd a0, %0" : "=m" (newHandle->context.ra));
 139:src/thread.cpp **** //    printString("\ncontext.ra = ");
 140:src/thread.cpp **** //    printInt(newHandle->context.ra);
 141:src/thread.cpp **** //    printString("\n");
GAS LISTING /tmp/ccQoliln.s 			page 7


 142:src/thread.cpp **** 
 143:src/thread.cpp ****     void* volatile SP;
 144:src/thread.cpp ****     asm volatile("csrr %0, sscratch" : "=r" (SP));
 145:src/thread.cpp **** //    newHandle->context.sp = (uint64)newHandle->stack + _thread::running->context.sp - (uint64)_th
 146:src/thread.cpp **** 
 147:src/thread.cpp **** //    printString("\ncontext.sp1 = ");
 148:src/thread.cpp **** //    printInt(newHandle->context.sp);
 149:src/thread.cpp **** //    printString("\n");
 150:src/thread.cpp **** 
 151:src/thread.cpp ****       // newHandle->context.sp = (uint64)newHandle->stack + *(uint64*)SP - (uint64)_thread::running
 152:src/thread.cpp **** 
 153:src/thread.cpp **** 
 154:src/thread.cpp **** //
 155:src/thread.cpp **** //    printString("\ncontext.sp2 = ");
 156:src/thread.cpp **** //    printInt(newHandle->context.sp);
 157:src/thread.cpp **** //    printString("\n");
 158:src/thread.cpp **** 
 159:src/thread.cpp ****     // copy stack
 160:src/thread.cpp ****     uint64* startAddrOld = _thread::running->stack;
 161:src/thread.cpp ****     uint64* startAddrNew = newHandle->stack;
 162:src/thread.cpp **** 
 163:src/thread.cpp ****     size_t i = 0;
 164:src/thread.cpp ****     while (i < DEFAULT_STACK_SIZE)
 165:src/thread.cpp ****     {
 166:src/thread.cpp ****         *(startAddrNew+i) = *(startAddrOld+i);
 167:src/thread.cpp ****         i++;
 168:src/thread.cpp ****     }
 169:src/thread.cpp ****     //
 170:src/thread.cpp **** 
 171:src/thread.cpp ****     _thread::running->forkRetVal = newHandle->myId; // 1 - thread parent
 172:src/thread.cpp ****     newHandle->forkRetVal = 0; // 0 - child
 173:src/thread.cpp **** 
 174:src/thread.cpp ****     Scheduler::put(newHandle);
 175:src/thread.cpp **** 
 176:src/thread.cpp **** //    newHandle->context.sp = (uint64)newHandle->stack + _thread::running->context.sp - (uint64)_th
 177:src/thread.cpp **** //    _thread* old = _thread::running;
 178:src/thread.cpp **** //    _thread::running = newHandle;
 179:src/thread.cpp **** //    Scheduler::put(old);
 180:src/thread.cpp **** //    contextSwitch(&old->context, &_thread::running->context);
 181:src/thread.cpp **** //    asm volatile("sret");
 182:src/thread.cpp **** }
 183:src/thread.cpp **** 
 184:src/thread.cpp **** 
 185:src/thread.cpp **** void _thread::threadExec()
 186:src/thread.cpp **** {
 184              		.loc 1 186 1 is_stmt 1
 185              		.cfi_startproc
 186 0124 130101FE 		addi	sp,sp,-32
 187              		.cfi_def_cfa_offset 32
 188 0128 233C1100 		sd	ra,24(sp)
 189 012c 23388100 		sd	s0,16(sp)
 190 0130 23349100 		sd	s1,8(sp)
 191 0134 23302101 		sd	s2,0(sp)
 192              		.cfi_offset 1, -8
 193              		.cfi_offset 8, -16
 194              		.cfi_offset 9, -24
 195              		.cfi_offset 18, -32
GAS LISTING /tmp/ccQoliln.s 			page 8


 196 0138 13040102 		addi	s0,sp,32
 197              		.cfi_def_cfa 8, 0
 187:src/thread.cpp ****     MemoryAllocator::mem_free(_thread::running->stack);
 198              		.loc 1 187 5
 199              		.loc 1 187 30 is_stmt 0
 200 013c 97040000 		lla	s1,.LANCHOR0
 200      93840400 
 201 0144 83B70400 		ld	a5,0(s1)
 202 0148 03B50701 		ld	a0,16(a5)
 203 014c 97000000 		call	_ZN15MemoryAllocator8mem_freeEPv@plt
 203      E7800000 
 204              	.LVL15:
 188:src/thread.cpp **** 
 189:src/thread.cpp ****     size_t blockNum2 = MemoryAllocator::convert2Blocks(sizeof(uint64) * DEFAULT_STACK_SIZE);
 205              		.loc 1 189 5 is_stmt 1
 206              		.loc 1 189 55 is_stmt 0
 207 0154 37850000 		li	a0,32768
 208 0158 97000000 		call	_ZN15MemoryAllocator14convert2BlocksEm@plt
 208      E7800000 
 209              	.LVL16:
 190:src/thread.cpp ****     _thread::running->stack = (uint64*)MemoryAllocator::mem_alloc(blockNum2);
 210              		.loc 1 190 5 is_stmt 1
 211              		.loc 1 190 23 is_stmt 0
 212 0160 03B90400 		ld	s2,0(s1)
 213              		.loc 1 190 66
 214 0164 97000000 		call	_ZN15MemoryAllocator9mem_allocEm@plt
 214      E7800000 
 215              	.LVL17:
 216              		.loc 1 190 29
 217 016c 2338A900 		sd	a0,16(s2)
 191:src/thread.cpp **** 
 192:src/thread.cpp ****     _thread::running->context.sp = (uint64) &(_thread::running->stack[DEFAULT_STACK_SIZE]);
 218              		.loc 1 192 5 is_stmt 1
 219              		.loc 1 192 65 is_stmt 0
 220 0170 03B70400 		ld	a4,0(s1)
 221 0174 83370701 		ld	a5,16(a4)
 222              		.loc 1 192 45
 223 0178 B7860000 		li	a3,32768
 224 017c B387D700 		add	a5,a5,a3
 225              		.loc 1 192 34
 226 0180 2330F702 		sd	a5,32(a4)
 193:src/thread.cpp **** }
 227              		.loc 1 193 1
 228 0184 83308101 		ld	ra,24(sp)
 229              		.cfi_restore 1
 230 0188 03340101 		ld	s0,16(sp)
 231              		.cfi_restore 8
 232              		.cfi_def_cfa 2, 32
 233 018c 83348100 		ld	s1,8(sp)
 234              		.cfi_restore 9
 235 0190 03390100 		ld	s2,0(sp)
 236              		.cfi_restore 18
 237 0194 13010102 		addi	sp,sp,32
 238              		.cfi_def_cfa_offset 0
 239 0198 67800000 		jr	ra
 240              		.cfi_endproc
 241              	.LFE30:
GAS LISTING /tmp/ccQoliln.s 			page 9


 243              		.align	2
 244              		.globl	_ZN7_thread7addLastEPS_
 246              	_ZN7_thread7addLastEPS_:
 247              	.LFB31:
 194:src/thread.cpp **** 
 195:src/thread.cpp **** 
 196:src/thread.cpp **** void _thread::addLast(_thread *t)
 197:src/thread.cpp **** {
 248              		.loc 1 197 1 is_stmt 1
 249              		.cfi_startproc
 250              	.LVL18:
 198:src/thread.cpp ****     if (t == nullptr)
 251              		.loc 1 198 5
 252 019c 630C0506 		beqz	a0,.L15
 197:src/thread.cpp ****     if (t == nullptr)
 253              		.loc 1 197 1 is_stmt 0
 254 01a0 130101FE 		addi	sp,sp,-32
 255              		.cfi_def_cfa_offset 32
 256 01a4 233C1100 		sd	ra,24(sp)
 257 01a8 23388100 		sd	s0,16(sp)
 258 01ac 23349100 		sd	s1,8(sp)
 259              		.cfi_offset 1, -8
 260              		.cfi_offset 8, -16
 261              		.cfi_offset 9, -24
 262 01b0 13040102 		addi	s0,sp,32
 263              		.cfi_def_cfa 8, 0
 264 01b4 93040500 		mv	s1,a0
 199:src/thread.cpp ****         return;
 200:src/thread.cpp **** 
 201:src/thread.cpp ****     size_t blockNum = MemoryAllocator::convert2Blocks(sizeof(Elem));
 265              		.loc 1 201 5 is_stmt 1
 266              		.loc 1 201 54 is_stmt 0
 267 01b8 13050001 		li	a0,16
 268              	.LVL19:
 269 01bc 97000000 		call	_ZN15MemoryAllocator14convert2BlocksEm@plt
 269      E7800000 
 270              	.LVL20:
 202:src/thread.cpp ****     Elem *elem = (Elem*)MemoryAllocator::mem_alloc(blockNum);
 271              		.loc 1 202 5 is_stmt 1
 272              		.loc 1 202 51 is_stmt 0
 273 01c4 97000000 		call	_ZN15MemoryAllocator9mem_allocEm@plt
 273      E7800000 
 274              	.LVL21:
 203:src/thread.cpp **** 
 204:src/thread.cpp ****     elem->data = t;
 275              		.loc 1 204 5 is_stmt 1
 276              		.loc 1 204 16 is_stmt 0
 277 01cc 23309500 		sd	s1,0(a0)
 205:src/thread.cpp ****     elem->next = nullptr;
 278              		.loc 1 205 5 is_stmt 1
 279              		.loc 1 205 16 is_stmt 0
 280 01d0 23340500 		sd	zero,8(a0)
 206:src/thread.cpp **** 
 207:src/thread.cpp ****     if (_thread::tail)
 281              		.loc 1 207 5 is_stmt 1
 282              		.loc 1 207 22 is_stmt 0
 283 01d4 97070000 		ld	a5,.LANCHOR0+8
GAS LISTING /tmp/ccQoliln.s 			page 10


 283      83B70700 
 284              		.loc 1 207 5
 285 01dc 63820702 		beqz	a5,.L13
 208:src/thread.cpp ****     {
 209:src/thread.cpp ****         _thread::tail->next = elem;
 286              		.loc 1 209 9 is_stmt 1
 287              		.loc 1 209 29 is_stmt 0
 288 01e0 23B4A700 		sd	a0,8(a5)
 210:src/thread.cpp ****         _thread::tail = elem;
 289              		.loc 1 210 9 is_stmt 1
 290              		.loc 1 210 23 is_stmt 0
 291 01e4 97070000 		sd	a0,.LANCHOR0+8,a5
 291      23B0A700 
 292              	.L11:
 211:src/thread.cpp ****     }
 212:src/thread.cpp ****     else
 213:src/thread.cpp ****     {
 214:src/thread.cpp ****         _thread::head = _thread::tail = elem;
 215:src/thread.cpp ****     }
 216:src/thread.cpp **** }
 293              		.loc 1 216 1
 294 01ec 83308101 		ld	ra,24(sp)
 295              		.cfi_remember_state
 296              		.cfi_restore 1
 297 01f0 03340101 		ld	s0,16(sp)
 298              		.cfi_restore 8
 299              		.cfi_def_cfa 2, 32
 300 01f4 83348100 		ld	s1,8(sp)
 301              		.cfi_restore 9
 302              	.LVL22:
 303 01f8 13010102 		addi	sp,sp,32
 304              		.cfi_def_cfa_offset 0
 305 01fc 67800000 		jr	ra
 306              	.LVL23:
 307              	.L13:
 308              		.cfi_restore_state
 214:src/thread.cpp ****     }
 309              		.loc 1 214 9 is_stmt 1
 214:src/thread.cpp ****     }
 310              		.loc 1 214 39 is_stmt 0
 311 0200 97070000 		lla	a5,.LANCHOR0
 311      93870700 
 312 0208 23B4A700 		sd	a0,8(a5)
 214:src/thread.cpp ****     }
 313              		.loc 1 214 23
 314 020c 23B8A700 		sd	a0,16(a5)
 315 0210 6FF0DFFD 		j	.L11
 316              	.LVL24:
 317              	.L15:
 318              		.cfi_def_cfa_register 2
 319              		.cfi_restore 1
 320              		.cfi_restore 8
 321              		.cfi_restore 9
 322 0214 67800000 		ret
 323              		.cfi_endproc
 324              	.LFE31:
 326              		.align	2
GAS LISTING /tmp/ccQoliln.s 			page 11


 327              		.globl	_ZN7_thread12threadCreateEPPS_PFvPvES2_S2_
 329              	_ZN7_thread12threadCreateEPPS_PFvPvES2_S2_:
 330              	.LFB25:
  22:src/thread.cpp **** 
 331              		.loc 1 22 1 is_stmt 1
 332              		.cfi_startproc
 333              	.LVL25:
 334 0218 130101FD 		addi	sp,sp,-48
 335              		.cfi_def_cfa_offset 48
 336 021c 23341102 		sd	ra,40(sp)
 337 0220 23308102 		sd	s0,32(sp)
 338 0224 233C9100 		sd	s1,24(sp)
 339 0228 23382101 		sd	s2,16(sp)
 340 022c 23343101 		sd	s3,8(sp)
 341 0230 23304101 		sd	s4,0(sp)
 342              		.cfi_offset 1, -8
 343              		.cfi_offset 8, -16
 344              		.cfi_offset 9, -24
 345              		.cfi_offset 18, -32
 346              		.cfi_offset 19, -40
 347              		.cfi_offset 20, -48
 348 0234 13040103 		addi	s0,sp,48
 349              		.cfi_def_cfa 8, 0
 350 0238 93040500 		mv	s1,a0
 351 023c 13890500 		mv	s2,a1
 352 0240 130A0600 		mv	s4,a2
 353 0244 93890600 		mv	s3,a3
  24:src/thread.cpp ****     *handle = (_thread*) MemoryAllocator::mem_alloc(blockNum);
 354              		.loc 1 24 5
  24:src/thread.cpp ****     *handle = (_thread*) MemoryAllocator::mem_alloc(blockNum);
 355              		.loc 1 24 54 is_stmt 0
 356 0248 13050006 		li	a0,96
 357              	.LVL26:
 358 024c 97000000 		call	_ZN15MemoryAllocator14convert2BlocksEm@plt
 358      E7800000 
 359              	.LVL27:
  25:src/thread.cpp **** 
 360              		.loc 1 25 5 is_stmt 1
  25:src/thread.cpp **** 
 361              		.loc 1 25 52 is_stmt 0
 362 0254 97000000 		call	_ZN15MemoryAllocator9mem_allocEm@plt
 362      E7800000 
 363              	.LVL28:
  25:src/thread.cpp **** 
 364              		.loc 1 25 13
 365 025c 23B0A400 		sd	a0,0(s1)
  27:src/thread.cpp **** 
 366              		.loc 1 27 5 is_stmt 1
  27:src/thread.cpp **** 
 367              		.loc 1 27 31 is_stmt 0
 368 0260 93050000 		li	a1,0
 369 0264 13050504 		addi	a0,a0,64
 370 0268 97000000 		call	_ZN4_sem7semOpenEPPS_j@plt
 370      E7800000 
 371              	.LVL29:
  29:src/thread.cpp ****         return -1;
 372              		.loc 1 29 5 is_stmt 1
GAS LISTING /tmp/ccQoliln.s 			page 12


  29:src/thread.cpp ****         return -1;
 373              		.loc 1 29 9 is_stmt 0
 374 0270 83B70400 		ld	a5,0(s1)
  29:src/thread.cpp ****         return -1;
 375              		.loc 1 29 5
 376 0274 638E070C 		beqz	a5,.L25
  29:src/thread.cpp ****         return -1;
 377              		.loc 1 29 28 discriminator 1
 378 0278 6340050E 		bltz	a0,.L26
  32:src/thread.cpp ****     (*handle)->finished = false;
 379              		.loc 1 32 5 is_stmt 1
  32:src/thread.cpp ****     (*handle)->finished = false;
 380              		.loc 1 32 27 is_stmt 0
 381 027c 23AC0702 		sw	zero,56(a5)
  33:src/thread.cpp ****     (*handle)->timeSlice = 0;
 382              		.loc 1 33 5 is_stmt 1
  33:src/thread.cpp ****     (*handle)->timeSlice = 0;
 383              		.loc 1 33 6 is_stmt 0
 384 0280 83B70400 		ld	a5,0(s1)
  33:src/thread.cpp ****     (*handle)->timeSlice = 0;
 385              		.loc 1 33 25
 386 0284 A3840700 		sb	zero,9(a5)
  34:src/thread.cpp ****     (*handle)->body = start_routine;
 387              		.loc 1 34 5 is_stmt 1
  34:src/thread.cpp ****     (*handle)->body = start_routine;
 388              		.loc 1 34 6 is_stmt 0
 389 0288 83B70400 		ld	a5,0(s1)
  34:src/thread.cpp ****     (*handle)->body = start_routine;
 390              		.loc 1 34 26
 391 028c 23B80702 		sd	zero,48(a5)
  35:src/thread.cpp ****     (*handle)->arg = arg;
 392              		.loc 1 35 5 is_stmt 1
  35:src/thread.cpp ****     (*handle)->arg = arg;
 393              		.loc 1 35 6 is_stmt 0
 394 0290 83B70400 		ld	a5,0(s1)
  35:src/thread.cpp ****     (*handle)->arg = arg;
 395              		.loc 1 35 21
 396 0294 23B02701 		sd	s2,0(a5)
  36:src/thread.cpp **** 
 397              		.loc 1 36 5 is_stmt 1
  36:src/thread.cpp **** 
 398              		.loc 1 36 6 is_stmt 0
 399 0298 83B70400 		ld	a5,0(s1)
  36:src/thread.cpp **** 
 400              		.loc 1 36 20
 401 029c 23B44703 		sd	s4,40(a5)
  38:src/thread.cpp ****         (*handle)->stack = (uint64*) stack_space;
 402              		.loc 1 38 5 is_stmt 1
 403 02a0 630E0908 		beqz	s2,.L20
  39:src/thread.cpp ****     else
 404              		.loc 1 39 9
  39:src/thread.cpp ****     else
 405              		.loc 1 39 10 is_stmt 0
 406 02a4 83B70400 		ld	a5,0(s1)
  39:src/thread.cpp ****     else
 407              		.loc 1 39 26
 408 02a8 23B83701 		sd	s3,16(a5)
GAS LISTING /tmp/ccQoliln.s 			page 13


 409              	.L21:
  45:src/thread.cpp ****     {
 410              		.loc 1 45 5 is_stmt 1
  45:src/thread.cpp ****     {
 411              		.loc 1 45 10 is_stmt 0
 412 02ac 03B70400 		ld	a4,0(s1)
  45:src/thread.cpp ****     {
 413              		.loc 1 45 20
 414 02b0 83370701 		ld	a5,16(a4)
  45:src/thread.cpp ****     {
 415              		.loc 1 45 5
 416 02b4 638A0708 		beqz	a5,.L22
  47:src/thread.cpp ****         (*handle)->context.ra = (uint64) &threadWrapper;
 417              		.loc 1 47 9 is_stmt 1
  47:src/thread.cpp ****         (*handle)->context.ra = (uint64) &threadWrapper;
 418              		.loc 1 47 42 is_stmt 0
 419 02b8 B7860000 		li	a3,32768
 420 02bc B387D700 		add	a5,a5,a3
  47:src/thread.cpp ****         (*handle)->context.ra = (uint64) &threadWrapper;
 421              		.loc 1 47 31
 422 02c0 2330F702 		sd	a5,32(a4)
  48:src/thread.cpp ****     }
 423              		.loc 1 48 9 is_stmt 1
  48:src/thread.cpp ****     }
 424              		.loc 1 48 10 is_stmt 0
 425 02c4 83B70400 		ld	a5,0(s1)
  48:src/thread.cpp ****     }
 426              		.loc 1 48 31
 427 02c8 17070000 		lla	a4,_ZN7_thread13threadWrapperEv
 427      13070700 
 428 02d0 23BCE700 		sd	a4,24(a5)
 429              	.L23:
  57:src/thread.cpp ****         Scheduler::put(*handle);
 430              		.loc 1 57 5 is_stmt 1
  57:src/thread.cpp ****         Scheduler::put(*handle);
 431              		.loc 1 57 10 is_stmt 0
 432 02d4 03B50400 		ld	a0,0(s1)
 433              	.LVL30:
  57:src/thread.cpp ****         Scheduler::put(*handle);
 434              		.loc 1 57 20
 435 02d8 83370500 		ld	a5,0(a0)
  57:src/thread.cpp ****         Scheduler::put(*handle);
 436              		.loc 1 57 5
 437 02dc 63860700 		beqz	a5,.L24
  58:src/thread.cpp **** 
 438              		.loc 1 58 9 is_stmt 1
  58:src/thread.cpp **** 
 439              		.loc 1 58 23 is_stmt 0
 440 02e0 97000000 		call	_ZN9Scheduler3putEP7_thread@plt
 440      E7800000 
 441              	.LVL31:
 442              	.L24:
  66:src/thread.cpp ****     _thread::addLast(*handle);
 443              		.loc 1 66 5 is_stmt 1
  66:src/thread.cpp ****     _thread::addLast(*handle);
 444              		.loc 1 66 34 is_stmt 0
 445 02e8 17070000 		lla	a4,.LANCHOR0
GAS LISTING /tmp/ccQoliln.s 			page 14


 445      13070700 
 446 02f0 83278701 		lw	a5,24(a4)
 447 02f4 9B861700 		addiw	a3,a5,1
 448 02f8 232CD700 		sw	a3,24(a4)
  66:src/thread.cpp ****     _thread::addLast(*handle);
 449              		.loc 1 66 6
 450 02fc 03B70400 		ld	a4,0(s1)
  66:src/thread.cpp ****     _thread::addLast(*handle);
 451              		.loc 1 66 21
 452 0300 2326F704 		sw	a5,76(a4)
  67:src/thread.cpp **** 
 453              		.loc 1 67 5 is_stmt 1
  67:src/thread.cpp **** 
 454              		.loc 1 67 21 is_stmt 0
 455 0304 03B50400 		ld	a0,0(s1)
 456 0308 97000000 		call	_ZN7_thread7addLastEPS_
 456      E7800000 
 457              	.LVL32:
  69:src/thread.cpp **** 
 458              		.loc 1 69 5 is_stmt 1
  69:src/thread.cpp **** 
 459              		.loc 1 69 6 is_stmt 0
 460 0310 83B70400 		ld	a5,0(s1)
  69:src/thread.cpp **** 
 461              		.loc 1 69 26
 462 0314 23B80704 		sd	zero,80(a5)
  73:src/thread.cpp **** }
 463              		.loc 1 73 5 is_stmt 1
  73:src/thread.cpp **** }
 464              		.loc 1 73 12 is_stmt 0
 465 0318 13050000 		li	a0,0
 466              	.L19:
  74:src/thread.cpp **** 
 467              		.loc 1 74 1
 468 031c 83308102 		ld	ra,40(sp)
 469              		.cfi_remember_state
 470              		.cfi_restore 1
 471 0320 03340102 		ld	s0,32(sp)
 472              		.cfi_restore 8
 473              		.cfi_def_cfa 2, 48
 474 0324 83348101 		ld	s1,24(sp)
 475              		.cfi_restore 9
 476              	.LVL33:
 477 0328 03390101 		ld	s2,16(sp)
 478              		.cfi_restore 18
 479              	.LVL34:
 480 032c 83398100 		ld	s3,8(sp)
 481              		.cfi_restore 19
 482              	.LVL35:
 483 0330 033A0100 		ld	s4,0(sp)
 484              		.cfi_restore 20
 485              	.LVL36:
 486 0334 13010103 		addi	sp,sp,48
 487              		.cfi_def_cfa_offset 0
 488 0338 67800000 		jr	ra
 489              	.LVL37:
 490              	.L20:
GAS LISTING /tmp/ccQoliln.s 			page 15


 491              		.cfi_restore_state
  41:src/thread.cpp **** 
 492              		.loc 1 41 9 is_stmt 1
  41:src/thread.cpp **** 
 493              		.loc 1 41 10 is_stmt 0
 494 033c 83B70400 		ld	a5,0(s1)
  41:src/thread.cpp **** 
 495              		.loc 1 41 26
 496 0340 23B80700 		sd	zero,16(a5)
 497 0344 6FF09FF6 		j	.L21
 498              	.L22:
  54:src/thread.cpp ****     }
 499              		.loc 1 54 9 is_stmt 1
  54:src/thread.cpp ****     }
 500              		.loc 1 54 31 is_stmt 0
 501 0348 23300702 		sd	zero,32(a4)
 502 034c 6FF09FF8 		j	.L23
 503              	.L25:
  30:src/thread.cpp **** 
 504              		.loc 1 30 17
 505 0350 1305F0FF 		li	a0,-1
 506              	.LVL38:
 507 0354 6FF09FFC 		j	.L19
 508              	.LVL39:
 509              	.L26:
 510 0358 1305F0FF 		li	a0,-1
 511              	.LVL40:
 512 035c 6FF01FFC 		j	.L19
 513              		.cfi_endproc
 514              	.LFE25:
 516              		.align	2
 517              		.globl	_ZN7_thread10threadForkEv
 519              	_ZN7_thread10threadForkEv:
 520              	.LFB29:
 125:src/thread.cpp ****     size_t blockNum2 = MemoryAllocator::convert2Blocks(sizeof(_thread));
 521              		.loc 1 125 1 is_stmt 1
 522              		.cfi_startproc
 523 0360 130101FD 		addi	sp,sp,-48
 524              		.cfi_def_cfa_offset 48
 525 0364 23341102 		sd	ra,40(sp)
 526 0368 23308102 		sd	s0,32(sp)
 527 036c 233C9100 		sd	s1,24(sp)
 528              		.cfi_offset 1, -8
 529              		.cfi_offset 8, -16
 530              		.cfi_offset 9, -24
 531 0370 13040103 		addi	s0,sp,48
 532              		.cfi_def_cfa 8, 0
 126:src/thread.cpp ****     _thread* newHandle = (_thread *)(MemoryAllocator::mem_alloc(blockNum2));
 533              		.loc 1 126 5
 126:src/thread.cpp ****     _thread* newHandle = (_thread *)(MemoryAllocator::mem_alloc(blockNum2));
 534              		.loc 1 126 55 is_stmt 0
 535 0374 13050006 		li	a0,96
 536 0378 97000000 		call	_ZN15MemoryAllocator14convert2BlocksEm@plt
 536      E7800000 
 537              	.LVL41:
 127:src/thread.cpp **** 
 538              		.loc 1 127 5 is_stmt 1
GAS LISTING /tmp/ccQoliln.s 			page 16


 127:src/thread.cpp **** 
 539              		.loc 1 127 64 is_stmt 0
 540 0380 97000000 		call	_ZN15MemoryAllocator9mem_allocEm@plt
 540      E7800000 
 541              	.LVL42:
 127:src/thread.cpp **** 
 542              		.loc 1 127 75
 543 0388 233CA4FC 		sd	a0,-40(s0)
 129:src/thread.cpp ****     void* stack_space = MemoryAllocator::mem_alloc(blockNum);
 544              		.loc 1 129 5 is_stmt 1
 129:src/thread.cpp ****     void* stack_space = MemoryAllocator::mem_alloc(blockNum);
 545              		.loc 1 129 54 is_stmt 0
 546 038c 37850000 		li	a0,32768
 547 0390 97000000 		call	_ZN15MemoryAllocator14convert2BlocksEm@plt
 547      E7800000 
 548              	.LVL43:
 130:src/thread.cpp **** 
 549              		.loc 1 130 5 is_stmt 1
 130:src/thread.cpp **** 
 550              		.loc 1 130 51 is_stmt 0
 551 0398 97000000 		call	_ZN15MemoryAllocator9mem_allocEm@plt
 551      E7800000 
 552              	.LVL44:
 553 03a0 93060500 		mv	a3,a0
 554              	.LVL45:
 132:src/thread.cpp **** 
 555              		.loc 1 132 5 is_stmt 1
 132:src/thread.cpp **** 
 556              		.loc 1 132 17 is_stmt 0
 557 03a4 97040000 		lla	s1,.LANCHOR0
 557      93840400 
 558 03ac 83B70400 		ld	a5,0(s1)
 559 03b0 03B68702 		ld	a2,40(a5)
 560 03b4 83B50700 		ld	a1,0(a5)
 561 03b8 130584FD 		addi	a0,s0,-40
 562              	.LVL46:
 563 03bc 97000000 		call	_ZN7_thread12threadCreateEPPS_PFvPvES2_S2_
 563      E7800000 
 564              	.LVL47:
 137:src/thread.cpp ****     asm volatile("sd a0, %0" : "=m" (newHandle->context.ra));
 565              		.loc 1 137 5 is_stmt 1
 137:src/thread.cpp ****     asm volatile("sd a0, %0" : "=m" (newHandle->context.ra));
 566              		.loc 1 137 35 is_stmt 0
 567              	#APP
 568              	# 137 "src/thread.cpp" 1
 138:src/thread.cpp **** //    printString("\ncontext.ra = ");
 569              		csrr a0, sepc
 570              	# 0 "" 2
 571              		.loc 1 138 5 is_stmt 1
 138:src/thread.cpp **** //    printString("\ncontext.ra = ");
 572              		.loc 1 138 57 is_stmt 0
 573              	#NO_APP
 574 03c8 833784FD 		ld	a5,-40(s0)
 138:src/thread.cpp **** //    printString("\ncontext.ra = ");
 575              		.loc 1 138 61
 576              	#APP
 577              	# 138 "src/thread.cpp" 1
GAS LISTING /tmp/ccQoliln.s 			page 17


 143:src/thread.cpp ****     asm volatile("csrr %0, sscratch" : "=r" (SP));
 578              		sd a0, 24(a5)
 579              	# 0 "" 2
 580              		.loc 1 143 5 is_stmt 1
 144:src/thread.cpp **** //    newHandle->context.sp = (uint64)newHandle->stack + _thread::running->context.sp - (uint64)_th
 581              		.loc 1 144 5
 144:src/thread.cpp **** //    newHandle->context.sp = (uint64)newHandle->stack + _thread::running->context.sp - (uint64)_th
 582              		.loc 1 144 50 is_stmt 0
 583              	# 144 "src/thread.cpp" 1
 584              		csrr a4, sscratch
 585              	# 0 "" 2
 586              	#NO_APP
 587 03d4 2338E4FC 		sd	a4,-48(s0)
 160:src/thread.cpp ****     uint64* startAddrNew = newHandle->stack;
 588              		.loc 1 160 5 is_stmt 1
 160:src/thread.cpp ****     uint64* startAddrNew = newHandle->stack;
 589              		.loc 1 160 46 is_stmt 0
 590 03d8 03B70400 		ld	a4,0(s1)
 160:src/thread.cpp ****     uint64* startAddrNew = newHandle->stack;
 591              		.loc 1 160 13
 592 03dc 83350701 		ld	a1,16(a4)
 593              	.LVL48:
 161:src/thread.cpp **** 
 594              		.loc 1 161 5 is_stmt 1
 161:src/thread.cpp **** 
 595              		.loc 1 161 13 is_stmt 0
 596 03e0 03B60701 		ld	a2,16(a5)
 597              	.LVL49:
 163:src/thread.cpp ****     while (i < DEFAULT_STACK_SIZE)
 598              		.loc 1 163 5 is_stmt 1
 163:src/thread.cpp ****     while (i < DEFAULT_STACK_SIZE)
 599              		.loc 1 163 12 is_stmt 0
 600 03e4 13070000 		li	a4,0
 601              	.LVL50:
 602              	.L30:
 164:src/thread.cpp ****     {
 603              		.loc 1 164 5 is_stmt 1
 164:src/thread.cpp ****     {
 604              		.loc 1 164 14
 605 03e8 B7170000 		li	a5,4096
 606 03ec 6370F702 		bgeu	a4,a5,.L29
 166:src/thread.cpp ****         i++;
 607              		.loc 1 166 9
 166:src/thread.cpp ****         i++;
 608              		.loc 1 166 43 is_stmt 0
 609 03f0 93173700 		slli	a5,a4,3
 610 03f4 B386F500 		add	a3,a1,a5
 166:src/thread.cpp ****         i++;
 611              		.loc 1 166 23
 612 03f8 B307F600 		add	a5,a2,a5
 166:src/thread.cpp ****         i++;
 613              		.loc 1 166 29
 614 03fc 83B60600 		ld	a3,0(a3)
 166:src/thread.cpp ****         i++;
 615              		.loc 1 166 27
 616 0400 23B0D700 		sd	a3,0(a5)
 167:src/thread.cpp ****     }
GAS LISTING /tmp/ccQoliln.s 			page 18


 617              		.loc 1 167 9 is_stmt 1
 167:src/thread.cpp ****     }
 618              		.loc 1 167 10 is_stmt 0
 619 0404 13071700 		addi	a4,a4,1
 620              	.LVL51:
 164:src/thread.cpp ****     {
 621              		.loc 1 164 5
 622 0408 6FF01FFE 		j	.L30
 623              	.L29:
 171:src/thread.cpp ****     newHandle->forkRetVal = 0; // 0 - child
 624              		.loc 1 171 5 is_stmt 1
 171:src/thread.cpp ****     newHandle->forkRetVal = 0; // 0 - child
 625              		.loc 1 171 47 is_stmt 0
 626 040c 033584FD 		ld	a0,-40(s0)
 627 0410 0327C504 		lw	a4,76(a0)
 628              	.LVL52:
 171:src/thread.cpp ****     newHandle->forkRetVal = 0; // 0 - child
 629              		.loc 1 171 34
 630 0414 97070000 		ld	a5,.LANCHOR0
 630      83B70700 
 631 041c 23A4E704 		sw	a4,72(a5)
 172:src/thread.cpp **** 
 632              		.loc 1 172 5 is_stmt 1
 172:src/thread.cpp **** 
 633              		.loc 1 172 27 is_stmt 0
 634 0420 23240504 		sw	zero,72(a0)
 174:src/thread.cpp **** 
 635              		.loc 1 174 5 is_stmt 1
 174:src/thread.cpp **** 
 636              		.loc 1 174 19 is_stmt 0
 637 0424 97000000 		call	_ZN9Scheduler3putEP7_thread@plt
 637      E7800000 
 638              	.LVL53:
 182:src/thread.cpp **** 
 639              		.loc 1 182 1
 640 042c 83308102 		ld	ra,40(sp)
 641              		.cfi_restore 1
 642 0430 03340102 		ld	s0,32(sp)
 643              		.cfi_restore 8
 644              		.cfi_def_cfa 2, 48
 645 0434 83348101 		ld	s1,24(sp)
 646              		.cfi_restore 9
 647 0438 13010103 		addi	sp,sp,48
 648              		.cfi_def_cfa_offset 0
 649 043c 67800000 		jr	ra
 650              		.cfi_endproc
 651              	.LFE29:
 653              		.align	2
 654              		.globl	_ZN7_thread6searchEi
 656              	_ZN7_thread6searchEi:
 657              	.LFB32:
 217:src/thread.cpp **** 
 218:src/thread.cpp **** _thread *_thread::search(int searchId)
 219:src/thread.cpp **** {
 658              		.loc 1 219 1 is_stmt 1
 659              		.cfi_startproc
 660              	.LVL54:
GAS LISTING /tmp/ccQoliln.s 			page 19


 661 0440 130101FF 		addi	sp,sp,-16
 662              		.cfi_def_cfa_offset 16
 663 0444 23348100 		sd	s0,8(sp)
 664              		.cfi_offset 8, -8
 665 0448 13040101 		addi	s0,sp,16
 666              		.cfi_def_cfa 8, 0
 667 044c 93060500 		mv	a3,a0
 220:src/thread.cpp ****     Elem* temp = _thread::head;
 668              		.loc 1 220 5
 669              		.loc 1 220 11 is_stmt 0
 670 0450 17050000 		ld	a0,.LANCHOR0+16
 670      03350500 
 671              	.LVL55:
 672              	.L34:
 221:src/thread.cpp **** 
 222:src/thread.cpp ****     while(temp)
 673              		.loc 1 222 5 is_stmt 1
 674              		.loc 1 222 11
 675 0458 630E0500 		beqz	a0,.L32
 223:src/thread.cpp ****     {
 224:src/thread.cpp ****         if (temp->data->myId == searchId)
 676              		.loc 1 224 9
 677              		.loc 1 224 19 is_stmt 0
 678 045c 83370500 		ld	a5,0(a0)
 679              		.loc 1 224 25
 680 0460 03A7C704 		lw	a4,76(a5)
 681              		.loc 1 224 9
 682 0464 6306D700 		beq	a4,a3,.L35
 225:src/thread.cpp ****             return temp->data;
 226:src/thread.cpp **** 
 227:src/thread.cpp ****         temp = temp->next;
 683              		.loc 1 227 9 is_stmt 1
 684              		.loc 1 227 14 is_stmt 0
 685 0468 03358500 		ld	a0,8(a0)
 686              	.LVL56:
 222:src/thread.cpp ****     {
 687              		.loc 1 222 5
 688 046c 6FF0DFFE 		j	.L34
 689              	.L35:
 225:src/thread.cpp ****             return temp->data;
 690              		.loc 1 225 26
 691 0470 13850700 		mv	a0,a5
 692              	.LVL57:
 693              	.L32:
 228:src/thread.cpp ****     }
 229:src/thread.cpp **** 
 230:src/thread.cpp ****     return nullptr;
 231:src/thread.cpp **** }
 694              		.loc 1 231 1
 695 0474 03348100 		ld	s0,8(sp)
 696              		.cfi_restore 8
 697              		.cfi_def_cfa 2, 16
 698 0478 13010101 		addi	sp,sp,16
 699              		.cfi_def_cfa_offset 0
 700 047c 67800000 		jr	ra
 701              		.cfi_endproc
 702              	.LFE32:
GAS LISTING /tmp/ccQoliln.s 			page 20


 704              		.align	2
 705              		.globl	_ZN7_thread10threadKillEi
 707              	_ZN7_thread10threadKillEi:
 708              	.LFB33:
 232:src/thread.cpp **** 
 233:src/thread.cpp **** int _thread::threadKill(int threadId)
 234:src/thread.cpp **** {
 709              		.loc 1 234 1 is_stmt 1
 710              		.cfi_startproc
 711              	.LVL58:
 712 0480 130101FD 		addi	sp,sp,-48
 713              		.cfi_def_cfa_offset 48
 714 0484 23341102 		sd	ra,40(sp)
 715 0488 23308102 		sd	s0,32(sp)
 716 048c 233C9100 		sd	s1,24(sp)
 717 0490 23382101 		sd	s2,16(sp)
 718 0494 23343101 		sd	s3,8(sp)
 719 0498 23304101 		sd	s4,0(sp)
 720              		.cfi_offset 1, -8
 721              		.cfi_offset 8, -16
 722              		.cfi_offset 9, -24
 723              		.cfi_offset 18, -32
 724              		.cfi_offset 19, -40
 725              		.cfi_offset 20, -48
 726 049c 13040103 		addi	s0,sp,48
 727              		.cfi_def_cfa 8, 0
 728 04a0 93090500 		mv	s3,a0
 235:src/thread.cpp ****     // current thread kills its self
 236:src/thread.cpp ****     if (_thread::running->myId == threadId)
 729              		.loc 1 236 5
 730              		.loc 1 236 27 is_stmt 0
 731 04a4 97070000 		ld	a5,.LANCHOR0
 731      83B70700 
 732 04ac 03A7C704 		lw	a4,76(a5)
 733              		.loc 1 236 5
 734 04b0 630CA702 		beq	a4,a0,.L52
 735              	.LVL59:
 736              	.L38:
 237:src/thread.cpp ****     {
 238:src/thread.cpp ****         _thread::running->finished = true;
 239:src/thread.cpp ****         _thread::threadDispatch();
 240:src/thread.cpp ****     }
 241:src/thread.cpp **** 
 242:src/thread.cpp ****     _thread* targetThread = search(threadId);
 737              		.loc 1 242 5 is_stmt 1
 738              		.loc 1 242 35 is_stmt 0
 739 04b4 13850900 		mv	a0,s3
 740 04b8 97000000 		call	_ZN7_thread6searchEi
 740      E7800000 
 741              	.LVL60:
 742 04c0 13090500 		mv	s2,a0
 743              	.LVL61:
 243:src/thread.cpp **** 
 244:src/thread.cpp ****     // thread with that id doesn't exist
 245:src/thread.cpp ****     if (targetThread == nullptr)
 744              		.loc 1 245 5 is_stmt 1
 745 04c4 6302050E 		beqz	a0,.L48
GAS LISTING /tmp/ccQoliln.s 			page 21


 246:src/thread.cpp ****         return -1;
 247:src/thread.cpp **** 
 248:src/thread.cpp ****     // thread already finished
 249:src/thread.cpp ****     if (targetThread->finished)
 746              		.loc 1 249 5
 747              		.loc 1 249 23 is_stmt 0
 748 04c8 83479500 		lbu	a5,9(a0)
 749              		.loc 1 249 5
 750 04cc 6392070E 		bnez	a5,.L49
 250:src/thread.cpp ****         return -2;
 251:src/thread.cpp **** 
 252:src/thread.cpp ****     // thread blocked on semaphore
 253:src/thread.cpp ****     if (targetThread->blockedOn != nullptr)
 751              		.loc 1 253 5 is_stmt 1
 752              	.LBB2:
 753              		.loc 1 253 23 is_stmt 0
 754 04d0 83370505 		ld	a5,80(a0)
 755              		.loc 1 253 5
 756 04d4 638A0708 		beqz	a5,.L40
 757              	.LBB3:
 254:src/thread.cpp ****     {
 255:src/thread.cpp ****         // sem val is -3 --> 3 threads waiting
 256:src/thread.cpp ****         int numThreads = 0 - targetThread->blockedOn->val;
 758              		.loc 1 256 9 is_stmt 1
 759              		.loc 1 256 55 is_stmt 0
 760 04d8 03AA0701 		lw	s4,16(a5)
 761              		.loc 1 256 13
 762 04dc 3B0A4041 		negw	s4,s4
 763              	.LVL62:
 257:src/thread.cpp **** 
 258:src/thread.cpp ****         // ne zovemo direktno semafor signal i wait da ne bi nit izgubila procesor
 259:src/thread.cpp ****         // i promenila kontekst -> zato moramo rucno da inkrementiramo semafor val
 260:src/thread.cpp ****         for (int i = 0; i < numThreads; i++)
 764              		.loc 1 260 9 is_stmt 1
 765              	.LBB4:
 766              		.loc 1 260 18 is_stmt 0
 767 04e0 93040000 		li	s1,0
 768 04e4 6F00C002 		j	.L44
 769              	.LVL63:
 770              	.L52:
 771              	.LBE4:
 772              	.LBE3:
 773              	.LBE2:
 238:src/thread.cpp ****         _thread::threadDispatch();
 774              		.loc 1 238 9 is_stmt 1
 238:src/thread.cpp ****         _thread::threadDispatch();
 775              		.loc 1 238 36 is_stmt 0
 776 04e8 13071000 		li	a4,1
 777 04ec A384E700 		sb	a4,9(a5)
 239:src/thread.cpp ****     }
 778              		.loc 1 239 9 is_stmt 1
 239:src/thread.cpp ****     }
 779              		.loc 1 239 32 is_stmt 0
 780 04f0 97000000 		call	_ZN7_thread14threadDispatchEv
 780      E7800000 
 781              	.LVL64:
 782 04f8 6FF0DFFB 		j	.L38
GAS LISTING /tmp/ccQoliln.s 			page 22


 783              	.LVL65:
 784              	.L42:
 785              	.LBB13:
 786              	.LBB8:
 787              	.LBB7:
 788              	.LBB5:
 261:src/thread.cpp ****         {
 262:src/thread.cpp ****             _thread* curr = targetThread->blockedOn->removeFirst();
 263:src/thread.cpp ****             if(curr->myId == threadId)
 264:src/thread.cpp ****                 curr->finished = true;
 265:src/thread.cpp ****             else
 266:src/thread.cpp ****                 targetThread->blockedOn->addLast(curr);
 789              		.loc 1 266 17 is_stmt 1
 790              		.loc 1 266 49 is_stmt 0
 791 04fc 93050500 		mv	a1,a0
 792 0500 03350905 		ld	a0,80(s2)
 793              	.LVL66:
 794 0504 97000000 		call	_ZN4_sem7addLastEP7_thread@plt
 794      E7800000 
 795              	.LVL67:
 796              	.L43:
 797              	.LBE5:
 260:src/thread.cpp ****         {
 798              		.loc 1 260 9 is_stmt 1 discriminator 2
 799 050c 9B841400 		addiw	s1,s1,1
 800              	.LVL68:
 801              	.L44:
 260:src/thread.cpp ****         {
 802              		.loc 1 260 27 discriminator 1
 803 0510 63D24403 		bge	s1,s4,.L41
 804              	.LBB6:
 262:src/thread.cpp ****             if(curr->myId == threadId)
 805              		.loc 1 262 13
 262:src/thread.cpp ****             if(curr->myId == threadId)
 806              		.loc 1 262 65 is_stmt 0
 807 0514 03350905 		ld	a0,80(s2)
 808 0518 97000000 		call	_ZN4_sem11removeFirstEv@plt
 808      E7800000 
 809              	.LVL69:
 263:src/thread.cpp ****                 curr->finished = true;
 810              		.loc 1 263 13 is_stmt 1
 263:src/thread.cpp ****                 curr->finished = true;
 811              		.loc 1 263 22 is_stmt 0
 812 0520 8327C504 		lw	a5,76(a0)
 263:src/thread.cpp ****                 curr->finished = true;
 813              		.loc 1 263 13
 814 0524 E39C37FD 		bne	a5,s3,.L42
 264:src/thread.cpp ****             else
 815              		.loc 1 264 17 is_stmt 1
 264:src/thread.cpp ****             else
 816              		.loc 1 264 32 is_stmt 0
 817 0528 93071000 		li	a5,1
 818 052c A304F500 		sb	a5,9(a0)
 819 0530 6FF0DFFD 		j	.L43
 820              	.LVL70:
 821              	.L41:
 822              	.LBE6:
GAS LISTING /tmp/ccQoliln.s 			page 23


 823              	.LBE7:
 267:src/thread.cpp ****         }
 268:src/thread.cpp ****         // target thread is removed so we increment val by 1
 269:src/thread.cpp ****         targetThread->blockedOn->val++;
 824              		.loc 1 269 9 is_stmt 1
 825              		.loc 1 269 23 is_stmt 0
 826 0534 03370905 		ld	a4,80(s2)
 827              		.loc 1 269 34
 828 0538 83270701 		lw	a5,16(a4)
 829              		.loc 1 269 37
 830 053c 9B871700 		addiw	a5,a5,1
 831 0540 2328F700 		sw	a5,16(a4)
 270:src/thread.cpp ****         return 0;
 832              		.loc 1 270 9 is_stmt 1
 833              		.loc 1 270 16 is_stmt 0
 834 0544 13050000 		li	a0,0
 835              	.LVL71:
 836              	.L39:
 837              	.LBE8:
 838              	.LBE13:
 271:src/thread.cpp ****     }
 272:src/thread.cpp ****     // thread is in scheduler
 273:src/thread.cpp ****     else
 274:src/thread.cpp ****     {
 275:src/thread.cpp ****         int threadNumber = Scheduler::threadNum;
 276:src/thread.cpp **** 
 277:src/thread.cpp ****         for (int i = 0; i < threadNumber; i++)
 278:src/thread.cpp ****         {
 279:src/thread.cpp ****             _thread* curr = Scheduler::get();
 280:src/thread.cpp ****             if (curr->myId == threadId)
 281:src/thread.cpp ****                 curr->finished = true;
 282:src/thread.cpp ****             else
 283:src/thread.cpp ****                 Scheduler::put(curr);
 284:src/thread.cpp ****         }
 285:src/thread.cpp ****     }
 286:src/thread.cpp **** 
 287:src/thread.cpp ****     // dealloc the targetThread
 288:src/thread.cpp **** 
 289:src/thread.cpp **** 
 290:src/thread.cpp ****     // error
 291:src/thread.cpp ****     return 0;
 292:src/thread.cpp **** }
 839              		.loc 1 292 1
 840 0548 83308102 		ld	ra,40(sp)
 841              		.cfi_remember_state
 842              		.cfi_restore 1
 843 054c 03340102 		ld	s0,32(sp)
 844              		.cfi_restore 8
 845              		.cfi_def_cfa 2, 48
 846 0550 83348101 		ld	s1,24(sp)
 847              		.cfi_restore 9
 848 0554 03390101 		ld	s2,16(sp)
 849              		.cfi_restore 18
 850 0558 83398100 		ld	s3,8(sp)
 851              		.cfi_restore 19
 852 055c 033A0100 		ld	s4,0(sp)
 853              		.cfi_restore 20
GAS LISTING /tmp/ccQoliln.s 			page 24


 854 0560 13010103 		addi	sp,sp,48
 855              		.cfi_def_cfa_offset 0
 856 0564 67800000 		jr	ra
 857              	.LVL72:
 858              	.L40:
 859              		.cfi_restore_state
 860              	.LBB14:
 861              	.LBB9:
 275:src/thread.cpp **** 
 862              		.loc 1 275 9 is_stmt 1
 275:src/thread.cpp **** 
 863              		.loc 1 275 13 is_stmt 0
 864 0568 97070000 		la	a5,_ZN9Scheduler9threadNumE
 864      83B70700 
 865 0570 03A90700 		lw	s2,0(a5)
 866              	.LVL73:
 277:src/thread.cpp ****         {
 867              		.loc 1 277 9 is_stmt 1
 868              	.LBB10:
 277:src/thread.cpp ****         {
 869              		.loc 1 277 18 is_stmt 0
 870 0574 93040000 		li	s1,0
 871 0578 6F000001 		j	.L47
 872              	.LVL74:
 873              	.L45:
 874              	.LBB11:
 283:src/thread.cpp ****         }
 875              		.loc 1 283 17 is_stmt 1
 283:src/thread.cpp ****         }
 876              		.loc 1 283 31 is_stmt 0
 877 057c 97000000 		call	_ZN9Scheduler3putEP7_thread@plt
 877      E7800000 
 878              	.LVL75:
 879              	.L46:
 880              	.LBE11:
 277:src/thread.cpp ****         {
 881              		.loc 1 277 9 is_stmt 1 discriminator 2
 882 0584 9B841400 		addiw	s1,s1,1
 883              	.LVL76:
 884              	.L47:
 277:src/thread.cpp ****         {
 885              		.loc 1 277 27 discriminator 1
 886 0588 63D82403 		bge	s1,s2,.L50
 887              	.LBB12:
 279:src/thread.cpp ****             if (curr->myId == threadId)
 888              		.loc 1 279 13
 279:src/thread.cpp ****             if (curr->myId == threadId)
 889              		.loc 1 279 43 is_stmt 0
 890 058c 97000000 		call	_ZN9Scheduler3getEv@plt
 890      E7800000 
 891              	.LVL77:
 280:src/thread.cpp ****                 curr->finished = true;
 892              		.loc 1 280 13 is_stmt 1
 280:src/thread.cpp ****                 curr->finished = true;
 893              		.loc 1 280 23 is_stmt 0
 894 0594 8327C504 		lw	a5,76(a0)
 280:src/thread.cpp ****                 curr->finished = true;
GAS LISTING /tmp/ccQoliln.s 			page 25


 895              		.loc 1 280 13
 896 0598 E39237FF 		bne	a5,s3,.L45
 281:src/thread.cpp ****             else
 897              		.loc 1 281 17 is_stmt 1
 281:src/thread.cpp ****             else
 898              		.loc 1 281 32 is_stmt 0
 899 059c 93071000 		li	a5,1
 900 05a0 A304F500 		sb	a5,9(a0)
 901 05a4 6FF01FFE 		j	.L46
 902              	.LVL78:
 903              	.L48:
 904              	.LBE12:
 905              	.LBE10:
 906              	.LBE9:
 907              	.LBE14:
 246:src/thread.cpp **** 
 908              		.loc 1 246 17
 909 05a8 1305F0FF 		li	a0,-1
 910              	.LVL79:
 911 05ac 6FF0DFF9 		j	.L39
 912              	.LVL80:
 913              	.L49:
 250:src/thread.cpp **** 
 914              		.loc 1 250 17
 915 05b0 1305E0FF 		li	a0,-2
 916              	.LVL81:
 917 05b4 6FF05FF9 		j	.L39
 918              	.LVL82:
 919              	.L50:
 291:src/thread.cpp **** }
 920              		.loc 1 291 12
 921 05b8 13050000 		li	a0,0
 922 05bc 6FF0DFF8 		j	.L39
 923              		.cfi_endproc
 924              	.LFE33:
 926              		.globl	_ZN7_thread4tailE
 927              		.globl	_ZN7_thread4headE
 928              		.globl	_ZN7_thread2idE
 929              		.globl	_ZN7_thread7runningE
 930              		.bss
 931              		.align	3
 932              		.set	.LANCHOR0,. + 0
 935              	_ZN7_thread7runningE:
 936 0000 00000000 		.zero	8
 936      00000000 
 939              	_ZN7_thread4tailE:
 940 0008 00000000 		.zero	8
 940      00000000 
 943              	_ZN7_thread4headE:
 944 0010 00000000 		.zero	8
 944      00000000 
 947              	_ZN7_thread2idE:
 948 0018 00000000 		.zero	4
 949              		.text
 950              	.Letext0:
 951              		.file 2 "src/../h/../lib/hw.h"
 952              		.file 3 "src/../h/riscv.hpp"
GAS LISTING /tmp/ccQoliln.s 			page 26


 953              		.file 4 "src/../h/thread.hpp"
 954              		.file 5 "src/../h/../test/../h/../h/sem.hpp"
 955              		.file 6 "src/../h/MemoryAllocator.hpp"
 956              		.file 7 "src/../h/scheduler.hpp"
 957              		.file 8 "src/../h/../test/../h/syscall_c.hpp"
GAS LISTING /tmp/ccQoliln.s 			page 27


DEFINED SYMBOLS
                            *ABS*:0000000000000000 thread.cpp
     /tmp/ccQoliln.s:9      .text:0000000000000000 _ZN7_thread13threadWrapperEv
     /tmp/ccQoliln.s:13     .text:0000000000000000 .L0 
     /tmp/ccQoliln.s:14     .text:0000000000000000 .L0 
     /tmp/ccQoliln.s:15     .text:0000000000000004 .L0 
     /tmp/ccQoliln.s:18     .text:000000000000000c .L0 
     /tmp/ccQoliln.s:19     .text:000000000000000c .L0 
     /tmp/ccQoliln.s:21     .text:0000000000000010 .L0 
     /tmp/ccQoliln.s:23     .text:0000000000000010 .L0 
     /tmp/ccQoliln.s:24     .text:0000000000000010 .L0 
     /tmp/ccQoliln.s:27     .text:0000000000000018 .L0 
     /tmp/ccQoliln.s:28     .text:0000000000000018 .L0 
     /tmp/ccQoliln.s:31     .text:0000000000000024 .L0 
     /tmp/ccQoliln.s:35     .text:000000000000002c .L0 
     /tmp/ccQoliln.s:36     .text:000000000000002c .L0 
     /tmp/ccQoliln.s:39     .text:0000000000000034 .L0 
     /tmp/ccQoliln.s:40     .text:0000000000000038 .L0 
     /tmp/ccQoliln.s:42     .text:000000000000003c .L0 
     /tmp/ccQoliln.s:43     .text:000000000000003c .L0 
     /tmp/ccQoliln.s:45     .text:0000000000000040 .L0 
     /tmp/ccQoliln.s:47     .text:0000000000000044 .L0 
     /tmp/ccQoliln.s:53     .text:0000000000000044 _ZN7_thread17threadWrapperExecEv
     /tmp/ccQoliln.s:56     .text:0000000000000044 .L0 
     /tmp/ccQoliln.s:57     .text:0000000000000044 .L0 
     /tmp/ccQoliln.s:58     .text:0000000000000048 .L0 
     /tmp/ccQoliln.s:61     .text:0000000000000050 .L0 
     /tmp/ccQoliln.s:62     .text:0000000000000050 .L0 
     /tmp/ccQoliln.s:64     .text:0000000000000054 .L0 
     /tmp/ccQoliln.s:66     .text:0000000000000054 .L0 
     /tmp/ccQoliln.s:67     .text:0000000000000054 .L0 
     /tmp/ccQoliln.s:70     .text:0000000000000060 .L0 
     /tmp/ccQoliln.s:74     .text:0000000000000068 .L0 
     /tmp/ccQoliln.s:75     .text:0000000000000068 .L0 
     /tmp/ccQoliln.s:78     .text:0000000000000070 .L0 
     /tmp/ccQoliln.s:79     .text:0000000000000074 .L0 
     /tmp/ccQoliln.s:81     .text:0000000000000078 .L0 
     /tmp/ccQoliln.s:82     .text:0000000000000078 .L0 
     /tmp/ccQoliln.s:84     .text:000000000000007c .L0 
     /tmp/ccQoliln.s:86     .text:0000000000000080 .L0 
     /tmp/ccQoliln.s:92     .text:0000000000000080 _ZN7_thread14threadDispatchEv
     /tmp/ccQoliln.s:95     .text:0000000000000080 .L0 
     /tmp/ccQoliln.s:96     .text:0000000000000080 .L0 
     /tmp/ccQoliln.s:97     .text:0000000000000084 .L0 
     /tmp/ccQoliln.s:101    .text:0000000000000090 .L0 
     /tmp/ccQoliln.s:102    .text:0000000000000090 .L0 
     /tmp/ccQoliln.s:103    .text:0000000000000090 .L0 
     /tmp/ccQoliln.s:105    .text:0000000000000094 .L0 
     /tmp/ccQoliln.s:107    .text:0000000000000094 .L0 
     /tmp/ccQoliln.s:108    .text:0000000000000094 .L0 
     /tmp/ccQoliln.s:111    .text:000000000000009c .L0 
     /tmp/ccQoliln.s:112    .text:000000000000009c .L0 
     /tmp/ccQoliln.s:114    .text:00000000000000a0 .L0 
     /tmp/ccQoliln.s:116    .text:00000000000000a4 .L0 
     /tmp/ccQoliln.s:117    .text:00000000000000a4 .L0 
     /tmp/ccQoliln.s:121    .text:00000000000000b0 .L0 
     /tmp/ccQoliln.s:122    .text:00000000000000b0 .L0 
GAS LISTING /tmp/ccQoliln.s 			page 28


     /tmp/ccQoliln.s:125    .text:00000000000000b8 .L0 
     /tmp/ccQoliln.s:127    .text:00000000000000c0 .L0 
     /tmp/ccQoliln.s:129    .text:00000000000000c4 .L0 
     /tmp/ccQoliln.s:130    .text:00000000000000c4 .L0 
     /tmp/ccQoliln.s:136    .text:00000000000000d4 .L0 
     /tmp/ccQoliln.s:137    .text:00000000000000d8 .L0 
     /tmp/ccQoliln.s:138    .text:00000000000000d8 .L0 
     /tmp/ccQoliln.s:140    .text:00000000000000dc .L0 
     /tmp/ccQoliln.s:141    .text:00000000000000dc .L0 
     /tmp/ccQoliln.s:143    .text:00000000000000e0 .L0 
     /tmp/ccQoliln.s:146    .text:00000000000000e4 .L0 
     /tmp/ccQoliln.s:150    .text:00000000000000e8 .L0 
     /tmp/ccQoliln.s:152    .text:00000000000000e8 .L0 
     /tmp/ccQoliln.s:153    .text:00000000000000e8 .L0 
     /tmp/ccQoliln.s:157    .text:00000000000000f4 .L0 
     /tmp/ccQoliln.s:158    .text:00000000000000f4 .L0 
     /tmp/ccQoliln.s:162    .text:0000000000000100 .L0 
     /tmp/ccQoliln.s:163    .text:0000000000000100 .L0 
     /tmp/ccQoliln.s:166    .text:0000000000000108 .L0 
     /tmp/ccQoliln.s:168    .text:0000000000000110 .L0 
     /tmp/ccQoliln.s:170    .text:0000000000000114 .L0 
     /tmp/ccQoliln.s:171    .text:0000000000000114 .L0 
     /tmp/ccQoliln.s:175    .text:0000000000000120 .L0 
     /tmp/ccQoliln.s:176    .text:0000000000000124 .L0 
     /tmp/ccQoliln.s:182    .text:0000000000000124 _ZN7_thread10threadExecEv
     /tmp/ccQoliln.s:185    .text:0000000000000124 .L0 
     /tmp/ccQoliln.s:186    .text:0000000000000124 .L0 
     /tmp/ccQoliln.s:187    .text:0000000000000128 .L0 
     /tmp/ccQoliln.s:192    .text:0000000000000138 .L0 
     /tmp/ccQoliln.s:193    .text:0000000000000138 .L0 
     /tmp/ccQoliln.s:194    .text:0000000000000138 .L0 
     /tmp/ccQoliln.s:195    .text:0000000000000138 .L0 
     /tmp/ccQoliln.s:197    .text:000000000000013c .L0 
     /tmp/ccQoliln.s:199    .text:000000000000013c .L0 
     /tmp/ccQoliln.s:200    .text:000000000000013c .L0 
     /tmp/ccQoliln.s:206    .text:0000000000000154 .L0 
     /tmp/ccQoliln.s:207    .text:0000000000000154 .L0 
     /tmp/ccQoliln.s:211    .text:0000000000000160 .L0 
     /tmp/ccQoliln.s:212    .text:0000000000000160 .L0 
     /tmp/ccQoliln.s:214    .text:0000000000000164 .L0 
     /tmp/ccQoliln.s:217    .text:000000000000016c .L0 
     /tmp/ccQoliln.s:219    .text:0000000000000170 .L0 
     /tmp/ccQoliln.s:220    .text:0000000000000170 .L0 
     /tmp/ccQoliln.s:223    .text:0000000000000178 .L0 
     /tmp/ccQoliln.s:226    .text:0000000000000180 .L0 
     /tmp/ccQoliln.s:228    .text:0000000000000184 .L0 
     /tmp/ccQoliln.s:229    .text:0000000000000188 .L0 
     /tmp/ccQoliln.s:231    .text:000000000000018c .L0 
     /tmp/ccQoliln.s:232    .text:000000000000018c .L0 
     /tmp/ccQoliln.s:234    .text:0000000000000190 .L0 
     /tmp/ccQoliln.s:236    .text:0000000000000194 .L0 
     /tmp/ccQoliln.s:238    .text:0000000000000198 .L0 
     /tmp/ccQoliln.s:240    .text:000000000000019c .L0 
     /tmp/ccQoliln.s:246    .text:000000000000019c _ZN7_thread7addLastEPS_
     /tmp/ccQoliln.s:249    .text:000000000000019c .L0 
     /tmp/ccQoliln.s:251    .text:000000000000019c .L0 
     /tmp/ccQoliln.s:252    .text:000000000000019c .L0 
GAS LISTING /tmp/ccQoliln.s 			page 29


     /tmp/ccQoliln.s:254    .text:00000000000001a0 .L0 
     /tmp/ccQoliln.s:255    .text:00000000000001a4 .L0 
     /tmp/ccQoliln.s:259    .text:00000000000001b0 .L0 
     /tmp/ccQoliln.s:260    .text:00000000000001b0 .L0 
     /tmp/ccQoliln.s:261    .text:00000000000001b0 .L0 
     /tmp/ccQoliln.s:263    .text:00000000000001b4 .L0 
     /tmp/ccQoliln.s:266    .text:00000000000001b8 .L0 
     /tmp/ccQoliln.s:267    .text:00000000000001b8 .L0 
     /tmp/ccQoliln.s:272    .text:00000000000001c4 .L0 
     /tmp/ccQoliln.s:273    .text:00000000000001c4 .L0 
     /tmp/ccQoliln.s:276    .text:00000000000001cc .L0 
     /tmp/ccQoliln.s:277    .text:00000000000001cc .L0 
     /tmp/ccQoliln.s:279    .text:00000000000001d0 .L0 
     /tmp/ccQoliln.s:280    .text:00000000000001d0 .L0 
     /tmp/ccQoliln.s:282    .text:00000000000001d4 .L0 
     /tmp/ccQoliln.s:283    .text:00000000000001d4 .L0 
     /tmp/ccQoliln.s:285    .text:00000000000001dc .L0 
     /tmp/ccQoliln.s:287    .text:00000000000001e0 .L0 
     /tmp/ccQoliln.s:288    .text:00000000000001e0 .L0 
     /tmp/ccQoliln.s:290    .text:00000000000001e4 .L0 
     /tmp/ccQoliln.s:291    .text:00000000000001e4 .L0 
     /tmp/ccQoliln.s:294    .text:00000000000001ec .L0 
     /tmp/ccQoliln.s:295    .text:00000000000001f0 .L0 
     /tmp/ccQoliln.s:296    .text:00000000000001f0 .L0 
     /tmp/ccQoliln.s:298    .text:00000000000001f4 .L0 
     /tmp/ccQoliln.s:299    .text:00000000000001f4 .L0 
     /tmp/ccQoliln.s:301    .text:00000000000001f8 .L0 
     /tmp/ccQoliln.s:304    .text:00000000000001fc .L0 
     /tmp/ccQoliln.s:308    .text:0000000000000200 .L0 
     /tmp/ccQoliln.s:310    .text:0000000000000200 .L0 
     /tmp/ccQoliln.s:311    .text:0000000000000200 .L0 
     /tmp/ccQoliln.s:314    .text:000000000000020c .L0 
     /tmp/ccQoliln.s:318    .text:0000000000000214 .L0 
     /tmp/ccQoliln.s:319    .text:0000000000000214 .L0 
     /tmp/ccQoliln.s:320    .text:0000000000000214 .L0 
     /tmp/ccQoliln.s:321    .text:0000000000000214 .L0 
     /tmp/ccQoliln.s:323    .text:0000000000000218 .L0 
     /tmp/ccQoliln.s:329    .text:0000000000000218 _ZN7_thread12threadCreateEPPS_PFvPvES2_S2_
     /tmp/ccQoliln.s:332    .text:0000000000000218 .L0 
     /tmp/ccQoliln.s:334    .text:0000000000000218 .L0 
     /tmp/ccQoliln.s:335    .text:000000000000021c .L0 
     /tmp/ccQoliln.s:342    .text:0000000000000234 .L0 
     /tmp/ccQoliln.s:343    .text:0000000000000234 .L0 
     /tmp/ccQoliln.s:344    .text:0000000000000234 .L0 
     /tmp/ccQoliln.s:345    .text:0000000000000234 .L0 
     /tmp/ccQoliln.s:346    .text:0000000000000234 .L0 
     /tmp/ccQoliln.s:347    .text:0000000000000234 .L0 
     /tmp/ccQoliln.s:349    .text:0000000000000238 .L0 
     /tmp/ccQoliln.s:355    .text:0000000000000248 .L0 
     /tmp/ccQoliln.s:356    .text:0000000000000248 .L0 
     /tmp/ccQoliln.s:361    .text:0000000000000254 .L0 
     /tmp/ccQoliln.s:362    .text:0000000000000254 .L0 
     /tmp/ccQoliln.s:365    .text:000000000000025c .L0 
     /tmp/ccQoliln.s:367    .text:0000000000000260 .L0 
     /tmp/ccQoliln.s:368    .text:0000000000000260 .L0 
     /tmp/ccQoliln.s:373    .text:0000000000000270 .L0 
     /tmp/ccQoliln.s:374    .text:0000000000000270 .L0 
GAS LISTING /tmp/ccQoliln.s 			page 30


     /tmp/ccQoliln.s:376    .text:0000000000000274 .L0 
     /tmp/ccQoliln.s:378    .text:0000000000000278 .L0 
     /tmp/ccQoliln.s:380    .text:000000000000027c .L0 
     /tmp/ccQoliln.s:381    .text:000000000000027c .L0 
     /tmp/ccQoliln.s:383    .text:0000000000000280 .L0 
     /tmp/ccQoliln.s:384    .text:0000000000000280 .L0 
     /tmp/ccQoliln.s:386    .text:0000000000000284 .L0 
     /tmp/ccQoliln.s:388    .text:0000000000000288 .L0 
     /tmp/ccQoliln.s:389    .text:0000000000000288 .L0 
     /tmp/ccQoliln.s:391    .text:000000000000028c .L0 
     /tmp/ccQoliln.s:393    .text:0000000000000290 .L0 
     /tmp/ccQoliln.s:394    .text:0000000000000290 .L0 
     /tmp/ccQoliln.s:396    .text:0000000000000294 .L0 
     /tmp/ccQoliln.s:398    .text:0000000000000298 .L0 
     /tmp/ccQoliln.s:399    .text:0000000000000298 .L0 
     /tmp/ccQoliln.s:401    .text:000000000000029c .L0 
     /tmp/ccQoliln.s:403    .text:00000000000002a0 .L0 
     /tmp/ccQoliln.s:405    .text:00000000000002a4 .L0 
     /tmp/ccQoliln.s:406    .text:00000000000002a4 .L0 
     /tmp/ccQoliln.s:408    .text:00000000000002a8 .L0 
     /tmp/ccQoliln.s:411    .text:00000000000002ac .L0 
     /tmp/ccQoliln.s:412    .text:00000000000002ac .L0 
     /tmp/ccQoliln.s:414    .text:00000000000002b0 .L0 
     /tmp/ccQoliln.s:416    .text:00000000000002b4 .L0 
     /tmp/ccQoliln.s:418    .text:00000000000002b8 .L0 
     /tmp/ccQoliln.s:419    .text:00000000000002b8 .L0 
     /tmp/ccQoliln.s:422    .text:00000000000002c0 .L0 
     /tmp/ccQoliln.s:424    .text:00000000000002c4 .L0 
     /tmp/ccQoliln.s:425    .text:00000000000002c4 .L0 
     /tmp/ccQoliln.s:427    .text:00000000000002c8 .L0 
     /tmp/ccQoliln.s:431    .text:00000000000002d4 .L0 
     /tmp/ccQoliln.s:432    .text:00000000000002d4 .L0 
     /tmp/ccQoliln.s:435    .text:00000000000002d8 .L0 
     /tmp/ccQoliln.s:437    .text:00000000000002dc .L0 
     /tmp/ccQoliln.s:439    .text:00000000000002e0 .L0 
     /tmp/ccQoliln.s:440    .text:00000000000002e0 .L0 
     /tmp/ccQoliln.s:444    .text:00000000000002e8 .L0 
     /tmp/ccQoliln.s:445    .text:00000000000002e8 .L0 
     /tmp/ccQoliln.s:450    .text:00000000000002fc .L0 
     /tmp/ccQoliln.s:452    .text:0000000000000300 .L0 
     /tmp/ccQoliln.s:454    .text:0000000000000304 .L0 
     /tmp/ccQoliln.s:455    .text:0000000000000304 .L0 
     /tmp/ccQoliln.s:459    .text:0000000000000310 .L0 
     /tmp/ccQoliln.s:460    .text:0000000000000310 .L0 
     /tmp/ccQoliln.s:462    .text:0000000000000314 .L0 
     /tmp/ccQoliln.s:464    .text:0000000000000318 .L0 
     /tmp/ccQoliln.s:465    .text:0000000000000318 .L0 
     /tmp/ccQoliln.s:468    .text:000000000000031c .L0 
     /tmp/ccQoliln.s:469    .text:0000000000000320 .L0 
     /tmp/ccQoliln.s:470    .text:0000000000000320 .L0 
     /tmp/ccQoliln.s:472    .text:0000000000000324 .L0 
     /tmp/ccQoliln.s:473    .text:0000000000000324 .L0 
     /tmp/ccQoliln.s:475    .text:0000000000000328 .L0 
     /tmp/ccQoliln.s:478    .text:000000000000032c .L0 
     /tmp/ccQoliln.s:481    .text:0000000000000330 .L0 
     /tmp/ccQoliln.s:484    .text:0000000000000334 .L0 
     /tmp/ccQoliln.s:487    .text:0000000000000338 .L0 
GAS LISTING /tmp/ccQoliln.s 			page 31


     /tmp/ccQoliln.s:491    .text:000000000000033c .L0 
     /tmp/ccQoliln.s:493    .text:000000000000033c .L0 
     /tmp/ccQoliln.s:494    .text:000000000000033c .L0 
     /tmp/ccQoliln.s:496    .text:0000000000000340 .L0 
     /tmp/ccQoliln.s:500    .text:0000000000000348 .L0 
     /tmp/ccQoliln.s:501    .text:0000000000000348 .L0 
     /tmp/ccQoliln.s:505    .text:0000000000000350 .L0 
     /tmp/ccQoliln.s:513    .text:0000000000000360 .L0 
     /tmp/ccQoliln.s:519    .text:0000000000000360 _ZN7_thread10threadForkEv
     /tmp/ccQoliln.s:522    .text:0000000000000360 .L0 
     /tmp/ccQoliln.s:523    .text:0000000000000360 .L0 
     /tmp/ccQoliln.s:524    .text:0000000000000364 .L0 
     /tmp/ccQoliln.s:528    .text:0000000000000370 .L0 
     /tmp/ccQoliln.s:529    .text:0000000000000370 .L0 
     /tmp/ccQoliln.s:530    .text:0000000000000370 .L0 
     /tmp/ccQoliln.s:532    .text:0000000000000374 .L0 
     /tmp/ccQoliln.s:534    .text:0000000000000374 .L0 
     /tmp/ccQoliln.s:535    .text:0000000000000374 .L0 
     /tmp/ccQoliln.s:539    .text:0000000000000380 .L0 
     /tmp/ccQoliln.s:540    .text:0000000000000380 .L0 
     /tmp/ccQoliln.s:543    .text:0000000000000388 .L0 
     /tmp/ccQoliln.s:545    .text:000000000000038c .L0 
     /tmp/ccQoliln.s:546    .text:000000000000038c .L0 
     /tmp/ccQoliln.s:550    .text:0000000000000398 .L0 
     /tmp/ccQoliln.s:551    .text:0000000000000398 .L0 
     /tmp/ccQoliln.s:556    .text:00000000000003a4 .L0 
     /tmp/ccQoliln.s:557    .text:00000000000003a4 .L0 
     /tmp/ccQoliln.s:566    .text:00000000000003c4 .L0 
      src/thread.cpp:137    .text:00000000000003c4 .L0 
     /tmp/ccQoliln.s:572    .text:00000000000003c8 .L0 
     /tmp/ccQoliln.s:574    .text:00000000000003c8 .L0 
      src/thread.cpp:138    .text:00000000000003cc .L0 
     /tmp/ccQoliln.s:581    .text:00000000000003d0 .L0 
     /tmp/ccQoliln.s:582    .text:00000000000003d0 .L0 
      src/thread.cpp:144    .text:00000000000003d0 .L0 
     /tmp/ccQoliln.s:589    .text:00000000000003d8 .L0 
     /tmp/ccQoliln.s:590    .text:00000000000003d8 .L0 
     /tmp/ccQoliln.s:592    .text:00000000000003dc .L0 
     /tmp/ccQoliln.s:595    .text:00000000000003e0 .L0 
     /tmp/ccQoliln.s:596    .text:00000000000003e0 .L0 
     /tmp/ccQoliln.s:599    .text:00000000000003e4 .L0 
     /tmp/ccQoliln.s:600    .text:00000000000003e4 .L0 
     /tmp/ccQoliln.s:604    .text:00000000000003e8 .L0 
     /tmp/ccQoliln.s:605    .text:00000000000003e8 .L0 
     /tmp/ccQoliln.s:608    .text:00000000000003f0 .L0 
     /tmp/ccQoliln.s:609    .text:00000000000003f0 .L0 
     /tmp/ccQoliln.s:612    .text:00000000000003f8 .L0 
     /tmp/ccQoliln.s:614    .text:00000000000003fc .L0 
     /tmp/ccQoliln.s:616    .text:0000000000000400 .L0 
     /tmp/ccQoliln.s:618    .text:0000000000000404 .L0 
     /tmp/ccQoliln.s:619    .text:0000000000000404 .L0 
     /tmp/ccQoliln.s:622    .text:0000000000000408 .L0 
     /tmp/ccQoliln.s:625    .text:000000000000040c .L0 
     /tmp/ccQoliln.s:626    .text:000000000000040c .L0 
     /tmp/ccQoliln.s:630    .text:0000000000000414 .L0 
     /tmp/ccQoliln.s:633    .text:0000000000000420 .L0 
     /tmp/ccQoliln.s:634    .text:0000000000000420 .L0 
GAS LISTING /tmp/ccQoliln.s 			page 32


     /tmp/ccQoliln.s:636    .text:0000000000000424 .L0 
     /tmp/ccQoliln.s:637    .text:0000000000000424 .L0 
     /tmp/ccQoliln.s:640    .text:000000000000042c .L0 
     /tmp/ccQoliln.s:641    .text:0000000000000430 .L0 
     /tmp/ccQoliln.s:643    .text:0000000000000434 .L0 
     /tmp/ccQoliln.s:644    .text:0000000000000434 .L0 
     /tmp/ccQoliln.s:646    .text:0000000000000438 .L0 
     /tmp/ccQoliln.s:648    .text:000000000000043c .L0 
     /tmp/ccQoliln.s:650    .text:0000000000000440 .L0 
     /tmp/ccQoliln.s:656    .text:0000000000000440 _ZN7_thread6searchEi
     /tmp/ccQoliln.s:659    .text:0000000000000440 .L0 
     /tmp/ccQoliln.s:661    .text:0000000000000440 .L0 
     /tmp/ccQoliln.s:662    .text:0000000000000444 .L0 
     /tmp/ccQoliln.s:664    .text:0000000000000448 .L0 
     /tmp/ccQoliln.s:666    .text:000000000000044c .L0 
     /tmp/ccQoliln.s:669    .text:0000000000000450 .L0 
     /tmp/ccQoliln.s:670    .text:0000000000000450 .L0 
     /tmp/ccQoliln.s:674    .text:0000000000000458 .L0 
     /tmp/ccQoliln.s:675    .text:0000000000000458 .L0 
     /tmp/ccQoliln.s:677    .text:000000000000045c .L0 
     /tmp/ccQoliln.s:678    .text:000000000000045c .L0 
     /tmp/ccQoliln.s:680    .text:0000000000000460 .L0 
     /tmp/ccQoliln.s:682    .text:0000000000000464 .L0 
     /tmp/ccQoliln.s:684    .text:0000000000000468 .L0 
     /tmp/ccQoliln.s:685    .text:0000000000000468 .L0 
     /tmp/ccQoliln.s:688    .text:000000000000046c .L0 
     /tmp/ccQoliln.s:691    .text:0000000000000470 .L0 
     /tmp/ccQoliln.s:695    .text:0000000000000474 .L0 
     /tmp/ccQoliln.s:696    .text:0000000000000478 .L0 
     /tmp/ccQoliln.s:697    .text:0000000000000478 .L0 
     /tmp/ccQoliln.s:699    .text:000000000000047c .L0 
     /tmp/ccQoliln.s:701    .text:0000000000000480 .L0 
     /tmp/ccQoliln.s:707    .text:0000000000000480 _ZN7_thread10threadKillEi
     /tmp/ccQoliln.s:710    .text:0000000000000480 .L0 
     /tmp/ccQoliln.s:712    .text:0000000000000480 .L0 
     /tmp/ccQoliln.s:713    .text:0000000000000484 .L0 
     /tmp/ccQoliln.s:720    .text:000000000000049c .L0 
     /tmp/ccQoliln.s:721    .text:000000000000049c .L0 
     /tmp/ccQoliln.s:722    .text:000000000000049c .L0 
     /tmp/ccQoliln.s:723    .text:000000000000049c .L0 
     /tmp/ccQoliln.s:724    .text:000000000000049c .L0 
     /tmp/ccQoliln.s:725    .text:000000000000049c .L0 
     /tmp/ccQoliln.s:727    .text:00000000000004a0 .L0 
     /tmp/ccQoliln.s:730    .text:00000000000004a4 .L0 
     /tmp/ccQoliln.s:731    .text:00000000000004a4 .L0 
     /tmp/ccQoliln.s:734    .text:00000000000004b0 .L0 
     /tmp/ccQoliln.s:738    .text:00000000000004b4 .L0 
     /tmp/ccQoliln.s:739    .text:00000000000004b4 .L0 
     /tmp/ccQoliln.s:745    .text:00000000000004c4 .L0 
     /tmp/ccQoliln.s:747    .text:00000000000004c8 .L0 
     /tmp/ccQoliln.s:748    .text:00000000000004c8 .L0 
     /tmp/ccQoliln.s:750    .text:00000000000004cc .L0 
     /tmp/ccQoliln.s:753    .text:00000000000004d0 .L0 
     /tmp/ccQoliln.s:754    .text:00000000000004d0 .L0 
     /tmp/ccQoliln.s:756    .text:00000000000004d4 .L0 
     /tmp/ccQoliln.s:759    .text:00000000000004d8 .L0 
     /tmp/ccQoliln.s:760    .text:00000000000004d8 .L0 
GAS LISTING /tmp/ccQoliln.s 			page 33


     /tmp/ccQoliln.s:762    .text:00000000000004dc .L0 
     /tmp/ccQoliln.s:766    .text:00000000000004e0 .L0 
     /tmp/ccQoliln.s:767    .text:00000000000004e0 .L0 
     /tmp/ccQoliln.s:775    .text:00000000000004e8 .L0 
     /tmp/ccQoliln.s:776    .text:00000000000004e8 .L0 
     /tmp/ccQoliln.s:779    .text:00000000000004f0 .L0 
     /tmp/ccQoliln.s:780    .text:00000000000004f0 .L0 
     /tmp/ccQoliln.s:790    .text:00000000000004fc .L0 
     /tmp/ccQoliln.s:791    .text:00000000000004fc .L0 
     /tmp/ccQoliln.s:799    .text:000000000000050c .L0 
     /tmp/ccQoliln.s:803    .text:0000000000000510 .L0 
     /tmp/ccQoliln.s:806    .text:0000000000000514 .L0 
     /tmp/ccQoliln.s:807    .text:0000000000000514 .L0 
     /tmp/ccQoliln.s:811    .text:0000000000000520 .L0 
     /tmp/ccQoliln.s:812    .text:0000000000000520 .L0 
     /tmp/ccQoliln.s:814    .text:0000000000000524 .L0 
     /tmp/ccQoliln.s:816    .text:0000000000000528 .L0 
     /tmp/ccQoliln.s:817    .text:0000000000000528 .L0 
     /tmp/ccQoliln.s:825    .text:0000000000000534 .L0 
     /tmp/ccQoliln.s:826    .text:0000000000000534 .L0 
     /tmp/ccQoliln.s:828    .text:0000000000000538 .L0 
     /tmp/ccQoliln.s:830    .text:000000000000053c .L0 
     /tmp/ccQoliln.s:833    .text:0000000000000544 .L0 
     /tmp/ccQoliln.s:834    .text:0000000000000544 .L0 
     /tmp/ccQoliln.s:840    .text:0000000000000548 .L0 
     /tmp/ccQoliln.s:841    .text:000000000000054c .L0 
     /tmp/ccQoliln.s:842    .text:000000000000054c .L0 
     /tmp/ccQoliln.s:844    .text:0000000000000550 .L0 
     /tmp/ccQoliln.s:845    .text:0000000000000550 .L0 
     /tmp/ccQoliln.s:847    .text:0000000000000554 .L0 
     /tmp/ccQoliln.s:849    .text:0000000000000558 .L0 
     /tmp/ccQoliln.s:851    .text:000000000000055c .L0 
     /tmp/ccQoliln.s:853    .text:0000000000000560 .L0 
     /tmp/ccQoliln.s:855    .text:0000000000000564 .L0 
     /tmp/ccQoliln.s:859    .text:0000000000000568 .L0 
     /tmp/ccQoliln.s:863    .text:0000000000000568 .L0 
     /tmp/ccQoliln.s:864    .text:0000000000000568 .L0 
     /tmp/ccQoliln.s:869    .text:0000000000000574 .L0 
     /tmp/ccQoliln.s:870    .text:0000000000000574 .L0 
     /tmp/ccQoliln.s:876    .text:000000000000057c .L0 
     /tmp/ccQoliln.s:877    .text:000000000000057c .L0 
     /tmp/ccQoliln.s:882    .text:0000000000000584 .L0 
     /tmp/ccQoliln.s:886    .text:0000000000000588 .L0 
     /tmp/ccQoliln.s:889    .text:000000000000058c .L0 
     /tmp/ccQoliln.s:890    .text:000000000000058c .L0 
     /tmp/ccQoliln.s:893    .text:0000000000000594 .L0 
     /tmp/ccQoliln.s:894    .text:0000000000000594 .L0 
     /tmp/ccQoliln.s:896    .text:0000000000000598 .L0 
     /tmp/ccQoliln.s:898    .text:000000000000059c .L0 
     /tmp/ccQoliln.s:899    .text:000000000000059c .L0 
     /tmp/ccQoliln.s:909    .text:00000000000005a8 .L0 
     /tmp/ccQoliln.s:915    .text:00000000000005b0 .L0 
     /tmp/ccQoliln.s:921    .text:00000000000005b8 .L0 
     /tmp/ccQoliln.s:923    .text:00000000000005c0 .L0 
     /tmp/ccQoliln.s:939    .bss:0000000000000008 _ZN7_thread4tailE
     /tmp/ccQoliln.s:943    .bss:0000000000000010 _ZN7_thread4headE
     /tmp/ccQoliln.s:947    .bss:0000000000000018 _ZN7_thread2idE
GAS LISTING /tmp/ccQoliln.s 			page 34


     /tmp/ccQoliln.s:935    .bss:0000000000000000 _ZN7_thread7runningE
     /tmp/ccQoliln.s:932    .bss:0000000000000000 .LANCHOR0
     /tmp/ccQoliln.s:958    .text:00000000000005c0 .L0 
     /tmp/ccQoliln.s:28     .text:0000000000000018 .L0 
     /tmp/ccQoliln.s:67     .text:0000000000000054 .L0 
     /tmp/ccQoliln.s:108    .text:0000000000000094 .L0 
     /tmp/ccQoliln.s:125    .text:00000000000000b8 .L0 
     /tmp/ccQoliln.s:166    .text:0000000000000108 .L0 
     /tmp/ccQoliln.s:200    .text:000000000000013c .L0 
     /tmp/ccQoliln.s:283    .text:00000000000001d4 .L0 
     /tmp/ccQoliln.s:291    .text:00000000000001e4 .L0 
     /tmp/ccQoliln.s:311    .text:0000000000000200 .L0 
     /tmp/ccQoliln.s:427    .text:00000000000002c8 .L0 
     /tmp/ccQoliln.s:445    .text:00000000000002e8 .L0 
     /tmp/ccQoliln.s:557    .text:00000000000003a4 .L0 
     /tmp/ccQoliln.s:630    .text:0000000000000414 .L0 
     /tmp/ccQoliln.s:670    .text:0000000000000450 .L0 
     /tmp/ccQoliln.s:731    .text:00000000000004a4 .L0 
     /tmp/ccQoliln.s:864    .text:0000000000000568 .L0 
     /tmp/ccQoliln.s:149    .text:00000000000000e8 .L6
     /tmp/ccQoliln.s:134    .text:00000000000000d4 .L5
     /tmp/ccQoliln.s:317    .text:0000000000000214 .L15
     /tmp/ccQoliln.s:307    .text:0000000000000200 .L13
     /tmp/ccQoliln.s:292    .text:00000000000001ec .L11
     /tmp/ccQoliln.s:503    .text:0000000000000350 .L25
     /tmp/ccQoliln.s:509    .text:0000000000000358 .L26
     /tmp/ccQoliln.s:490    .text:000000000000033c .L20
     /tmp/ccQoliln.s:498    .text:0000000000000348 .L22
     /tmp/ccQoliln.s:442    .text:00000000000002e8 .L24
     /tmp/ccQoliln.s:409    .text:00000000000002ac .L21
     /tmp/ccQoliln.s:429    .text:00000000000002d4 .L23
     /tmp/ccQoliln.s:466    .text:000000000000031c .L19
     /tmp/ccQoliln.s:623    .text:000000000000040c .L29
     /tmp/ccQoliln.s:602    .text:00000000000003e8 .L30
     /tmp/ccQoliln.s:693    .text:0000000000000474 .L32
     /tmp/ccQoliln.s:689    .text:0000000000000470 .L35
     /tmp/ccQoliln.s:672    .text:0000000000000458 .L34
     /tmp/ccQoliln.s:770    .text:00000000000004e8 .L52
     /tmp/ccQoliln.s:903    .text:00000000000005a8 .L48
     /tmp/ccQoliln.s:913    .text:00000000000005b0 .L49
     /tmp/ccQoliln.s:858    .text:0000000000000568 .L40
     /tmp/ccQoliln.s:801    .text:0000000000000510 .L44
     /tmp/ccQoliln.s:736    .text:00000000000004b4 .L38
     /tmp/ccQoliln.s:821    .text:0000000000000534 .L41
     /tmp/ccQoliln.s:784    .text:00000000000004fc .L42
     /tmp/ccQoliln.s:796    .text:000000000000050c .L43
     /tmp/ccQoliln.s:884    .text:0000000000000588 .L47
     /tmp/ccQoliln.s:919    .text:00000000000005b8 .L50
     /tmp/ccQoliln.s:873    .text:000000000000057c .L45
     /tmp/ccQoliln.s:879    .text:0000000000000584 .L46
     /tmp/ccQoliln.s:836    .text:0000000000000548 .L39
     /tmp/ccQoliln.s:2429   .debug_abbrev:0000000000000000 .Ldebug_abbrev0
     /tmp/ccQoliln.s:4001   .debug_str:000000000000074f .LASF154
     /tmp/ccQoliln.s:3781   .debug_str:00000000000000d5 .LASF155
     /tmp/ccQoliln.s:3827   .debug_str:0000000000000242 .LASF156
     /tmp/ccQoliln.s:5      .text:0000000000000000 .Ltext0
     /tmp/ccQoliln.s:950    .text:00000000000005c0 .Letext0
GAS LISTING /tmp/ccQoliln.s 			page 35


     /tmp/ccQoliln.s:3739   .debug_line:0000000000000000 .Ldebug_line0
     /tmp/ccQoliln.s:3911   .debug_str:00000000000004b3 .LASF0
     /tmp/ccQoliln.s:3935   .debug_str:000000000000054a .LASF1
     /tmp/ccQoliln.s:3895   .debug_str:0000000000000434 .LASF2
     /tmp/ccQoliln.s:3863   .debug_str:0000000000000364 .LASF4
     /tmp/ccQoliln.s:3977   .debug_str:0000000000000696 .LASF3
     /tmp/ccQoliln.s:3773   .debug_str:00000000000000a0 .LASF5
     /tmp/ccQoliln.s:3941   .debug_str:0000000000000579 .LASF6
     /tmp/ccQoliln.s:3909   .debug_str:00000000000004a0 .LASF7
     /tmp/ccQoliln.s:4019   .debug_str:00000000000008ab .LASF8
     /tmp/ccQoliln.s:3845   .debug_str:00000000000002de .LASF9
     /tmp/ccQoliln.s:3953   .debug_str:00000000000005d8 .LASF10
     /tmp/ccQoliln.s:4005   .debug_str:000000000000081f .LASF11
     /tmp/ccQoliln.s:3777   .debug_str:00000000000000b4 .LASF12
     /tmp/ccQoliln.s:3753   .debug_str:000000000000003f .LASF13
     /tmp/ccQoliln.s:3791   .debug_str:000000000000011e .LASF14
     /tmp/ccQoliln.s:3971   .debug_str:0000000000000652 .LASF15
     /tmp/ccQoliln.s:3797   .debug_str:0000000000000147 .LASF16
     /tmp/ccQoliln.s:3931   .debug_str:0000000000000539 .LASF112
     /tmp/ccQoliln.s:3969   .debug_str:0000000000000647 .LASF49
     /tmp/ccQoliln.s:4043   .debug_str:0000000000000969 .LASF51
     /tmp/ccQoliln.s:3755   .debug_str:000000000000004f .LASF17
     /tmp/ccQoliln.s:3985   .debug_str:00000000000006df .LASF19
     /tmp/ccQoliln.s:3815   .debug_str:00000000000001f5 .LASF21
     /tmp/ccQoliln.s:3813   .debug_str:00000000000001e0 .LASF23
     /tmp/ccQoliln.s:3981   .debug_str:00000000000006c9 .LASF18
     /tmp/ccQoliln.s:3959   .debug_str:0000000000000607 .LASF20
     /tmp/ccQoliln.s:3999   .debug_str:0000000000000748 .LASF22
     /tmp/ccQoliln.s:3991   .debug_str:0000000000000713 .LASF24
     /tmp/ccQoliln.s:3833   .debug_str:000000000000028d .LASF25
     /tmp/ccQoliln.s:3799   .debug_str:000000000000015d .LASF26
     /tmp/ccQoliln.s:3745   .debug_str:0000000000000010 .LASF27
     /tmp/ccQoliln.s:3851   .debug_str:000000000000031f .LASF28
     /tmp/ccQoliln.s:3819   .debug_str:0000000000000206 .LASF29
     /tmp/ccQoliln.s:4033   .debug_str:0000000000000929 .LASF30
     /tmp/ccQoliln.s:4053   .debug_str:00000000000009bb .LASF31
     /tmp/ccQoliln.s:3821   .debug_str:000000000000020e .LASF32
     /tmp/ccQoliln.s:3913   .debug_str:00000000000004c0 .LASF33
     /tmp/ccQoliln.s:4039   .debug_str:000000000000094c .LASF34
     /tmp/ccQoliln.s:3767   .debug_str:0000000000000087 .LASF35
     /tmp/ccQoliln.s:3831   .debug_str:000000000000027a .LASF36
     /tmp/ccQoliln.s:3839   .debug_str:00000000000002ad .LASF37
     /tmp/ccQoliln.s:3997   .debug_str:0000000000000736 .LASF38
     /tmp/ccQoliln.s:3765   .debug_str:0000000000000081 .LASF39
     /tmp/ccQoliln.s:4059   .debug_str:00000000000009e6 .LASF40
     /tmp/ccQoliln.s:4051   .debug_str:00000000000009b0 .LASF41
     /tmp/ccQoliln.s:3975   .debug_str:000000000000067e .LASF42
     /tmp/ccQoliln.s:3873   .debug_str:00000000000003a3 .LASF43
     /tmp/ccQoliln.s:3987   .debug_str:00000000000006f4 .LASF44
     /tmp/ccQoliln.s:3789   .debug_str:0000000000000114 .LASF45
     /tmp/ccQoliln.s:3857   .debug_str:0000000000000341 .LASF46
     /tmp/ccQoliln.s:3899   .debug_str:000000000000044b .LASF47
     /tmp/ccQoliln.s:3847   .debug_str:00000000000002ec .LASF48
     /tmp/ccQoliln.s:3983   .debug_str:00000000000006d0 .LASF50
     /tmp/ccQoliln.s:3783   .debug_str:00000000000000e4 .LASF52
     /tmp/ccQoliln.s:4027   .debug_str:00000000000008e5 .LASF67
     /tmp/ccQoliln.s:3879   .debug_str:00000000000003c3 .LASF69
GAS LISTING /tmp/ccQoliln.s 			page 36


     /tmp/ccQoliln.s:3859   .debug_str:0000000000000357 .LASF53
     /tmp/ccQoliln.s:3761   .debug_str:0000000000000070 .LASF54
     /tmp/ccQoliln.s:3887   .debug_str:000000000000040d .LASF55
     /tmp/ccQoliln.s:3965   .debug_str:0000000000000635 .LASF56
     /tmp/ccQoliln.s:3943   .debug_str:000000000000058c .LASF57
     /tmp/ccQoliln.s:3871   .debug_str:000000000000039e .LASF58
     /tmp/ccQoliln.s:3889   .debug_str:0000000000000412 .LASF59
     /tmp/ccQoliln.s:3869   .debug_str:0000000000000395 .LASF60
     /tmp/ccQoliln.s:3919   .debug_str:00000000000004e8 .LASF61
     /tmp/ccQoliln.s:3875   .debug_str:00000000000003ae .LASF62
     /tmp/ccQoliln.s:3925   .debug_str:0000000000000505 .LASF63
     /tmp/ccQoliln.s:3747   .debug_str:0000000000000018 .LASF64
     /tmp/ccQoliln.s:3901   .debug_str:0000000000000455 .LASF65
     /tmp/ccQoliln.s:3963   .debug_str:000000000000062a .LASF66
     /tmp/ccQoliln.s:3933   .debug_str:000000000000053f .LASF68
     /tmp/ccQoliln.s:3927   .debug_str:000000000000050f .LASF70
     /tmp/ccQoliln.s:3995   .debug_str:000000000000072b .LASF71
     /tmp/ccQoliln.s:3829   .debug_str:0000000000000260 .LASF72
     /tmp/ccQoliln.s:3905   .debug_str:0000000000000467 .LASF73
     /tmp/ccQoliln.s:3979   .debug_str:00000000000006a8 .LASF74
     /tmp/ccQoliln.s:3993   .debug_str:0000000000000726 .LASF75
     /tmp/ccQoliln.s:4041   .debug_str:000000000000095f .LASF76
     /tmp/ccQoliln.s:3807   .debug_str:00000000000001ad .LASF77
     /tmp/ccQoliln.s:3891   .debug_str:000000000000041a .LASF78
     /tmp/ccQoliln.s:3843   .debug_str:00000000000002d6 .LASF93
     /tmp/ccQoliln.s:3805   .debug_str:0000000000000195 .LASF106
     /tmp/ccQoliln.s:4007   .debug_str:000000000000082e .LASF79
     /tmp/ccQoliln.s:3881   .debug_str:00000000000003e5 .LASF80
     /tmp/ccQoliln.s:3923   .debug_str:00000000000004fa .LASF81
     /tmp/ccQoliln.s:3809   .debug_str:00000000000001b2 .LASF82
     /tmp/ccQoliln.s:3877   .debug_str:00000000000003b6 .LASF83
     /tmp/ccQoliln.s:3817   .debug_str:00000000000001fe .LASF84
     /tmp/ccQoliln.s:3759   .debug_str:0000000000000063 .LASF85
     /tmp/ccQoliln.s:4011   .debug_str:000000000000083d .LASF86
     /tmp/ccQoliln.s:3883   .debug_str:00000000000003fa .LASF87
     /tmp/ccQoliln.s:3849   .debug_str:0000000000000302 .LASF88
     /tmp/ccQoliln.s:3751   .debug_str:0000000000000030 .LASF89
     /tmp/ccQoliln.s:4015   .debug_str:0000000000000884 .LASF90
     /tmp/ccQoliln.s:3823   .debug_str:0000000000000222 .LASF91
     /tmp/ccQoliln.s:3861   .debug_str:000000000000035f .LASF92
     /tmp/ccQoliln.s:3825   .debug_str:0000000000000227 .LASF94
     /tmp/ccQoliln.s:4003   .debug_str:0000000000000813 .LASF95
     /tmp/ccQoliln.s:4047   .debug_str:0000000000000986 .LASF97
     /tmp/ccQoliln.s:3785   .debug_str:0000000000000100 .LASF96
     /tmp/ccQoliln.s:3973   .debug_str:0000000000000668 .LASF98
     /tmp/ccQoliln.s:4009   .debug_str:0000000000000835 .LASF99
     /tmp/ccQoliln.s:3955   .debug_str:00000000000005e7 .LASF100
     /tmp/ccQoliln.s:3903   .debug_str:000000000000045f .LASF101
     /tmp/ccQoliln.s:3793   .debug_str:000000000000012a .LASF102
     /tmp/ccQoliln.s:3945   .debug_str:0000000000000591 .LASF103
     /tmp/ccQoliln.s:4055   .debug_str:00000000000009c3 .LASF104
     /tmp/ccQoliln.s:3897   .debug_str:0000000000000442 .LASF105
     /tmp/ccQoliln.s:3801   .debug_str:0000000000000171 .LASF107
     /tmp/ccQoliln.s:3741   .debug_str:0000000000000000 .LASF108
     /tmp/ccQoliln.s:3795   .debug_str:000000000000013f .LASF109
     /tmp/ccQoliln.s:4037   .debug_str:0000000000000947 .LASF110
     /tmp/ccQoliln.s:3885   .debug_str:0000000000000408 .LASF111
GAS LISTING /tmp/ccQoliln.s 			page 37


     /tmp/ccQoliln.s:3929   .debug_str:0000000000000529 .LASF113
     /tmp/ccQoliln.s:3957   .debug_str:00000000000005fe .LASF114
     /tmp/ccQoliln.s:3743   .debug_str:0000000000000009 .LASF115
     /tmp/ccQoliln.s:4035   .debug_str:000000000000093d .LASF116
     /tmp/ccQoliln.s:3949   .debug_str:00000000000005a5 .LASF117
     /tmp/ccQoliln.s:3937   .debug_str:000000000000055d .LASF118
     /tmp/ccQoliln.s:3841   .debug_str:00000000000002b3 .LASF119
     /tmp/ccQoliln.s:4021   .debug_str:00000000000008bb .LASF120
     /tmp/ccQoliln.s:4029   .debug_str:00000000000008fa .LASF121
     /tmp/ccQoliln.s:3867   .debug_str:000000000000038c .LASF122
     /tmp/ccQoliln.s:3865   .debug_str:000000000000036b .LASF123
     /tmp/ccQoliln.s:3915   .debug_str:00000000000004c7 .LASF124
     /tmp/ccQoliln.s:3907   .debug_str:0000000000000479 .LASF125
     /tmp/ccQoliln.s:3951   .debug_str:00000000000005ce .LASF126
     /tmp/ccQoliln.s:3779   .debug_str:00000000000000c4 .LASF127
     /tmp/ccQoliln.s:3947   .debug_str:000000000000059b .LASF128
     /tmp/ccQoliln.s:3811   .debug_str:00000000000001cc .LASF157
     /tmp/ccQoliln.s:4013   .debug_str:0000000000000868 .LASF158
     /tmp/ccQoliln.s:3803   .debug_str:0000000000000187 .LASF159
     /tmp/ccQoliln.s:3893   .debug_str:000000000000041f .LASF129
     /tmp/ccQoliln.s:3961   .debug_str:000000000000061a .LASF130
     /tmp/ccQoliln.s:3917   .debug_str:00000000000004d6 .LASF131
     /tmp/ccQoliln.s:4049   .debug_str:000000000000099e .LASF132
     /tmp/ccQoliln.s:708    .text:0000000000000480 .LFB33
     /tmp/ccQoliln.s:924    .text:00000000000005c0 .LFE33
     /tmp/ccQoliln.s:3763   .debug_str:0000000000000078 .LASF137
     /tmp/ccQoliln.s:3327   .debug_loc:0000000000000000 .LLST19
     /tmp/ccQoliln.s:3769   .debug_str:000000000000008e .LASF133
     /tmp/ccQoliln.s:3352   .debug_loc:0000000000000062 .LLST20
     /tmp/ccQoliln.s:3713   .debug_ranges:0000000000000000 .Ldebug_ranges0
     /tmp/ccQoliln.s:3757   .debug_str:0000000000000058 .LASF134
     /tmp/ccQoliln.s:3383   .debug_loc:00000000000000f7 .LLST21
     /tmp/ccQoliln.s:3395   .debug_loc:000000000000011f .LLST22
     /tmp/ccQoliln.s:4045   .debug_str:0000000000000981 .LASF135
     /tmp/ccQoliln.s:3407   .debug_loc:0000000000000156 .LLST23
     /tmp/ccQoliln.s:795    .text:000000000000050c .LVL67
     /tmp/ccQoliln.s:809    .text:0000000000000520 .LVL69
     /tmp/ccQoliln.s:861    .text:0000000000000568 .LBB9
     /tmp/ccQoliln.s:906    .text:00000000000005a8 .LBE9
     /tmp/ccQoliln.s:3749   .debug_str:0000000000000023 .LASF136
     /tmp/ccQoliln.s:3422   .debug_loc:000000000000019f .LLST24
     /tmp/ccQoliln.s:868    .text:0000000000000574 .LBB10
     /tmp/ccQoliln.s:905    .text:00000000000005a8 .LBE10
     /tmp/ccQoliln.s:3433   .debug_loc:00000000000001d5 .LLST25
     /tmp/ccQoliln.s:3449   .debug_loc:000000000000021f .LLST26
     /tmp/ccQoliln.s:878    .text:0000000000000584 .LVL75
     /tmp/ccQoliln.s:891    .text:0000000000000594 .LVL77
     /tmp/ccQoliln.s:741    .text:00000000000004c0 .LVL60
     /tmp/ccQoliln.s:781    .text:00000000000004f8 .LVL64
     /tmp/ccQoliln.s:657    .text:0000000000000440 .LFB32
     /tmp/ccQoliln.s:702    .text:0000000000000480 .LFE32
     /tmp/ccQoliln.s:4017   .debug_str:00000000000008a2 .LASF138
     /tmp/ccQoliln.s:3460   .debug_loc:0000000000000255 .LLST17
     /tmp/ccQoliln.s:3771   .debug_str:000000000000009b .LASF139
     /tmp/ccQoliln.s:3474   .debug_loc:000000000000028e .LLST18
     /tmp/ccQoliln.s:247    .text:000000000000019c .LFB31
     /tmp/ccQoliln.s:324    .text:0000000000000218 .LFE31
GAS LISTING /tmp/ccQoliln.s 			page 38


     /tmp/ccQoliln.s:3481   .debug_loc:00000000000002b1 .LLST2
     /tmp/ccQoliln.s:3855   .debug_str:0000000000000338 .LASF140
     /tmp/ccQoliln.s:3507   .debug_loc:0000000000000323 .LLST3
     /tmp/ccQoliln.s:3853   .debug_str:0000000000000333 .LASF141
     /tmp/ccQoliln.s:3514   .debug_loc:0000000000000346 .LLST4
     /tmp/ccQoliln.s:270    .text:00000000000001c4 .LVL20
     /tmp/ccQoliln.s:274    .text:00000000000001cc .LVL21
     /tmp/ccQoliln.s:183    .text:0000000000000124 .LFB30
     /tmp/ccQoliln.s:241    .text:000000000000019c .LFE30
     /tmp/ccQoliln.s:3837   .debug_str:00000000000002a3 .LASF142
     /tmp/ccQoliln.s:3521   .debug_loc:0000000000000369 .LLST1
     /tmp/ccQoliln.s:204    .text:0000000000000154 .LVL15
     /tmp/ccQoliln.s:209    .text:0000000000000160 .LVL16
     /tmp/ccQoliln.s:215    .text:000000000000016c .LVL17
     /tmp/ccQoliln.s:520    .text:0000000000000360 .LFB29
     /tmp/ccQoliln.s:651    .text:0000000000000440 .LFE29
     /tmp/ccQoliln.s:3528   .debug_loc:000000000000038c .LLST11
     /tmp/ccQoliln.s:3787   .debug_str:000000000000010a .LASF143
     /tmp/ccQoliln.s:3535   .debug_loc:00000000000003af .LLST12
     /tmp/ccQoliln.s:4057   .debug_str:00000000000009da .LASF144
     /tmp/ccQoliln.s:3542   .debug_loc:00000000000003d2 .LLST13
     /tmp/ccQoliln.s:3967   .debug_str:000000000000063a .LASF145
     /tmp/ccQoliln.s:3553   .debug_loc:0000000000000408 .LLST14
     /tmp/ccQoliln.s:3775   .debug_str:00000000000000a7 .LASF146
     /tmp/ccQoliln.s:3560   .debug_loc:000000000000042b .LLST15
     /tmp/ccQoliln.s:3567   .debug_loc:000000000000044e .LLST16
     /tmp/ccQoliln.s:537    .text:0000000000000380 .LVL41
     /tmp/ccQoliln.s:541    .text:0000000000000388 .LVL42
     /tmp/ccQoliln.s:548    .text:0000000000000398 .LVL43
     /tmp/ccQoliln.s:552    .text:00000000000003a0 .LVL44
     /tmp/ccQoliln.s:564    .text:00000000000003c4 .LVL47
     /tmp/ccQoliln.s:638    .text:000000000000042c .LVL53
     /tmp/ccQoliln.s:93     .text:0000000000000080 .LFB28
     /tmp/ccQoliln.s:177    .text:0000000000000124 .LFE28
     /tmp/ccQoliln.s:3579   .debug_loc:0000000000000485 .LLST0
     /tmp/ccQoliln.s:119    .text:00000000000000b0 .LVL6
     /tmp/ccQoliln.s:123    .text:00000000000000b8 .LVL7
     /tmp/ccQoliln.s:133    .text:00000000000000d4 .LVL8
     /tmp/ccQoliln.s:155    .text:00000000000000f4 .LVL11
     /tmp/ccQoliln.s:160    .text:0000000000000100 .LVL12
     /tmp/ccQoliln.s:164    .text:0000000000000108 .LVL13
     /tmp/ccQoliln.s:173    .text:0000000000000120 .LVL14
     /tmp/ccQoliln.s:54     .text:0000000000000044 .LFB27
     /tmp/ccQoliln.s:87     .text:0000000000000080 .LFE27
     /tmp/ccQoliln.s:76     .text:0000000000000070 .LVL4
     /tmp/ccQoliln.s:10     .text:0000000000000000 .LFB26
     /tmp/ccQoliln.s:48     .text:0000000000000044 .LFE26
     /tmp/ccQoliln.s:25     .text:0000000000000018 .LVL0
     /tmp/ccQoliln.s:37     .text:0000000000000034 .LVL2
     /tmp/ccQoliln.s:330    .text:0000000000000218 .LFB25
     /tmp/ccQoliln.s:514    .text:0000000000000360 .LFE25
     /tmp/ccQoliln.s:3989   .debug_str:000000000000070c .LASF147
     /tmp/ccQoliln.s:3590   .debug_loc:00000000000004bb .LLST5
     /tmp/ccQoliln.s:3835   .debug_str:0000000000000295 .LASF148
     /tmp/ccQoliln.s:3612   .debug_loc:000000000000051a .LLST6
     /tmp/ccQoliln.s:3634   .debug_loc:0000000000000579 .LLST7
     /tmp/ccQoliln.s:3656   .debug_loc:00000000000005d8 .LLST8
GAS LISTING /tmp/ccQoliln.s 			page 39


     /tmp/ccQoliln.s:3678   .debug_loc:0000000000000637 .LLST9
     /tmp/ccQoliln.s:4023   .debug_str:00000000000008c5 .LASF149
     /tmp/ccQoliln.s:3685   .debug_loc:000000000000065a .LLST10
     /tmp/ccQoliln.s:359    .text:0000000000000254 .LVL27
     /tmp/ccQoliln.s:363    .text:000000000000025c .LVL28
     /tmp/ccQoliln.s:371    .text:0000000000000270 .LVL29
     /tmp/ccQoliln.s:441    .text:00000000000002e8 .LVL31
     /tmp/ccQoliln.s:457    .text:0000000000000310 .LVL32
     /tmp/ccQoliln.s:4031   .debug_str:000000000000091b .LASF150
     /tmp/ccQoliln.s:4025   .debug_str:00000000000008cc .LASF151
     /tmp/ccQoliln.s:3939   .debug_str:0000000000000568 .LASF152
     /tmp/ccQoliln.s:3921   .debug_str:00000000000004ee .LASF153
     /tmp/ccQoliln.s:711    .text:0000000000000480 .LVL58
     /tmp/ccQoliln.s:735    .text:00000000000004b4 .LVL59
     /tmp/ccQoliln.s:769    .text:00000000000004e8 .LVL63
     /tmp/ccQoliln.s:743    .text:00000000000004c4 .LVL61
     /tmp/ccQoliln.s:783    .text:00000000000004fc .LVL65
     /tmp/ccQoliln.s:835    .text:0000000000000548 .LVL71
     /tmp/ccQoliln.s:857    .text:0000000000000568 .LVL72
     /tmp/ccQoliln.s:872    .text:000000000000057c .LVL74
     /tmp/ccQoliln.s:902    .text:00000000000005a8 .LVL78
     /tmp/ccQoliln.s:910    .text:00000000000005ac .LVL79
     /tmp/ccQoliln.s:912    .text:00000000000005b0 .LVL80
     /tmp/ccQoliln.s:916    .text:00000000000005b4 .LVL81
     /tmp/ccQoliln.s:918    .text:00000000000005b8 .LVL82
     /tmp/ccQoliln.s:763    .text:00000000000004e0 .LVL62
     /tmp/ccQoliln.s:793    .text:0000000000000504 .LVL66
     /tmp/ccQoliln.s:820    .text:0000000000000534 .LVL70
     /tmp/ccQoliln.s:866    .text:0000000000000574 .LVL73
     /tmp/ccQoliln.s:660    .text:0000000000000440 .LVL54
     /tmp/ccQoliln.s:671    .text:0000000000000458 .LVL55
     /tmp/ccQoliln.s:692    .text:0000000000000474 .LVL57
     /tmp/ccQoliln.s:250    .text:000000000000019c .LVL18
     /tmp/ccQoliln.s:268    .text:00000000000001bc .LVL19
     /tmp/ccQoliln.s:302    .text:00000000000001f8 .LVL22
     /tmp/ccQoliln.s:306    .text:0000000000000200 .LVL23
     /tmp/ccQoliln.s:316    .text:0000000000000214 .LVL24
     /tmp/ccQoliln.s:554    .text:00000000000003a4 .LVL45
     /tmp/ccQoliln.s:562    .text:00000000000003bc .LVL46
     /tmp/ccQoliln.s:593    .text:00000000000003e0 .LVL48
     /tmp/ccQoliln.s:597    .text:00000000000003e4 .LVL49
     /tmp/ccQoliln.s:601    .text:00000000000003e8 .LVL50
     /tmp/ccQoliln.s:628    .text:0000000000000414 .LVL52
     /tmp/ccQoliln.s:109    .text:000000000000009c .LVL5
     /tmp/ccQoliln.s:144    .text:00000000000000e0 .LVL9
     /tmp/ccQoliln.s:148    .text:00000000000000e8 .LVL10
     /tmp/ccQoliln.s:333    .text:0000000000000218 .LVL25
     /tmp/ccQoliln.s:357    .text:000000000000024c .LVL26
     /tmp/ccQoliln.s:476    .text:0000000000000328 .LVL33
     /tmp/ccQoliln.s:489    .text:000000000000033c .LVL37
     /tmp/ccQoliln.s:479    .text:000000000000032c .LVL34
     /tmp/ccQoliln.s:485    .text:0000000000000334 .LVL36
     /tmp/ccQoliln.s:482    .text:0000000000000330 .LVL35
     /tmp/ccQoliln.s:433    .text:00000000000002d8 .LVL30
     /tmp/ccQoliln.s:506    .text:0000000000000354 .LVL38
     /tmp/ccQoliln.s:508    .text:0000000000000358 .LVL39
     /tmp/ccQoliln.s:511    .text:000000000000035c .LVL40
GAS LISTING /tmp/ccQoliln.s 			page 40


     /tmp/ccQoliln.s:959    .debug_info:0000000000000000 .Ldebug_info0
     /tmp/ccQoliln.s:757    .text:00000000000004d8 .LBB3
     /tmp/ccQoliln.s:772    .text:00000000000004e8 .LBE3
     /tmp/ccQoliln.s:786    .text:00000000000004fc .LBB8
     /tmp/ccQoliln.s:837    .text:0000000000000548 .LBE8
     /tmp/ccQoliln.s:765    .text:00000000000004e0 .LBB4
     /tmp/ccQoliln.s:771    .text:00000000000004e8 .LBE4
     /tmp/ccQoliln.s:787    .text:00000000000004fc .LBB7
     /tmp/ccQoliln.s:823    .text:0000000000000534 .LBE7
     /tmp/ccQoliln.s:788    .text:00000000000004fc .LBB5
     /tmp/ccQoliln.s:797    .text:000000000000050c .LBE5
     /tmp/ccQoliln.s:804    .text:0000000000000514 .LBB6
     /tmp/ccQoliln.s:822    .text:0000000000000534 .LBE6
     /tmp/ccQoliln.s:874    .text:000000000000057c .LBB11
     /tmp/ccQoliln.s:880    .text:0000000000000584 .LBE11
     /tmp/ccQoliln.s:887    .text:000000000000058c .LBB12
     /tmp/ccQoliln.s:904    .text:00000000000005a8 .LBE12

UNDEFINED SYMBOLS
_ZN5Riscv10popSppSpieEv
_Z11thread_exitv
_ZN9Scheduler3putEP7_thread
_ZN9Scheduler3getEv
contextSwitch
_ZN4_sem8semCloseEPS_
_ZN15MemoryAllocator8mem_freeEPv
contextSwitchThreadEnded
_ZN15MemoryAllocator14convert2BlocksEm
_ZN15MemoryAllocator9mem_allocEm
_ZN4_sem7semOpenEPPS_j
_ZN4_sem7addLastEP7_thread
_ZN4_sem11removeFirstEv
_ZN9Scheduler9threadNumE
