GAS LISTING /tmp/ccI5xzSb.s 			page 1


   1              		.file	"workers.cpp"
   2              		.option pic
   3              		.option norelax
   4              		.text
   5              	.Ltext0:
   6              		.align	2
   8              	_ZL9fibonaccim:
   9              	.LFB18:
  10              		.file 1 "src/workers.cpp"
   1:src/workers.cpp **** //
   2:src/workers.cpp **** // Created by marko on 20.4.22..
   3:src/workers.cpp **** //
   4:src/workers.cpp **** 
   5:src/workers.cpp **** 
   6:src/workers.cpp **** #include "../test/printing.hpp"
   7:src/workers.cpp **** #include "../h/syscall_c.hpp"
   8:src/workers.cpp **** 
   9:src/workers.cpp **** void workerBodyA(void*)
  10:src/workers.cpp **** {
  11:src/workers.cpp ****     for (uint64 i = 0; i < 10; i++)
  12:src/workers.cpp ****     {
  13:src/workers.cpp ****         printString("A: i=");
  14:src/workers.cpp ****         printInt(i);
  15:src/workers.cpp ****         printString("\n");
  16:src/workers.cpp ****         for (uint64 j = 0; j < 10000; j++)
  17:src/workers.cpp ****         {
  18:src/workers.cpp ****             for (uint64 k = 0; k < 30000; k++)
  19:src/workers.cpp ****             {
  20:src/workers.cpp ****                 // busy wait
  21:src/workers.cpp ****             }
  22:src/workers.cpp **** //            TCB::yield();
  23:src/workers.cpp ****         }
  24:src/workers.cpp ****         thread_dispatch();
  25:src/workers.cpp ****     }
  26:src/workers.cpp **** }
  27:src/workers.cpp **** 
  28:src/workers.cpp **** void workerBodyB(void*)
  29:src/workers.cpp **** {
  30:src/workers.cpp ****     for (uint64 i = 0; i < 16; i++)
  31:src/workers.cpp ****     {
  32:src/workers.cpp ****         printString("B: i=");
  33:src/workers.cpp ****         printInt(i);
  34:src/workers.cpp ****         printString("\n");
  35:src/workers.cpp ****         for (uint64 j = 0; j < 10000; j++)
  36:src/workers.cpp ****         {
  37:src/workers.cpp ****             for (uint64 k = 0; k < 30000; k++)
  38:src/workers.cpp ****             {
  39:src/workers.cpp ****                 // busy wait
  40:src/workers.cpp ****             }
  41:src/workers.cpp **** //            TCB::yield();
  42:src/workers.cpp ****         }
  43:src/workers.cpp ****         thread_dispatch();
  44:src/workers.cpp ****     }
  45:src/workers.cpp **** }
  46:src/workers.cpp **** 
  47:src/workers.cpp **** static uint64 fibonacci(uint64 n)
  48:src/workers.cpp **** {
GAS LISTING /tmp/ccI5xzSb.s 			page 2


  11              		.loc 1 48 1
  12              		.cfi_startproc
  13              	.LVL0:
  14 0000 130101FE 		addi	sp,sp,-32
  15              		.cfi_def_cfa_offset 32
  16 0004 233C1100 		sd	ra,24(sp)
  17 0008 23388100 		sd	s0,16(sp)
  18 000c 23349100 		sd	s1,8(sp)
  19 0010 23302101 		sd	s2,0(sp)
  20              		.cfi_offset 1, -8
  21              		.cfi_offset 8, -16
  22              		.cfi_offset 9, -24
  23              		.cfi_offset 18, -32
  24 0014 13040102 		addi	s0,sp,32
  25              		.cfi_def_cfa 8, 0
  26 0018 93040500 		mv	s1,a0
  49:src/workers.cpp ****     if (n == 0 || n == 1) { return n; }
  27              		.loc 1 49 5
  28 001c 93071000 		li	a5,1
  29 0020 63F8A702 		bleu	a0,a5,.L1
  50:src/workers.cpp ****     if (n % 10 == 0) { thread_dispatch(); }
  30              		.loc 1 50 5
  31              		.loc 1 50 11 is_stmt 0
  32 0024 9307A000 		li	a5,10
  33 0028 B377F502 		remu	a5,a0,a5
  34              		.loc 1 50 5
  35 002c 638E0702 		beqz	a5,.L6
  36              	.LVL1:
  37              	.L3:
  51:src/workers.cpp ****     return fibonacci(n - 1) + fibonacci(n - 2);
  38              		.loc 1 51 5 is_stmt 1
  39              		.loc 1 51 21 is_stmt 0
  40 0030 1385F4FF 		addi	a0,s1,-1
  41 0034 97000000 		call	_ZL9fibonaccim
  41      E7800000 
  42              	.LVL2:
  43 003c 13090500 		mv	s2,a0
  44              		.loc 1 51 40
  45 0040 1385E4FF 		addi	a0,s1,-2
  46 0044 97000000 		call	_ZL9fibonaccim
  46      E7800000 
  47              	.LVL3:
  48              		.loc 1 51 46
  49 004c 3305A900 		add	a0,s2,a0
  50              	.L1:
  52:src/workers.cpp **** }
  51              		.loc 1 52 1
  52 0050 83308101 		ld	ra,24(sp)
  53              		.cfi_remember_state
  54              		.cfi_restore 1
  55 0054 03340101 		ld	s0,16(sp)
  56              		.cfi_restore 8
  57              		.cfi_def_cfa 2, 32
  58 0058 83348100 		ld	s1,8(sp)
  59              		.cfi_restore 9
  60              	.LVL4:
  61 005c 03390100 		ld	s2,0(sp)
GAS LISTING /tmp/ccI5xzSb.s 			page 3


  62              		.cfi_restore 18
  63 0060 13010102 		addi	sp,sp,32
  64              		.cfi_def_cfa_offset 0
  65 0064 67800000 		jr	ra
  66              	.LVL5:
  67              	.L6:
  68              		.cfi_restore_state
  50:src/workers.cpp ****     if (n % 10 == 0) { thread_dispatch(); }
  69              		.loc 1 50 24 is_stmt 1 discriminator 1
  50:src/workers.cpp ****     if (n % 10 == 0) { thread_dispatch(); }
  70              		.loc 1 50 39 is_stmt 0 discriminator 1
  71 0068 97000000 		call	_Z15thread_dispatchv@plt
  71      E7800000 
  72              	.LVL6:
  73 0070 6FF01FFC 		j	.L3
  74              		.cfi_endproc
  75              	.LFE18:
  77              		.section	.rodata.str1.8,"aMS",@progbits,1
  78              		.align	3
  79              	.LC0:
  80 0000 413A2069 		.string	"A: i="
  80      3D00
  81 0006 0000     		.align	3
  82              	.LC1:
  83 0008 0A00     		.string	"\n"
  84              		.text
  85              		.align	2
  86              		.globl	_Z11workerBodyAPv
  88              	_Z11workerBodyAPv:
  89              	.LFB16:
  10:src/workers.cpp ****     for (uint64 i = 0; i < 10; i++)
  90              		.loc 1 10 1 is_stmt 1
  91              		.cfi_startproc
  92 0074 130101FE 		addi	sp,sp,-32
  93              		.cfi_def_cfa_offset 32
  94 0078 233C1100 		sd	ra,24(sp)
  95 007c 23388100 		sd	s0,16(sp)
  96 0080 23349100 		sd	s1,8(sp)
  97              		.cfi_offset 1, -8
  98              		.cfi_offset 8, -16
  99              		.cfi_offset 9, -24
 100 0084 13040102 		addi	s0,sp,32
 101              		.cfi_def_cfa 8, 0
  11:src/workers.cpp ****     {
 102              		.loc 1 11 5
 103              	.LVL7:
 104              	.LBB2:
  11:src/workers.cpp ****     {
 105              		.loc 1 11 17 is_stmt 0
 106 0088 93040000 		li	s1,0
 107 008c 6F008003 		j	.L13
 108              	.LVL8:
 109              	.L10:
 110              	.LBB3:
 111              	.LBB4:
  16:src/workers.cpp ****         {
 112              		.loc 1 16 9 is_stmt 1 discriminator 2
GAS LISTING /tmp/ccI5xzSb.s 			page 4


 113 0090 93861600 		addi	a3,a3,1
 114              	.LVL9:
 115              	.L12:
  16:src/workers.cpp ****         {
 116              		.loc 1 16 30 discriminator 1
 117 0094 B7270000 		li	a5,8192
 118 0098 9387F770 		addi	a5,a5,1807
 119 009c 63EED700 		bgtu	a3,a5,.L9
 120              	.LBB5:
  18:src/workers.cpp ****             {
 121              		.loc 1 18 25 is_stmt 0
 122 00a0 13070000 		li	a4,0
 123              	.L11:
 124              	.LVL10:
  18:src/workers.cpp ****             {
 125              		.loc 1 18 34 is_stmt 1 discriminator 3
 126 00a4 B7770000 		li	a5,28672
 127 00a8 9387F752 		addi	a5,a5,1327
 128 00ac E3E2E7FE 		bgtu	a4,a5,.L10
  18:src/workers.cpp ****             {
 129              		.loc 1 18 13 discriminator 2
 130 00b0 13071700 		addi	a4,a4,1
 131              	.LVL11:
 132 00b4 6FF01FFF 		j	.L11
 133              	.LVL12:
 134              	.L9:
 135              	.LBE5:
 136              	.LBE4:
  24:src/workers.cpp ****     }
 137              		.loc 1 24 9 discriminator 2
  24:src/workers.cpp ****     }
 138              		.loc 1 24 24 is_stmt 0 discriminator 2
 139 00b8 97000000 		call	_Z15thread_dispatchv@plt
 139      E7800000 
 140              	.LVL13:
 141              	.LBE3:
  11:src/workers.cpp ****     {
 142              		.loc 1 11 5 is_stmt 1 discriminator 2
 143 00c0 93841400 		addi	s1,s1,1
 144              	.LVL14:
 145              	.L13:
  11:src/workers.cpp ****     {
 146              		.loc 1 11 26 discriminator 1
 147 00c4 93079000 		li	a5,9
 148 00c8 63E09704 		bgtu	s1,a5,.L7
 149              	.LBB7:
  13:src/workers.cpp ****         printInt(i);
 150              		.loc 1 13 9
  13:src/workers.cpp ****         printInt(i);
 151              		.loc 1 13 20 is_stmt 0
 152 00cc 17050000 		lla	a0,.LC0
 152      13050500 
 153 00d4 97000000 		call	_Z11printStringPKc@plt
 153      E7800000 
 154              	.LVL15:
  14:src/workers.cpp ****         printString("\n");
 155              		.loc 1 14 9 is_stmt 1
GAS LISTING /tmp/ccI5xzSb.s 			page 5


  14:src/workers.cpp ****         printString("\n");
 156              		.loc 1 14 17 is_stmt 0
 157 00dc 13060000 		li	a2,0
 158 00e0 9305A000 		li	a1,10
 159 00e4 1B850400 		sext.w	a0,s1
 160 00e8 97000000 		call	_Z8printIntiii@plt
 160      E7800000 
 161              	.LVL16:
  15:src/workers.cpp ****         for (uint64 j = 0; j < 10000; j++)
 162              		.loc 1 15 9 is_stmt 1
  15:src/workers.cpp ****         for (uint64 j = 0; j < 10000; j++)
 163              		.loc 1 15 20 is_stmt 0
 164 00f0 17050000 		lla	a0,.LC1
 164      13050500 
 165 00f8 97000000 		call	_Z11printStringPKc@plt
 165      E7800000 
 166              	.LVL17:
  16:src/workers.cpp ****         {
 167              		.loc 1 16 9 is_stmt 1
 168              	.LBB6:
  16:src/workers.cpp ****         {
 169              		.loc 1 16 21 is_stmt 0
 170 0100 93060000 		li	a3,0
 171 0104 6FF01FF9 		j	.L12
 172              	.LVL18:
 173              	.L7:
 174              	.LBE6:
 175              	.LBE7:
 176              	.LBE2:
  26:src/workers.cpp **** 
 177              		.loc 1 26 1
 178 0108 83308101 		ld	ra,24(sp)
 179              		.cfi_restore 1
 180 010c 03340101 		ld	s0,16(sp)
 181              		.cfi_restore 8
 182              		.cfi_def_cfa 2, 32
 183 0110 83348100 		ld	s1,8(sp)
 184              		.cfi_restore 9
 185              	.LVL19:
 186 0114 13010102 		addi	sp,sp,32
 187              		.cfi_def_cfa_offset 0
 188 0118 67800000 		jr	ra
 189              		.cfi_endproc
 190              	.LFE16:
 192              		.section	.rodata.str1.8
 193 000a 00000000 		.align	3
 193      0000
 194              	.LC2:
 195 0010 423A2069 		.string	"B: i="
 195      3D00
 196              		.text
 197              		.align	2
 198              		.globl	_Z11workerBodyBPv
 200              	_Z11workerBodyBPv:
 201              	.LFB17:
  29:src/workers.cpp ****     for (uint64 i = 0; i < 16; i++)
 202              		.loc 1 29 1 is_stmt 1
GAS LISTING /tmp/ccI5xzSb.s 			page 6


 203              		.cfi_startproc
 204 011c 130101FE 		addi	sp,sp,-32
 205              		.cfi_def_cfa_offset 32
 206 0120 233C1100 		sd	ra,24(sp)
 207 0124 23388100 		sd	s0,16(sp)
 208 0128 23349100 		sd	s1,8(sp)
 209              		.cfi_offset 1, -8
 210              		.cfi_offset 8, -16
 211              		.cfi_offset 9, -24
 212 012c 13040102 		addi	s0,sp,32
 213              		.cfi_def_cfa 8, 0
  30:src/workers.cpp ****     {
 214              		.loc 1 30 5
 215              	.LVL20:
 216              	.LBB8:
  30:src/workers.cpp ****     {
 217              		.loc 1 30 17 is_stmt 0
 218 0130 93040000 		li	s1,0
 219 0134 6F008003 		j	.L21
 220              	.LVL21:
 221              	.L18:
 222              	.LBB9:
 223              	.LBB10:
  35:src/workers.cpp ****         {
 224              		.loc 1 35 9 is_stmt 1 discriminator 2
 225 0138 93861600 		addi	a3,a3,1
 226              	.LVL22:
 227              	.L20:
  35:src/workers.cpp ****         {
 228              		.loc 1 35 30 discriminator 1
 229 013c B7270000 		li	a5,8192
 230 0140 9387F770 		addi	a5,a5,1807
 231 0144 63EED700 		bgtu	a3,a5,.L17
 232              	.LBB11:
  37:src/workers.cpp ****             {
 233              		.loc 1 37 25 is_stmt 0
 234 0148 13070000 		li	a4,0
 235              	.L19:
 236              	.LVL23:
  37:src/workers.cpp ****             {
 237              		.loc 1 37 34 is_stmt 1 discriminator 3
 238 014c B7770000 		li	a5,28672
 239 0150 9387F752 		addi	a5,a5,1327
 240 0154 E3E2E7FE 		bgtu	a4,a5,.L18
  37:src/workers.cpp ****             {
 241              		.loc 1 37 13 discriminator 2
 242 0158 13071700 		addi	a4,a4,1
 243              	.LVL24:
 244 015c 6FF01FFF 		j	.L19
 245              	.LVL25:
 246              	.L17:
 247              	.LBE11:
 248              	.LBE10:
  43:src/workers.cpp ****     }
 249              		.loc 1 43 9 discriminator 2
  43:src/workers.cpp ****     }
 250              		.loc 1 43 24 is_stmt 0 discriminator 2
GAS LISTING /tmp/ccI5xzSb.s 			page 7


 251 0160 97000000 		call	_Z15thread_dispatchv@plt
 251      E7800000 
 252              	.LVL26:
 253              	.LBE9:
  30:src/workers.cpp ****     {
 254              		.loc 1 30 5 is_stmt 1 discriminator 2
 255 0168 93841400 		addi	s1,s1,1
 256              	.LVL27:
 257              	.L21:
  30:src/workers.cpp ****     {
 258              		.loc 1 30 26 discriminator 1
 259 016c 9307F000 		li	a5,15
 260 0170 63E09704 		bgtu	s1,a5,.L15
 261              	.LBB13:
  32:src/workers.cpp ****         printInt(i);
 262              		.loc 1 32 9
  32:src/workers.cpp ****         printInt(i);
 263              		.loc 1 32 20 is_stmt 0
 264 0174 17050000 		lla	a0,.LC2
 264      13050500 
 265 017c 97000000 		call	_Z11printStringPKc@plt
 265      E7800000 
 266              	.LVL28:
  33:src/workers.cpp ****         printString("\n");
 267              		.loc 1 33 9 is_stmt 1
  33:src/workers.cpp ****         printString("\n");
 268              		.loc 1 33 17 is_stmt 0
 269 0184 13060000 		li	a2,0
 270 0188 9305A000 		li	a1,10
 271 018c 1B850400 		sext.w	a0,s1
 272 0190 97000000 		call	_Z8printIntiii@plt
 272      E7800000 
 273              	.LVL29:
  34:src/workers.cpp ****         for (uint64 j = 0; j < 10000; j++)
 274              		.loc 1 34 9 is_stmt 1
  34:src/workers.cpp ****         for (uint64 j = 0; j < 10000; j++)
 275              		.loc 1 34 20 is_stmt 0
 276 0198 17050000 		lla	a0,.LC1
 276      13050500 
 277 01a0 97000000 		call	_Z11printStringPKc@plt
 277      E7800000 
 278              	.LVL30:
  35:src/workers.cpp ****         {
 279              		.loc 1 35 9 is_stmt 1
 280              	.LBB12:
  35:src/workers.cpp ****         {
 281              		.loc 1 35 21 is_stmt 0
 282 01a8 93060000 		li	a3,0
 283 01ac 6FF01FF9 		j	.L20
 284              	.LVL31:
 285              	.L15:
 286              	.LBE12:
 287              	.LBE13:
 288              	.LBE8:
  45:src/workers.cpp **** 
 289              		.loc 1 45 1
 290 01b0 83308101 		ld	ra,24(sp)
GAS LISTING /tmp/ccI5xzSb.s 			page 8


 291              		.cfi_restore 1
 292 01b4 03340101 		ld	s0,16(sp)
 293              		.cfi_restore 8
 294              		.cfi_def_cfa 2, 32
 295 01b8 83348100 		ld	s1,8(sp)
 296              		.cfi_restore 9
 297              	.LVL32:
 298 01bc 13010102 		addi	sp,sp,32
 299              		.cfi_def_cfa_offset 0
 300 01c0 67800000 		jr	ra
 301              		.cfi_endproc
 302              	.LFE17:
 304              		.section	.rodata.str1.8
 305 0016 0000     		.align	3
 306              	.LC3:
 307 0018 433A2069 		.string	"C: i="
 307      3D00
 308 001e 0000     		.align	3
 309              	.LC4:
 310 0020 433A2079 		.string	"C: yield\n"
 310      69656C64 
 310      0A00
 311 002a 00000000 		.align	3
 311      0000
 312              	.LC5:
 313 0030 433A2074 		.string	"C: t1="
 313      313D00
 314 0037 00       		.align	3
 315              	.LC6:
 316 0038 433A2066 		.string	"C: fibonaci="
 316      69626F6E 
 316      6163693D 
 316      00
 317              		.text
 318              		.align	2
 319              		.globl	_Z11workerBodyCPv
 321              	_Z11workerBodyCPv:
 322              	.LFB19:
  53:src/workers.cpp **** 
  54:src/workers.cpp **** 
  55:src/workers.cpp **** void workerBodyC(void*)
  56:src/workers.cpp **** {
 323              		.loc 1 56 1 is_stmt 1
 324              		.cfi_startproc
 325 01c4 130101FE 		addi	sp,sp,-32
 326              		.cfi_def_cfa_offset 32
 327 01c8 233C1100 		sd	ra,24(sp)
 328 01cc 23388100 		sd	s0,16(sp)
 329 01d0 23349100 		sd	s1,8(sp)
 330 01d4 23302101 		sd	s2,0(sp)
 331              		.cfi_offset 1, -8
 332              		.cfi_offset 8, -16
 333              		.cfi_offset 9, -24
 334              		.cfi_offset 18, -32
 335 01d8 13040102 		addi	s0,sp,32
 336              		.cfi_def_cfa 8, 0
  57:src/workers.cpp ****     uint8 i = 0;
GAS LISTING /tmp/ccI5xzSb.s 			page 9


 337              		.loc 1 57 5
 338              	.LVL33:
 339              		.loc 1 57 11 is_stmt 0
 340 01dc 93040000 		li	s1,0
 341 01e0 6F008004 		j	.L25
 342              	.LVL34:
 343              	.L29:
  58:src/workers.cpp ****     for (; i < 3; i++)
  59:src/workers.cpp ****     {
  60:src/workers.cpp ****         printString("C: i=");
 344              		.loc 1 60 9 is_stmt 1 discriminator 1
 345              		.loc 1 60 20 is_stmt 0 discriminator 1
 346 01e4 17050000 		lla	a0,.LC3
 346      13050500 
 347 01ec 97000000 		call	_Z11printStringPKc@plt
 347      E7800000 
 348              	.LVL35:
  61:src/workers.cpp ****         printInt(i);
 349              		.loc 1 61 9 is_stmt 1 discriminator 1
 350              		.loc 1 61 17 is_stmt 0 discriminator 1
 351 01f4 13060000 		li	a2,0
 352 01f8 9305A000 		li	a1,10
 353 01fc 13850400 		mv	a0,s1
 354 0200 97000000 		call	_Z8printIntiii@plt
 354      E7800000 
 355              	.LVL36:
  62:src/workers.cpp ****         printString("\n");
 356              		.loc 1 62 9 is_stmt 1 discriminator 1
 357              		.loc 1 62 20 is_stmt 0 discriminator 1
 358 0208 17050000 		lla	a0,.LC1
 358      13050500 
 359 0210 97000000 		call	_Z11printStringPKc@plt
 359      E7800000 
 360              	.LVL37:
  63:src/workers.cpp ****         thread_dispatch();
 361              		.loc 1 63 9 is_stmt 1 discriminator 1
 362              		.loc 1 63 24 is_stmt 0 discriminator 1
 363 0218 97000000 		call	_Z15thread_dispatchv@plt
 363      E7800000 
 364              	.LVL38:
  58:src/workers.cpp ****     {
 365              		.loc 1 58 5 is_stmt 1 discriminator 1
 366 0220 9B841400 		addiw	s1,s1,1
 367              	.LVL39:
 368 0224 93F4F40F 		andi	s1,s1,0xff
 369              	.LVL40:
 370              	.L25:
  58:src/workers.cpp ****     {
 371              		.loc 1 58 5 discriminator 2
  58:src/workers.cpp ****     {
 372              		.loc 1 58 14 discriminator 2
 373 0228 93072000 		li	a5,2
 374 022c E3FC97FA 		bleu	s1,a5,.L29
  64:src/workers.cpp ****     }
  65:src/workers.cpp **** 
  66:src/workers.cpp ****     printString("C: yield\n");
 375              		.loc 1 66 5
GAS LISTING /tmp/ccI5xzSb.s 			page 10


 376              		.loc 1 66 16 is_stmt 0
 377 0230 17050000 		lla	a0,.LC4
 377      13050500 
 378 0238 97000000 		call	_Z11printStringPKc@plt
 378      E7800000 
 379              	.LVL41:
  67:src/workers.cpp ****     __asm__ ("li t1, 7");
 380              		.loc 1 67 5 is_stmt 1
 381              		.loc 1 67 25 is_stmt 0
 382              	#APP
 383              	# 67 "src/workers.cpp" 1
  68              	    thread_dispatch();
 384              		li t1, 7
 385              	# 0 "" 2
 386              		.loc 1 68 5 is_stmt 1
 387              		.loc 1 68 20 is_stmt 0
 388              	#NO_APP
 389 0244 97000000 		call	_Z15thread_dispatchv@plt
 389      E7800000 
 390              	.LVL42:
  69:src/workers.cpp **** 
  70:src/workers.cpp ****     uint64 t1 = 0;
 391              		.loc 1 70 5 is_stmt 1
  71:src/workers.cpp ****     __asm__ ("mv %[t1], t1" : [t1] "=r"(t1));
 392              		.loc 1 71 5
 393              		.loc 1 71 45 is_stmt 0
 394              	#APP
 395              	# 71 "src/workers.cpp" 1
  72              	
 396              		mv s2, t1
 397              	# 0 "" 2
 398              	.LVL43:
  73:src/workers.cpp ****     printString("C: t1=");
 399              		.loc 1 73 5 is_stmt 1
 400              		.loc 1 73 16 is_stmt 0
 401              	#NO_APP
 402 0250 17050000 		lla	a0,.LC5
 402      13050500 
 403 0258 97000000 		call	_Z11printStringPKc@plt
 403      E7800000 
 404              	.LVL44:
  74:src/workers.cpp ****     printInt(t1);
 405              		.loc 1 74 5 is_stmt 1
 406              		.loc 1 74 13 is_stmt 0
 407 0260 13060000 		li	a2,0
 408 0264 9305A000 		li	a1,10
 409 0268 1B050900 		sext.w	a0,s2
 410 026c 97000000 		call	_Z8printIntiii@plt
 410      E7800000 
 411              	.LVL45:
  75:src/workers.cpp ****     printString("\n");
 412              		.loc 1 75 5 is_stmt 1
 413              		.loc 1 75 16 is_stmt 0
 414 0274 17050000 		lla	a0,.LC1
 414      13050500 
 415 027c 97000000 		call	_Z11printStringPKc@plt
 415      E7800000 
GAS LISTING /tmp/ccI5xzSb.s 			page 11


 416              	.LVL46:
  76:src/workers.cpp **** 
  77:src/workers.cpp ****     uint64 result = fibonacci(12);
 417              		.loc 1 77 5 is_stmt 1
 418              		.loc 1 77 30 is_stmt 0
 419 0284 1305C000 		li	a0,12
 420 0288 97000000 		call	_ZL9fibonaccim
 420      E7800000 
 421              	.LVL47:
 422 0290 13090500 		mv	s2,a0
 423              	.LVL48:
  78:src/workers.cpp ****     printString("C: fibonaci=");
 424              		.loc 1 78 5 is_stmt 1
 425              		.loc 1 78 16 is_stmt 0
 426 0294 17050000 		lla	a0,.LC6
 426      13050500 
 427              	.LVL49:
 428 029c 97000000 		call	_Z11printStringPKc@plt
 428      E7800000 
 429              	.LVL50:
  79:src/workers.cpp ****     printInt(result);
 430              		.loc 1 79 5 is_stmt 1
 431              		.loc 1 79 13 is_stmt 0
 432 02a4 13060000 		li	a2,0
 433 02a8 9305A000 		li	a1,10
 434 02ac 1B050900 		sext.w	a0,s2
 435 02b0 97000000 		call	_Z8printIntiii@plt
 435      E7800000 
 436              	.LVL51:
  80:src/workers.cpp ****     printString("\n");
 437              		.loc 1 80 5 is_stmt 1
 438              		.loc 1 80 16 is_stmt 0
 439 02b8 17050000 		lla	a0,.LC1
 439      13050500 
 440 02c0 97000000 		call	_Z11printStringPKc@plt
 440      E7800000 
 441              	.LVL52:
 442 02c8 6F000004 		j	.L27
 443              	.L30:
  81:src/workers.cpp **** 
  82:src/workers.cpp ****     for (; i < 6; i++)
  83:src/workers.cpp ****     {
  84:src/workers.cpp ****         printString("C: i=");
 444              		.loc 1 84 9 is_stmt 1 discriminator 1
 445              		.loc 1 84 20 is_stmt 0 discriminator 1
 446 02cc 17050000 		lla	a0,.LC3
 446      13050500 
 447 02d4 97000000 		call	_Z11printStringPKc@plt
 447      E7800000 
 448              	.LVL53:
  85:src/workers.cpp ****         printInt(i);
 449              		.loc 1 85 9 is_stmt 1 discriminator 1
 450              		.loc 1 85 17 is_stmt 0 discriminator 1
 451 02dc 13060000 		li	a2,0
 452 02e0 9305A000 		li	a1,10
 453 02e4 13850400 		mv	a0,s1
 454 02e8 97000000 		call	_Z8printIntiii@plt
GAS LISTING /tmp/ccI5xzSb.s 			page 12


 454      E7800000 
 455              	.LVL54:
  86:src/workers.cpp ****         printString("\n");
 456              		.loc 1 86 9 is_stmt 1 discriminator 1
 457              		.loc 1 86 20 is_stmt 0 discriminator 1
 458 02f0 17050000 		lla	a0,.LC1
 458      13050500 
 459 02f8 97000000 		call	_Z11printStringPKc@plt
 459      E7800000 
 460              	.LVL55:
  82:src/workers.cpp ****     {
 461              		.loc 1 82 5 is_stmt 1 discriminator 1
 462 0300 9B841400 		addiw	s1,s1,1
 463              	.LVL56:
 464 0304 93F4F40F 		andi	s1,s1,0xff
 465              	.LVL57:
 466              	.L27:
  82:src/workers.cpp ****     {
 467              		.loc 1 82 5 discriminator 2
  82:src/workers.cpp ****     {
 468              		.loc 1 82 14 discriminator 2
 469 0308 93075000 		li	a5,5
 470 030c E3F097FC 		bleu	s1,a5,.L30
  87:src/workers.cpp ****     }
  88:src/workers.cpp **** //    TCB::yield();
  89:src/workers.cpp **** }
 471              		.loc 1 89 1 is_stmt 0
 472 0310 83308101 		ld	ra,24(sp)
 473              		.cfi_restore 1
 474 0314 03340101 		ld	s0,16(sp)
 475              		.cfi_restore 8
 476              		.cfi_def_cfa 2, 32
 477 0318 83348100 		ld	s1,8(sp)
 478              		.cfi_restore 9
 479              	.LVL58:
 480 031c 03390100 		ld	s2,0(sp)
 481              		.cfi_restore 18
 482              	.LVL59:
 483 0320 13010102 		addi	sp,sp,32
 484              		.cfi_def_cfa_offset 0
 485 0324 67800000 		jr	ra
 486              		.cfi_endproc
 487              	.LFE19:
 489              		.section	.rodata.str1.8
 490 0045 000000   		.align	3
 491              	.LC7:
 492 0048 443A2069 		.string	"D: i="
 492      3D00
 493 004e 0000     		.align	3
 494              	.LC8:
 495 0050 443A2079 		.string	"D: yield\n"
 495      69656C64 
 495      0A00
 496 005a 00000000 		.align	3
 496      0000
 497              	.LC9:
 498 0060 443A2066 		.string	"D: fibonaci="
GAS LISTING /tmp/ccI5xzSb.s 			page 13


 498      69626F6E 
 498      6163693D 
 498      00
 499              		.text
 500              		.align	2
 501              		.globl	_Z11workerBodyDPv
 503              	_Z11workerBodyDPv:
 504              	.LFB20:
  90:src/workers.cpp **** 
  91:src/workers.cpp **** void workerBodyD(void*)
  92:src/workers.cpp **** {
 505              		.loc 1 92 1 is_stmt 1
 506              		.cfi_startproc
 507 0328 130101FE 		addi	sp,sp,-32
 508              		.cfi_def_cfa_offset 32
 509 032c 233C1100 		sd	ra,24(sp)
 510 0330 23388100 		sd	s0,16(sp)
 511 0334 23349100 		sd	s1,8(sp)
 512 0338 23302101 		sd	s2,0(sp)
 513              		.cfi_offset 1, -8
 514              		.cfi_offset 8, -16
 515              		.cfi_offset 9, -24
 516              		.cfi_offset 18, -32
 517 033c 13040102 		addi	s0,sp,32
 518              		.cfi_def_cfa 8, 0
  93:src/workers.cpp ****     uint8 i = 10;
 519              		.loc 1 93 5
 520              	.LVL60:
 521              		.loc 1 93 11 is_stmt 0
 522 0340 9304A000 		li	s1,10
 523 0344 6F008004 		j	.L33
 524              	.LVL61:
 525              	.L37:
  94:src/workers.cpp ****     for (; i < 13; i++)
  95:src/workers.cpp ****     {
  96:src/workers.cpp ****         printString("D: i=");
 526              		.loc 1 96 9 is_stmt 1 discriminator 1
 527              		.loc 1 96 20 is_stmt 0 discriminator 1
 528 0348 17050000 		lla	a0,.LC7
 528      13050500 
 529 0350 97000000 		call	_Z11printStringPKc@plt
 529      E7800000 
 530              	.LVL62:
  97:src/workers.cpp ****         printInt(i);
 531              		.loc 1 97 9 is_stmt 1 discriminator 1
 532              		.loc 1 97 17 is_stmt 0 discriminator 1
 533 0358 13060000 		li	a2,0
 534 035c 9305A000 		li	a1,10
 535 0360 13850400 		mv	a0,s1
 536 0364 97000000 		call	_Z8printIntiii@plt
 536      E7800000 
 537              	.LVL63:
  98:src/workers.cpp ****         printString("\n");
 538              		.loc 1 98 9 is_stmt 1 discriminator 1
 539              		.loc 1 98 20 is_stmt 0 discriminator 1
 540 036c 17050000 		lla	a0,.LC1
 540      13050500 
GAS LISTING /tmp/ccI5xzSb.s 			page 14


 541 0374 97000000 		call	_Z11printStringPKc@plt
 541      E7800000 
 542              	.LVL64:
  99:src/workers.cpp ****         thread_dispatch();
 543              		.loc 1 99 9 is_stmt 1 discriminator 1
 544              		.loc 1 99 24 is_stmt 0 discriminator 1
 545 037c 97000000 		call	_Z15thread_dispatchv@plt
 545      E7800000 
 546              	.LVL65:
  94:src/workers.cpp ****     {
 547              		.loc 1 94 5 is_stmt 1 discriminator 1
 548 0384 9B841400 		addiw	s1,s1,1
 549              	.LVL66:
 550 0388 93F4F40F 		andi	s1,s1,0xff
 551              	.LVL67:
 552              	.L33:
  94:src/workers.cpp ****     {
 553              		.loc 1 94 5 discriminator 2
  94:src/workers.cpp ****     {
 554              		.loc 1 94 14 discriminator 2
 555 038c 9307C000 		li	a5,12
 556 0390 E3FC97FA 		bleu	s1,a5,.L37
 100:src/workers.cpp ****     }
 101:src/workers.cpp **** 
 102:src/workers.cpp ****     printString("D: yield\n");
 557              		.loc 1 102 5
 558              		.loc 1 102 16 is_stmt 0
 559 0394 17050000 		lla	a0,.LC8
 559      13050500 
 560 039c 97000000 		call	_Z11printStringPKc@plt
 560      E7800000 
 561              	.LVL68:
 103:src/workers.cpp ****     __asm__ ("li t1, 5");
 562              		.loc 1 103 5 is_stmt 1
 563              		.loc 1 103 25 is_stmt 0
 564              	#APP
 565              	# 103 "src/workers.cpp" 1
 104              	    thread_dispatch();
 566              		li t1, 5
 567              	# 0 "" 2
 568              		.loc 1 104 5 is_stmt 1
 569              		.loc 1 104 20 is_stmt 0
 570              	#NO_APP
 571 03a8 97000000 		call	_Z15thread_dispatchv@plt
 571      E7800000 
 572              	.LVL69:
 105:src/workers.cpp **** 
 106:src/workers.cpp ****     uint64 result = fibonacci(16);
 573              		.loc 1 106 5 is_stmt 1
 574              		.loc 1 106 30 is_stmt 0
 575 03b0 13050001 		li	a0,16
 576 03b4 97000000 		call	_ZL9fibonaccim
 576      E7800000 
 577              	.LVL70:
 578 03bc 13090500 		mv	s2,a0
 579              	.LVL71:
 107:src/workers.cpp ****     printString("D: fibonaci=");
GAS LISTING /tmp/ccI5xzSb.s 			page 15


 580              		.loc 1 107 5 is_stmt 1
 581              		.loc 1 107 16 is_stmt 0
 582 03c0 17050000 		lla	a0,.LC9
 582      13050500 
 583              	.LVL72:
 584 03c8 97000000 		call	_Z11printStringPKc@plt
 584      E7800000 
 585              	.LVL73:
 108:src/workers.cpp ****     printInt(result);
 586              		.loc 1 108 5 is_stmt 1
 587              		.loc 1 108 13 is_stmt 0
 588 03d0 13060000 		li	a2,0
 589 03d4 9305A000 		li	a1,10
 590 03d8 1B050900 		sext.w	a0,s2
 591 03dc 97000000 		call	_Z8printIntiii@plt
 591      E7800000 
 592              	.LVL74:
 109:src/workers.cpp ****     printString("\n");
 593              		.loc 1 109 5 is_stmt 1
 594              		.loc 1 109 16 is_stmt 0
 595 03e4 17050000 		lla	a0,.LC1
 595      13050500 
 596 03ec 97000000 		call	_Z11printStringPKc@plt
 596      E7800000 
 597              	.LVL75:
 598 03f4 6F008004 		j	.L35
 599              	.L38:
 110:src/workers.cpp **** 
 111:src/workers.cpp ****     for (; i < 16; i++)
 112:src/workers.cpp ****     {
 113:src/workers.cpp ****         printString("D: i=");
 600              		.loc 1 113 9 is_stmt 1 discriminator 1
 601              		.loc 1 113 20 is_stmt 0 discriminator 1
 602 03f8 17050000 		lla	a0,.LC7
 602      13050500 
 603 0400 97000000 		call	_Z11printStringPKc@plt
 603      E7800000 
 604              	.LVL76:
 114:src/workers.cpp ****         printInt(i);
 605              		.loc 1 114 9 is_stmt 1 discriminator 1
 606              		.loc 1 114 17 is_stmt 0 discriminator 1
 607 0408 13060000 		li	a2,0
 608 040c 9305A000 		li	a1,10
 609 0410 13850400 		mv	a0,s1
 610 0414 97000000 		call	_Z8printIntiii@plt
 610      E7800000 
 611              	.LVL77:
 115:src/workers.cpp ****         printString("\n");
 612              		.loc 1 115 9 is_stmt 1 discriminator 1
 613              		.loc 1 115 20 is_stmt 0 discriminator 1
 614 041c 17050000 		lla	a0,.LC1
 614      13050500 
 615 0424 97000000 		call	_Z11printStringPKc@plt
 615      E7800000 
 616              	.LVL78:
 116:src/workers.cpp ****         thread_dispatch();
 617              		.loc 1 116 9 is_stmt 1 discriminator 1
GAS LISTING /tmp/ccI5xzSb.s 			page 16


 618              		.loc 1 116 24 is_stmt 0 discriminator 1
 619 042c 97000000 		call	_Z15thread_dispatchv@plt
 619      E7800000 
 620              	.LVL79:
 111:src/workers.cpp ****     {
 621              		.loc 1 111 5 is_stmt 1 discriminator 1
 622 0434 9B841400 		addiw	s1,s1,1
 623              	.LVL80:
 624 0438 93F4F40F 		andi	s1,s1,0xff
 625              	.LVL81:
 626              	.L35:
 111:src/workers.cpp ****     {
 627              		.loc 1 111 5 discriminator 2
 111:src/workers.cpp ****     {
 628              		.loc 1 111 14 discriminator 2
 629 043c 9307F000 		li	a5,15
 630 0440 E3FC97FA 		bleu	s1,a5,.L38
 117:src/workers.cpp ****     }
 118:src/workers.cpp **** //    TCB::yield();
 119:src/workers.cpp **** }...
 631              		.loc 1 119 1 is_stmt 0
 632 0444 83308101 		ld	ra,24(sp)
 633              		.cfi_restore 1
 634 0448 03340101 		ld	s0,16(sp)
 635              		.cfi_restore 8
 636              		.cfi_def_cfa 2, 32
 637 044c 83348100 		ld	s1,8(sp)
 638              		.cfi_restore 9
 639              	.LVL82:
 640 0450 03390100 		ld	s2,0(sp)
 641              		.cfi_restore 18
 642              	.LVL83:
 643 0454 13010102 		addi	sp,sp,32
 644              		.cfi_def_cfa_offset 0
 645 0458 67800000 		jr	ra
 646              		.cfi_endproc
 647              	.LFE20:
 649              	.Letext0:
 650              		.file 2 "src/../test/../h/../lib/hw.h"
 651              		.file 3 "src/../test/../h/syscall_c.hpp"
 652              		.file 4 "src/../test/printing.hpp"
GAS LISTING /tmp/ccI5xzSb.s 			page 17

