GAS LISTING /tmp/cc812PIM.s 			page 1


   1              		.file	"ThreadSleep_C_API_test.cpp"
   2              		.option pic
   3              		.option norelax
   4              		.text
   5              	.Ltext0:
   6              		.section	.rodata.str1.8,"aMS",@progbits,1
   7              		.align	3
   8              	.LC0:
   9 0000 48656C6C 		.string	"Hello "
   9      6F2000
  10 0007 00       		.align	3
  11              	.LC1:
  12 0008 20210A00 		.string	" !\n"
  13              		.text
  14              		.align	2
  16              	_ZL9sleepyRunPv:
  17              	.LFB16:
  18              		.file 1 "test/ThreadSleep_C_API_test.cpp"
   1:test/ThreadSleep_C_API_test.cpp **** #include "../h/syscall_c.hpp"
   2:test/ThreadSleep_C_API_test.cpp **** 
   3:test/ThreadSleep_C_API_test.cpp **** #include "printing.hpp"
   4:test/ThreadSleep_C_API_test.cpp **** 
   5:test/ThreadSleep_C_API_test.cpp **** static volatile bool finished[2];
   6:test/ThreadSleep_C_API_test.cpp **** 
   7:test/ThreadSleep_C_API_test.cpp **** static void sleepyRun(void *arg) {
  19              		.loc 1 7 34
  20              		.cfi_startproc
  21              	.LVL0:
  22 0000 130101FE 		addi	sp,sp,-32
  23              		.cfi_def_cfa_offset 32
  24 0004 233C1100 		sd	ra,24(sp)
  25 0008 23388100 		sd	s0,16(sp)
  26 000c 23349100 		sd	s1,8(sp)
  27 0010 23302101 		sd	s2,0(sp)
  28              		.cfi_offset 1, -8
  29              		.cfi_offset 8, -16
  30              		.cfi_offset 9, -24
  31              		.cfi_offset 18, -32
  32 0014 13040102 		addi	s0,sp,32
  33              		.cfi_def_cfa 8, 0
   8:test/ThreadSleep_C_API_test.cpp ****     time_t sleep_time = *((time_t *) arg);
  34              		.loc 1 8 5
  35              		.loc 1 8 12 is_stmt 0
  36 0018 03390500 		ld	s2,0(a0)
  37              	.LVL1:
   9:test/ThreadSleep_C_API_test.cpp ****     int i = 6;
  38              		.loc 1 9 5 is_stmt 1
  39              		.loc 1 9 9 is_stmt 0
  40 001c 93046000 		li	s1,6
  41              	.LVL2:
  42              	.L3:
  10:test/ThreadSleep_C_API_test.cpp ****     while (--i > 0) {
  43              		.loc 1 10 5 is_stmt 1
  44              		.loc 1 10 16
  45 0020 9B84F4FF 		addiw	s1,s1,-1
  46              	.LVL3:
  47 0024 63549004 		blez	s1,.L2
GAS LISTING /tmp/cc812PIM.s 			page 2


  11:test/ThreadSleep_C_API_test.cpp **** 
  12:test/ThreadSleep_C_API_test.cpp ****         printString("Hello ");
  48              		.loc 1 12 9
  49              		.loc 1 12 20 is_stmt 0
  50 0028 17050000 		lla	a0,.LC0
  50      13050500 
  51 0030 97000000 		call	_Z11printStringPKc@plt
  51      E7800000 
  52              	.LVL4:
  13:test/ThreadSleep_C_API_test.cpp ****         printInt(sleep_time);
  53              		.loc 1 13 9 is_stmt 1
  54              		.loc 1 13 17 is_stmt 0
  55 0038 13060000 		li	a2,0
  56 003c 9305A000 		li	a1,10
  57 0040 1B050900 		sext.w	a0,s2
  58 0044 97000000 		call	_Z8printIntiii@plt
  58      E7800000 
  59              	.LVL5:
  14:test/ThreadSleep_C_API_test.cpp ****         printString(" !\n");
  60              		.loc 1 14 9 is_stmt 1
  61              		.loc 1 14 20 is_stmt 0
  62 004c 17050000 		lla	a0,.LC1
  62      13050500 
  63 0054 97000000 		call	_Z11printStringPKc@plt
  63      E7800000 
  64              	.LVL6:
  15:test/ThreadSleep_C_API_test.cpp ****         time_sleep(sleep_time);
  65              		.loc 1 15 9 is_stmt 1
  66              		.loc 1 15 19 is_stmt 0
  67 005c 13050900 		mv	a0,s2
  68 0060 97000000 		call	_Z10time_sleepm@plt
  68      E7800000 
  69              	.LVL7:
  10:test/ThreadSleep_C_API_test.cpp **** 
  70              		.loc 1 10 5
  71 0068 6FF09FFB 		j	.L3
  72              	.L2:
  16:test/ThreadSleep_C_API_test.cpp ****     }
  17:test/ThreadSleep_C_API_test.cpp ****     finished[sleep_time/10-1] = true;
  73              		.loc 1 17 5 is_stmt 1
  74              		.loc 1 17 24 is_stmt 0
  75 006c 9307A000 		li	a5,10
  76 0070 3359F902 		divu	s2,s2,a5
  77              	.LVL8:
  78              		.loc 1 17 27
  79 0074 1309F9FF 		addi	s2,s2,-1
  80              		.loc 1 17 31
  81 0078 97070000 		lla	a5,.LANCHOR0
  81      93870700 
  82 0080 33892701 		add	s2,a5,s2
  83 0084 93071000 		li	a5,1
  84 0088 2300F900 		sb	a5,0(s2)
  18:test/ThreadSleep_C_API_test.cpp **** }
  85              		.loc 1 18 1
  86 008c 83308101 		ld	ra,24(sp)
  87              		.cfi_restore 1
  88 0090 03340101 		ld	s0,16(sp)
GAS LISTING /tmp/cc812PIM.s 			page 3


  89              		.cfi_restore 8
  90              		.cfi_def_cfa 2, 32
  91 0094 83348100 		ld	s1,8(sp)
  92              		.cfi_restore 9
  93 0098 03390100 		ld	s2,0(sp)
  94              		.cfi_restore 18
  95 009c 13010102 		addi	sp,sp,32
  96              		.cfi_def_cfa_offset 0
  97 00a0 67800000 		jr	ra
  98              		.cfi_endproc
  99              	.LFE16:
 101              		.align	2
 102              		.globl	_Z12testSleepingv
 104              	_Z12testSleepingv:
 105              	.LFB17:
  19:test/ThreadSleep_C_API_test.cpp **** 
  20:test/ThreadSleep_C_API_test.cpp **** void testSleeping() {
 106              		.loc 1 20 21 is_stmt 1
 107              		.cfi_startproc
 108 00a4 130101FC 		addi	sp,sp,-64
 109              		.cfi_def_cfa_offset 64
 110 00a8 233C1102 		sd	ra,56(sp)
 111 00ac 23388102 		sd	s0,48(sp)
 112 00b0 23349102 		sd	s1,40(sp)
 113              		.cfi_offset 1, -8
 114              		.cfi_offset 8, -16
 115              		.cfi_offset 9, -24
 116 00b4 13040104 		addi	s0,sp,64
 117              		.cfi_def_cfa 8, 0
  21:test/ThreadSleep_C_API_test.cpp ****     const int sleepy_thread_count = 2;
 118              		.loc 1 21 5
 119              	.LVL9:
  22:test/ThreadSleep_C_API_test.cpp ****     time_t sleep_times[sleepy_thread_count] = {10, 20};
 120              		.loc 1 22 5
 121              		.loc 1 22 12 is_stmt 0
 122 00b8 9307A000 		li	a5,10
 123 00bc 2338F4FC 		sd	a5,-48(s0)
 124 00c0 93074001 		li	a5,20
 125 00c4 233CF4FC 		sd	a5,-40(s0)
  23:test/ThreadSleep_C_API_test.cpp ****     thread_t sleepyThread[sleepy_thread_count];
 126              		.loc 1 23 5 is_stmt 1
  24:test/ThreadSleep_C_API_test.cpp **** 
  25:test/ThreadSleep_C_API_test.cpp ****     for (int i = 0; i < sleepy_thread_count; i++) {
 127              		.loc 1 25 5
 128              	.LVL10:
 129              	.LBB2:
 130              		.loc 1 25 14 is_stmt 0
 131 00c8 93040000 		li	s1,0
 132 00cc 6F00C002 		j	.L7
 133              	.LVL11:
 134              	.L10:
  26:test/ThreadSleep_C_API_test.cpp ****         thread_create(&sleepyThread[i], sleepyRun, sleep_times + i);
 135              		.loc 1 26 9 is_stmt 1
 136              		.loc 1 26 64 is_stmt 0
 137 00d0 93973400 		slli	a5,s1,3
 138              		.loc 1 26 22
 139 00d4 130604FD 		addi	a2,s0,-48
GAS LISTING /tmp/cc812PIM.s 			page 4


 140 00d8 3306F600 		add	a2,a2,a5
 141 00dc 97050000 		lla	a1,_ZL9sleepyRunPv
 141      93850500 
 142 00e4 130504FC 		addi	a0,s0,-64
 143 00e8 3305F500 		add	a0,a0,a5
 144 00ec 97000000 		call	_Z13thread_createPP7_threadPFvPvES2_@plt
 144      E7800000 
 145              	.LVL12:
  25:test/ThreadSleep_C_API_test.cpp ****         thread_create(&sleepyThread[i], sleepyRun, sleep_times + i);
 146              		.loc 1 25 5 is_stmt 1
 147 00f4 9B841400 		addiw	s1,s1,1
 148              	.LVL13:
 149              	.L7:
  25:test/ThreadSleep_C_API_test.cpp ****         thread_create(&sleepyThread[i], sleepyRun, sleep_times + i);
 150              		.loc 1 25 23 discriminator 1
 151 00f8 93071000 		li	a5,1
 152 00fc E3DA97FC 		ble	s1,a5,.L10
 153              	.L8:
 154              	.LBE2:
  27:test/ThreadSleep_C_API_test.cpp ****     }
  28:test/ThreadSleep_C_API_test.cpp **** 
  29:test/ThreadSleep_C_API_test.cpp ****     while (!(finished[0] && finished[1])) {}
 155              		.loc 1 29 5
 156              		.loc 1 29 12
 157              		.loc 1 29 24 is_stmt 0
 158 0100 97070000 		lbu	a5,.LANCHOR0
 158      83C70700 
 159              		.loc 1 29 12
 160 0108 E38C07FE 		beqz	a5,.L8
 161              		.loc 1 29 39 discriminator 2
 162 010c 97070000 		lbu	a5,.LANCHOR0+1
 162      83C70700 
 163              		.loc 1 29 12 discriminator 2
 164 0114 E38607FE 		beqz	a5,.L8
  30:test/ThreadSleep_C_API_test.cpp **** }
 165              		.loc 1 30 1
 166 0118 83308103 		ld	ra,56(sp)
 167              		.cfi_restore 1
 168 011c 03340103 		ld	s0,48(sp)
 169              		.cfi_restore 8
 170              		.cfi_def_cfa 2, 64
 171 0120 83348102 		ld	s1,40(sp)
 172              		.cfi_restore 9
 173              	.LVL14:
 174 0124 13010104 		addi	sp,sp,64
 175              		.cfi_def_cfa_offset 0
 176 0128 67800000 		jr	ra
 177              		.cfi_endproc
 178              	.LFE17:
 180              		.bss
 181              		.align	3
 182              		.set	.LANCHOR0,. + 0
 185              	_ZL8finished:
 186 0000 0000     		.zero	2
 187              		.text
 188              	.Letext0:
 189              		.file 2 "test/../h/../lib/hw.h"
GAS LISTING /tmp/cc812PIM.s 			page 5


 190              		.file 3 "test/../h/../h/thread.hpp"
 191              		.file 4 "test/../h/../h/sem.hpp"
 192              		.file 5 "test/../h/syscall_c.hpp"
 193              		.file 6 "test/../h/../h/../test/printing.hpp"
GAS LISTING /tmp/cc812PIM.s 			page 6


DEFINED SYMBOLS
                            *ABS*:0000000000000000 ThreadSleep_C_API_test.cpp
     /tmp/cc812PIM.s:16     .text:0000000000000000 _ZL9sleepyRunPv
     /tmp/cc812PIM.s:20     .text:0000000000000000 .L0 
     /tmp/cc812PIM.s:22     .text:0000000000000000 .L0 
     /tmp/cc812PIM.s:23     .text:0000000000000004 .L0 
     /tmp/cc812PIM.s:28     .text:0000000000000014 .L0 
     /tmp/cc812PIM.s:29     .text:0000000000000014 .L0 
     /tmp/cc812PIM.s:30     .text:0000000000000014 .L0 
     /tmp/cc812PIM.s:31     .text:0000000000000014 .L0 
     /tmp/cc812PIM.s:33     .text:0000000000000018 .L0 
     /tmp/cc812PIM.s:35     .text:0000000000000018 .L0 
     /tmp/cc812PIM.s:36     .text:0000000000000018 .L0 
     /tmp/cc812PIM.s:39     .text:000000000000001c .L0 
     /tmp/cc812PIM.s:40     .text:000000000000001c .L0 
     /tmp/cc812PIM.s:44     .text:0000000000000020 .L0 
     /tmp/cc812PIM.s:45     .text:0000000000000020 .L0 
     /tmp/cc812PIM.s:49     .text:0000000000000028 .L0 
     /tmp/cc812PIM.s:50     .text:0000000000000028 .L0 
     /tmp/cc812PIM.s:54     .text:0000000000000038 .L0 
     /tmp/cc812PIM.s:55     .text:0000000000000038 .L0 
     /tmp/cc812PIM.s:61     .text:000000000000004c .L0 
     /tmp/cc812PIM.s:62     .text:000000000000004c .L0 
     /tmp/cc812PIM.s:66     .text:000000000000005c .L0 
     /tmp/cc812PIM.s:67     .text:000000000000005c .L0 
     /tmp/cc812PIM.s:71     .text:0000000000000068 .L0 
     /tmp/cc812PIM.s:74     .text:000000000000006c .L0 
     /tmp/cc812PIM.s:75     .text:000000000000006c .L0 
     /tmp/cc812PIM.s:79     .text:0000000000000074 .L0 
     /tmp/cc812PIM.s:81     .text:0000000000000078 .L0 
     /tmp/cc812PIM.s:86     .text:000000000000008c .L0 
     /tmp/cc812PIM.s:87     .text:0000000000000090 .L0 
     /tmp/cc812PIM.s:89     .text:0000000000000094 .L0 
     /tmp/cc812PIM.s:90     .text:0000000000000094 .L0 
     /tmp/cc812PIM.s:92     .text:0000000000000098 .L0 
     /tmp/cc812PIM.s:94     .text:000000000000009c .L0 
     /tmp/cc812PIM.s:96     .text:00000000000000a0 .L0 
     /tmp/cc812PIM.s:98     .text:00000000000000a4 .L0 
     /tmp/cc812PIM.s:104    .text:00000000000000a4 _Z12testSleepingv
     /tmp/cc812PIM.s:107    .text:00000000000000a4 .L0 
     /tmp/cc812PIM.s:108    .text:00000000000000a4 .L0 
     /tmp/cc812PIM.s:109    .text:00000000000000a8 .L0 
     /tmp/cc812PIM.s:113    .text:00000000000000b4 .L0 
     /tmp/cc812PIM.s:114    .text:00000000000000b4 .L0 
     /tmp/cc812PIM.s:115    .text:00000000000000b4 .L0 
     /tmp/cc812PIM.s:117    .text:00000000000000b8 .L0 
     /tmp/cc812PIM.s:120    .text:00000000000000b8 .L0 
     /tmp/cc812PIM.s:121    .text:00000000000000b8 .L0 
     /tmp/cc812PIM.s:122    .text:00000000000000b8 .L0 
     /tmp/cc812PIM.s:127    .text:00000000000000c8 .L0 
     /tmp/cc812PIM.s:130    .text:00000000000000c8 .L0 
     /tmp/cc812PIM.s:131    .text:00000000000000c8 .L0 
     /tmp/cc812PIM.s:136    .text:00000000000000d0 .L0 
     /tmp/cc812PIM.s:137    .text:00000000000000d0 .L0 
     /tmp/cc812PIM.s:139    .text:00000000000000d4 .L0 
     /tmp/cc812PIM.s:147    .text:00000000000000f4 .L0 
     /tmp/cc812PIM.s:151    .text:00000000000000f8 .L0 
GAS LISTING /tmp/cc812PIM.s 			page 7


     /tmp/cc812PIM.s:156    .text:0000000000000100 .L0 
     /tmp/cc812PIM.s:157    .text:0000000000000100 .L0 
     /tmp/cc812PIM.s:158    .text:0000000000000100 .L0 
     /tmp/cc812PIM.s:160    .text:0000000000000108 .L0 
     /tmp/cc812PIM.s:162    .text:000000000000010c .L0 
     /tmp/cc812PIM.s:164    .text:0000000000000114 .L0 
     /tmp/cc812PIM.s:166    .text:0000000000000118 .L0 
     /tmp/cc812PIM.s:167    .text:000000000000011c .L0 
     /tmp/cc812PIM.s:169    .text:0000000000000120 .L0 
     /tmp/cc812PIM.s:170    .text:0000000000000120 .L0 
     /tmp/cc812PIM.s:172    .text:0000000000000124 .L0 
     /tmp/cc812PIM.s:175    .text:0000000000000128 .L0 
     /tmp/cc812PIM.s:177    .text:000000000000012c .L0 
     /tmp/cc812PIM.s:182    .bss:0000000000000000 .LANCHOR0
     /tmp/cc812PIM.s:185    .bss:0000000000000000 _ZL8finished
     /tmp/cc812PIM.s:194    .text:000000000000012c .L0 
     /tmp/cc812PIM.s:8      .rodata.str1.8:0000000000000000 .LC0
     /tmp/cc812PIM.s:50     .text:0000000000000028 .L0 
     /tmp/cc812PIM.s:11     .rodata.str1.8:0000000000000008 .LC1
     /tmp/cc812PIM.s:62     .text:000000000000004c .L0 
     /tmp/cc812PIM.s:81     .text:0000000000000078 .L0 
     /tmp/cc812PIM.s:141    .text:00000000000000dc .L0 
     /tmp/cc812PIM.s:158    .text:0000000000000100 .L0 
     /tmp/cc812PIM.s:162    .text:000000000000010c .L0 
     /tmp/cc812PIM.s:72     .text:000000000000006c .L2
     /tmp/cc812PIM.s:42     .text:0000000000000020 .L3
     /tmp/cc812PIM.s:149    .text:00000000000000f8 .L7
     /tmp/cc812PIM.s:134    .text:00000000000000d0 .L10
     /tmp/cc812PIM.s:153    .text:0000000000000100 .L8
     /tmp/cc812PIM.s:988    .debug_abbrev:0000000000000000 .Ldebug_abbrev0
     /tmp/cc812PIM.s:1804   .debug_str:0000000000000455 .LASF84
     /tmp/cc812PIM.s:1714   .debug_str:00000000000001de .LASF85
     /tmp/cc812PIM.s:1698   .debug_str:000000000000014b .LASF86
     /tmp/cc812PIM.s:5      .text:0000000000000000 .Ltext0
     /tmp/cc812PIM.s:188    .text:000000000000012c .Letext0
     /tmp/cc812PIM.s:1648   .debug_line:0000000000000000 .Ldebug_line0
     /tmp/cc812PIM.s:1750   .debug_str:00000000000002c8 .LASF0
     /tmp/cc812PIM.s:1766   .debug_str:0000000000000329 .LASF1
     /tmp/cc812PIM.s:1738   .debug_str:000000000000025f .LASF2
     /tmp/cc812PIM.s:1720   .debug_str:000000000000020b .LASF4
     /tmp/cc812PIM.s:1792   .debug_str:00000000000003ed .LASF3
     /tmp/cc812PIM.s:1662   .debug_str:0000000000000048 .LASF5
     /tmp/cc812PIM.s:1684   .debug_str:00000000000000ea .LASF6
     /tmp/cc812PIM.s:1770   .debug_str:000000000000034b .LASF7
     /tmp/cc812PIM.s:1748   .debug_str:00000000000002b5 .LASF8
     /tmp/cc812PIM.s:1816   .debug_str:0000000000000572 .LASF9
     /tmp/cc812PIM.s:1708   .debug_str:00000000000001a6 .LASF10
     /tmp/cc812PIM.s:1774   .debug_str:0000000000000368 .LASF11
     /tmp/cc812PIM.s:1808   .debug_str:0000000000000525 .LASF12
     /tmp/cc812PIM.s:1664   .debug_str:000000000000004f .LASF13
     /tmp/cc812PIM.s:1654   .debug_str:0000000000000018 .LASF14
     /tmp/cc812PIM.s:1670   .debug_str:0000000000000073 .LASF15
     /tmp/cc812PIM.s:1786   .debug_str:00000000000003ba .LASF16
     /tmp/cc812PIM.s:1676   .debug_str:00000000000000a1 .LASF17
     /tmp/cc812PIM.s:1716   .debug_str:00000000000001fe .LASF18
     /tmp/cc812PIM.s:1658   .debug_str:0000000000000035 .LASF19
     /tmp/cc812PIM.s:1734   .debug_str:0000000000000255 .LASF20
GAS LISTING /tmp/cc812PIM.s 			page 8


     /tmp/cc812PIM.s:1784   .debug_str:00000000000003b5 .LASF21
     /tmp/cc812PIM.s:1826   .debug_str:00000000000005de .LASF22
     /tmp/cc812PIM.s:1724   .debug_str:000000000000021b .LASF23
     /tmp/cc812PIM.s:1762   .debug_str:0000000000000316 .LASF24
     /tmp/cc812PIM.s:1722   .debug_str:0000000000000212 .LASF25
     /tmp/cc812PIM.s:1756   .debug_str:00000000000002ec .LASF26
     /tmp/cc812PIM.s:1726   .debug_str:0000000000000220 .LASF27
     /tmp/cc812PIM.s:1758   .debug_str:00000000000002f2 .LASF28
     /tmp/cc812PIM.s:1796   .debug_str:0000000000000420 .LASF29
     /tmp/cc812PIM.s:1668   .debug_str:0000000000000069 .LASF30
     /tmp/cc812PIM.s:1782   .debug_str:00000000000003aa .LASF31
     /tmp/cc812PIM.s:1764   .debug_str:000000000000031e .LASF32
     /tmp/cc812PIM.s:1760   .debug_str:00000000000002fc .LASF34
     /tmp/cc812PIM.s:1800   .debug_str:0000000000000430 .LASF33
     /tmp/cc812PIM.s:1802   .debug_str:000000000000043b .LASF35
     /tmp/cc812PIM.s:1746   .debug_str:00000000000002a3 .LASF36
     /tmp/cc812PIM.s:1794   .debug_str:00000000000003ff .LASF37
     /tmp/cc812PIM.s:1798   .debug_str:000000000000042b .LASF38
     /tmp/cc812PIM.s:1818   .debug_str:0000000000000582 .LASF39
     /tmp/cc812PIM.s:1680   .debug_str:00000000000000cd .LASF40
     /tmp/cc812PIM.s:1736   .debug_str:000000000000025a .LASF41
     /tmp/cc812PIM.s:1706   .debug_str:000000000000019e .LASF56
     /tmp/cc812PIM.s:1682   .debug_str:00000000000000d2 .LASF69
     /tmp/cc812PIM.s:1790   .debug_str:00000000000003e6 .LASF42
     /tmp/cc812PIM.s:1704   .debug_str:0000000000000189 .LASF44
     /tmp/cc812PIM.s:1828   .debug_str:00000000000005e3 .LASF43
     /tmp/cc812PIM.s:1686   .debug_str:00000000000000f1 .LASF45
     /tmp/cc812PIM.s:1728   .debug_str:0000000000000228 .LASF46
     /tmp/cc812PIM.s:1690   .debug_str:0000000000000119 .LASF47
     /tmp/cc812PIM.s:1656   .debug_str:0000000000000028 .LASF48
     /tmp/cc812PIM.s:1824   .debug_str:00000000000005b3 .LASF49
     /tmp/cc812PIM.s:1732   .debug_str:0000000000000247 .LASF50
     /tmp/cc812PIM.s:1712   .debug_str:00000000000001c1 .LASF51
     /tmp/cc812PIM.s:1652   .debug_str:0000000000000009 .LASF52
     /tmp/cc812PIM.s:1814   .debug_str:0000000000000554 .LASF53
     /tmp/cc812PIM.s:1694   .debug_str:000000000000012b .LASF54
     /tmp/cc812PIM.s:1718   .debug_str:0000000000000206 .LASF55
     /tmp/cc812PIM.s:1696   .debug_str:0000000000000130 .LASF57
     /tmp/cc812PIM.s:1806   .debug_str:0000000000000519 .LASF58
     /tmp/cc812PIM.s:1812   .debug_str:000000000000053c .LASF60
     /tmp/cc812PIM.s:1666   .debug_str:000000000000005f .LASF59
     /tmp/cc812PIM.s:1788   .debug_str:00000000000003d0 .LASF61
     /tmp/cc812PIM.s:1810   .debug_str:0000000000000534 .LASF62
     /tmp/cc812PIM.s:1776   .debug_str:0000000000000377 .LASF63
     /tmp/cc812PIM.s:1744   .debug_str:000000000000029b .LASF64
     /tmp/cc812PIM.s:1674   .debug_str:000000000000008c .LASF65
     /tmp/cc812PIM.s:1772   .debug_str:000000000000035e .LASF66
     /tmp/cc812PIM.s:1700   .debug_str:0000000000000169 .LASF67
     /tmp/cc812PIM.s:1740   .debug_str:000000000000026d .LASF68
     /tmp/cc812PIM.s:1678   .debug_str:00000000000000b7 .LASF70
     /tmp/cc812PIM.s:1650   .debug_str:0000000000000000 .LASF71
     /tmp/cc812PIM.s:1710   .debug_str:00000000000001b4 .LASF87
     /tmp/cc812PIM.s:1730   .debug_str:0000000000000235 .LASF88
     /tmp/cc812PIM.s:105    .text:00000000000000a4 .LFB17
     /tmp/cc812PIM.s:178    .text:000000000000012c .LFE17
     /tmp/cc812PIM.s:1822   .debug_str:000000000000059f .LASF72
     /tmp/cc812PIM.s:1754   .debug_str:00000000000002e0 .LASF73
GAS LISTING /tmp/cc812PIM.s 			page 9


     /tmp/cc812PIM.s:1672   .debug_str:000000000000007f .LASF74
     /tmp/cc812PIM.s:129    .text:00000000000000c8 .LBB2
     /tmp/cc812PIM.s:154    .text:0000000000000100 .LBE2
     /tmp/cc812PIM.s:1590   .debug_loc:0000000000000000 .LLST3
     /tmp/cc812PIM.s:145    .text:00000000000000f4 .LVL12
     /tmp/cc812PIM.s:1692   .debug_str:0000000000000121 .LASF89
     /tmp/cc812PIM.s:17     .text:0000000000000000 .LFB16
     /tmp/cc812PIM.s:99     .text:00000000000000a4 .LFE16
     /tmp/cc812PIM.s:1602   .debug_loc:0000000000000037 .LLST0
     /tmp/cc812PIM.s:1752   .debug_str:00000000000002d5 .LASF75
     /tmp/cc812PIM.s:1616   .debug_loc:0000000000000070 .LLST1
     /tmp/cc812PIM.s:1623   .debug_loc:0000000000000093 .LLST2
     /tmp/cc812PIM.s:52     .text:0000000000000038 .LVL4
     /tmp/cc812PIM.s:59     .text:000000000000004c .LVL5
     /tmp/cc812PIM.s:64     .text:000000000000005c .LVL6
     /tmp/cc812PIM.s:69     .text:0000000000000068 .LVL7
     /tmp/cc812PIM.s:1742   .debug_str:0000000000000276 .LASF76
     /tmp/cc812PIM.s:1688   .debug_str:000000000000010b .LASF78
     /tmp/cc812PIM.s:1820   .debug_str:000000000000058c .LASF77
     /tmp/cc812PIM.s:1778   .debug_str:000000000000038e .LASF79
     /tmp/cc812PIM.s:1768   .debug_str:000000000000033c .LASF80
     /tmp/cc812PIM.s:1702   .debug_str:0000000000000180 .LASF81
     /tmp/cc812PIM.s:1780   .debug_str:000000000000039a .LASF82
     /tmp/cc812PIM.s:1660   .debug_str:000000000000003d .LASF83
     /tmp/cc812PIM.s:128    .text:00000000000000c8 .LVL10
     /tmp/cc812PIM.s:133    .text:00000000000000d0 .LVL11
     /tmp/cc812PIM.s:173    .text:0000000000000124 .LVL14
     /tmp/cc812PIM.s:21     .text:0000000000000000 .LVL0
     /tmp/cc812PIM.s:41     .text:0000000000000020 .LVL2
     /tmp/cc812PIM.s:37     .text:000000000000001c .LVL1
     /tmp/cc812PIM.s:77     .text:0000000000000074 .LVL8
     /tmp/cc812PIM.s:46     .text:0000000000000024 .LVL3
     /tmp/cc812PIM.s:195    .debug_info:0000000000000000 .Ldebug_info0

UNDEFINED SYMBOLS
_Z11printStringPKc
_Z8printIntiii
_Z10time_sleepm
_Z13thread_createPP7_threadPFvPvES2_
